
BallController.elf:     file format elf32-littlearm

SYMBOL TABLE:
00000000 l    d  APLX	00000000 APLX
00000000 l    d  RO_DATA	00000000 RO_DATA
00400000 l    d  RW_DATA	00000000 RW_DATA
00400048 l    d  ZI_DATA	00000000 ZI_DATA
00000000 l    d  .comment	00000000 .comment
00000000 l    d  .ARM.attributes	00000000 .ARM.attributes
00000000 l    d  .debug_frame	00000000 .debug_frame
00000000 l    df *ABS*	00000000 sark_init.o
00000001 l       *ABS*	00000000 SARK_API
00000001 l       *ABS*	00000000 GNU
00000012 l       *ABS*	00000000 NUM_CPUS
00000011 l       *ABS*	00000000 MAX_CPU
00000006 l       *ABS*	00000000 NUM_LINKS
00000005 l       *ABS*	00000000 MAX_LINK
00000000 l       *ABS*	00000000 ITCM_BASE
00008000 l       *ABS*	00000000 ITCM_SIZE
00008000 l       *ABS*	00000000 ITCM_TOP
00007fc0 l       *ABS*	00000000 ITCM_TOP_64
00007e00 l       *ABS*	00000000 ITCM_TOP_512
00400000 l       *ABS*	00000000 DTCM_BASE
00010000 l       *ABS*	00000000 DTCM_SIZE
00410000 l       *ABS*	00000000 DTCM_TOP
70000000 l       *ABS*	00000000 SDRAM_BASE
08000000 l       *ABS*	00000000 SDRAM_SIZE
78000000 l       *ABS*	00000000 SDRAM_TOP
f5000000 l       *ABS*	00000000 SYSRAM_BASE
00008000 l       *ABS*	00000000 SYSRAM_SIZE
f5008000 l       *ABS*	00000000 SYSRAM_TOP
f6000000 l       *ABS*	00000000 ROM_BASE
00008000 l       *ABS*	00000000 ROM_SIZE
f6008000 l       *ABS*	00000000 ROM_TOP
10000000 l       *ABS*	00000000 CC_BASE
00000000 l       *ABS*	00000000 CC_TCR
00000004 l       *ABS*	00000000 CC_TXDATA
00000008 l       *ABS*	00000000 CC_TXKEY
0000000c l       *ABS*	00000000 CC_RSR
00000010 l       *ABS*	00000000 CC_RXDATA
00000014 l       *ABS*	00000000 CC_RXKEY
00000018 l       *ABS*	00000000 CC_SAR
0000001c l       *ABS*	00000000 CC_TEST
11000000 l       *ABS*	00000000 TIMER_BASE
00000000 l       *ABS*	00000000 T1_LOAD
00000004 l       *ABS*	00000000 T1_COUNT
00000008 l       *ABS*	00000000 T1_CONTROL
0000000c l       *ABS*	00000000 T1_INT_CLR
00000010 l       *ABS*	00000000 T1_RAW_INT
00000014 l       *ABS*	00000000 T1_MASK_INT
00000018 l       *ABS*	00000000 T1_BG_LOAD
00000020 l       *ABS*	00000000 T2_LOAD
00000024 l       *ABS*	00000000 T2_COUNT
00000028 l       *ABS*	00000000 T2_CONTROL
0000002c l       *ABS*	00000000 T2_INT_CLR
00000030 l       *ABS*	00000000 T2_RAW_INT
00000034 l       *ABS*	00000000 T2_MASK_INT
00000038 l       *ABS*	00000000 T2_BG_LOAD
1f000000 l       *ABS*	00000000 VIC_BASE
00000000 l       *ABS*	00000000 VIC_IRQST
00000004 l       *ABS*	00000000 VIC_FIQST
00000008 l       *ABS*	00000000 VIC_RAW
0000000c l       *ABS*	00000000 VIC_SELECT
00000010 l       *ABS*	00000000 VIC_ENABLE
00000014 l       *ABS*	00000000 VIC_DISABLE
00000018 l       *ABS*	00000000 VIC_SOFT_SET
0000001c l       *ABS*	00000000 VIC_SOFT_CLR
00000020 l       *ABS*	00000000 VIC_PROTECT
00000030 l       *ABS*	00000000 VIC_VADDR
00000034 l       *ABS*	00000000 VIC_DEFADDR
00000100 l       *ABS*	00000000 VIC_ADDR0
00000104 l       *ABS*	00000000 VIC_ADDR1
00000108 l       *ABS*	00000000 VIC_ADDR2
0000010c l       *ABS*	00000000 VIC_ADDR3
00000110 l       *ABS*	00000000 VIC_ADDR4
00000114 l       *ABS*	00000000 VIC_ADDR5
00000118 l       *ABS*	00000000 VIC_ADDR6
0000011c l       *ABS*	00000000 VIC_ADDR7
00000120 l       *ABS*	00000000 VIC_ADDR8
00000124 l       *ABS*	00000000 VIC_ADDR9
00000128 l       *ABS*	00000000 VIC_ADDR10
0000012c l       *ABS*	00000000 VIC_ADDR11
00000130 l       *ABS*	00000000 VIC_ADDR12
00000134 l       *ABS*	00000000 VIC_ADDR13
00000138 l       *ABS*	00000000 VIC_ADDR14
0000013c l       *ABS*	00000000 VIC_ADDR15
00000200 l       *ABS*	00000000 VIC_CNTL0
00000204 l       *ABS*	00000000 VIC_CNTL1
00000208 l       *ABS*	00000000 VIC_CNTL2
0000020c l       *ABS*	00000000 VIC_CNTL3
00000210 l       *ABS*	00000000 VIC_CNTL4
00000214 l       *ABS*	00000000 VIC_CNTL5
00000218 l       *ABS*	00000000 VIC_CNTL6
0000021c l       *ABS*	00000000 VIC_CNTL7
00000220 l       *ABS*	00000000 VIC_CNTL8
00000224 l       *ABS*	00000000 VIC_CNTL9
00000228 l       *ABS*	00000000 VIC_CNTL10
0000022c l       *ABS*	00000000 VIC_CNTL11
00000230 l       *ABS*	00000000 VIC_CNTL12
00000234 l       *ABS*	00000000 VIC_CNTL13
00000238 l       *ABS*	00000000 VIC_CNTL14
0000023c l       *ABS*	00000000 VIC_CNTL15
00000000 l       *ABS*	00000000 WDOG_INT
00000001 l       *ABS*	00000000 SOFTWARE_INT
00000002 l       *ABS*	00000000 COMM_RX_INT
00000003 l       *ABS*	00000000 COMM_TX_INT
00000004 l       *ABS*	00000000 TIMER1_INT
00000005 l       *ABS*	00000000 TIMER2_INT
00000006 l       *ABS*	00000000 CC_RDY_INT
00000007 l       *ABS*	00000000 CC_RPE_INT
00000008 l       *ABS*	00000000 CC_RFE_INT
00000009 l       *ABS*	00000000 CC_TFL_INT
0000000a l       *ABS*	00000000 CC_TOV_INT
0000000b l       *ABS*	00000000 CC_TMT_INT
0000000c l       *ABS*	00000000 DMA_DONE_INT
0000000d l       *ABS*	00000000 DMA_ERR_INT
0000000e l       *ABS*	00000000 DMA_TO_INT
0000000f l       *ABS*	00000000 RTR_DIAG_INT
00000010 l       *ABS*	00000000 RTR_DUMP_INT
00000011 l       *ABS*	00000000 RTR_ERR_INT
00000012 l       *ABS*	00000000 CPU_INT
00000013 l       *ABS*	00000000 ETH_TX_INT
00000014 l       *ABS*	00000000 ETH_RX_INT
00000015 l       *ABS*	00000000 ETH_PHY_INT
00000016 l       *ABS*	00000000 SLOW_CLK_INT
00000017 l       *ABS*	00000000 CC_TNF_INT
00000018 l       *ABS*	00000000 CC_MC_INT
00000019 l       *ABS*	00000000 CC_P2P_INT
0000001a l       *ABS*	00000000 CC_NN_INT
0000001b l       *ABS*	00000000 CC_FR_INT
0000001c l       *ABS*	00000000 EXT0_INT
0000001d l       *ABS*	00000000 EXT1_INT
0000001e l       *ABS*	00000000 EXT2_INT
0000001f l       *ABS*	00000000 EXT3_INT
30000000 l       *ABS*	00000000 DMA_BASE
00000180 l       *ABS*	00000000 DMA_CRCT
00000004 l       *ABS*	00000000 DMA_ADRS
00000008 l       *ABS*	00000000 DMA_ADRT
0000000c l       *ABS*	00000000 DMA_DESC
00000010 l       *ABS*	00000000 DMA_CTRL
00000014 l       *ABS*	00000000 DMA_STAT
00000018 l       *ABS*	00000000 DMA_GCTL
0000001c l       *ABS*	00000000 DMA_CRCC
00000020 l       *ABS*	00000000 DMA_CRCR
00000024 l       *ABS*	00000000 DMA_TMTV
00000028 l       *ABS*	00000000 DMA_SCTL
00000040 l       *ABS*	00000000 DMA_STAT0
00000044 l       *ABS*	00000000 DMA_STAT1
00000048 l       *ABS*	00000000 DMA_STAT2
0000004c l       *ABS*	00000000 DMA_STAT3
00000050 l       *ABS*	00000000 DMA_STAT4
00000054 l       *ABS*	00000000 DMA_STAT5
00000058 l       *ABS*	00000000 DMA_STAT6
0000005c l       *ABS*	00000000 DMA_STAT7
00000104 l       *ABS*	00000000 DMA_AD2S
00000108 l       *ABS*	00000000 DMA_AD2T
0000010c l       *ABS*	00000000 DMA_DES2
f0000000 l       *ABS*	00000000 PL340_BASE
00000000 l       *ABS*	00000000 MC_STAT
00000004 l       *ABS*	00000000 MC_CMD
00000008 l       *ABS*	00000000 MC_DIRC
0000000c l       *ABS*	00000000 MC_MCFG
00000010 l       *ABS*	00000000 MC_REFP
00000014 l       *ABS*	00000000 MC_CASL
00000018 l       *ABS*	00000000 MC_DQSS
0000001c l       *ABS*	00000000 MC_MRD
00000020 l       *ABS*	00000000 MC_RAS
00000024 l       *ABS*	00000000 MC_RC
00000028 l       *ABS*	00000000 MC_RCD
0000002c l       *ABS*	00000000 MC_RFC
00000030 l       *ABS*	00000000 MC_RP
00000034 l       *ABS*	00000000 MC_RRD
00000038 l       *ABS*	00000000 MC_WR
0000003c l       *ABS*	00000000 MC_WTR
00000040 l       *ABS*	00000000 MC_XP
00000044 l       *ABS*	00000000 MC_XSR
00000048 l       *ABS*	00000000 MC_ESR
0000004c l       *ABS*	00000000 MC_MCFG2
00000050 l       *ABS*	00000000 MC_MCFG3
00000100 l       *ABS*	00000000 MC_QOS0
00000104 l       *ABS*	00000000 MC_QOS1
00000108 l       *ABS*	00000000 MC_QOS2
0000010c l       *ABS*	00000000 MC_QOS3
00000110 l       *ABS*	00000000 MC_QOS4
00000114 l       *ABS*	00000000 MC_QOS5
00000118 l       *ABS*	00000000 MC_QOS6
0000011c l       *ABS*	00000000 MC_QOS7
00000120 l       *ABS*	00000000 MC_QOS8
00000124 l       *ABS*	00000000 MC_QOS9
00000128 l       *ABS*	00000000 MC_QOS10
0000012c l       *ABS*	00000000 MC_QOS11
00000130 l       *ABS*	00000000 MC_QOS12
00000134 l       *ABS*	00000000 MC_QOS13
00000138 l       *ABS*	00000000 MC_QOS14
0000013c l       *ABS*	00000000 MC_QOS15
00000200 l       *ABS*	00000000 MC_CCFG0
00000204 l       *ABS*	00000000 MC_CCFG1
00000208 l       *ABS*	00000000 MC_CCFG2
0000020c l       *ABS*	00000000 MC_CCFG3
00000300 l       *ABS*	00000000 DLL_STATUS
00000304 l       *ABS*	00000000 DLL_CONFIG0
00000308 l       *ABS*	00000000 DLL_CONFIG1
f1000000 l       *ABS*	00000000 RTR_BASE
00000000 l       *ABS*	00000000 RTR_CONTROL
00000004 l       *ABS*	00000000 RTR_STATUS
00000008 l       *ABS*	00000000 RTR_EHDR
0000000c l       *ABS*	00000000 RTR_EKEY
00000010 l       *ABS*	00000000 RTR_EDAT
00000014 l       *ABS*	00000000 RTR_ESTAT
00000018 l       *ABS*	00000000 RTR_DHDR
0000001c l       *ABS*	00000000 RTR_DKEY
00000020 l       *ABS*	00000000 RTR_DDAT
00000024 l       *ABS*	00000000 RTR_DLINK
00000028 l       *ABS*	00000000 RTR_DSTAT
0000002c l       *ABS*	00000000 RTR_DGEN
00000200 l       *ABS*	00000000 RTR_DGF0
00000204 l       *ABS*	00000000 RTR_DGF1
00000208 l       *ABS*	00000000 RTR_DGF2
0000020c l       *ABS*	00000000 RTR_DGF3
00000210 l       *ABS*	00000000 RTR_DGF4
00000214 l       *ABS*	00000000 RTR_DGF5
00000218 l       *ABS*	00000000 RTR_DGF6
0000021c l       *ABS*	00000000 RTR_DGF7
00000300 l       *ABS*	00000000 RTR_DGC0
00000304 l       *ABS*	00000000 RTR_DGC1
00000308 l       *ABS*	00000000 RTR_DGC2
0000030c l       *ABS*	00000000 RTR_DGC3
00000310 l       *ABS*	00000000 RTR_DGC4
00000314 l       *ABS*	00000000 RTR_DGC5
00000318 l       *ABS*	00000000 RTR_DGC6
0000031c l       *ABS*	00000000 RTR_DGC7
00000220 l       *ABS*	00000000 RTR_DGF8
00000224 l       *ABS*	00000000 RTR_DGF9
00000228 l       *ABS*	00000000 RTR_DGF10
0000022c l       *ABS*	00000000 RTR_DGF11
00000230 l       *ABS*	00000000 RTR_DGF12
00000234 l       *ABS*	00000000 RTR_DGF13
00000238 l       *ABS*	00000000 RTR_DGF14
0000023c l       *ABS*	00000000 RTR_DGF15
00000320 l       *ABS*	00000000 RTR_DGC8
00000324 l       *ABS*	00000000 RTR_DGC9
00000328 l       *ABS*	00000000 RTR_DGC10
0000032c l       *ABS*	00000000 RTR_DGC11
00000330 l       *ABS*	00000000 RTR_DGC12
00000334 l       *ABS*	00000000 RTR_DGC13
00000338 l       *ABS*	00000000 RTR_DGC14
0000033c l       *ABS*	00000000 RTR_DGC15
00000f00 l       *ABS*	00000000 RTR_TST1
00000f04 l       *ABS*	00000000 RTR_TST2
00002000 l       *ABS*	00000000 P2P_TABLE_SIZE
00000400 l       *ABS*	00000000 MC_TABLE_SIZE
00000018 l       *ABS*	00000000 MC_RAM_WIDTH
00ffffff l       *ABS*	00000000 MC_RAM_MASK
00000008 l       *ABS*	00000000 P2P_EPW
00000003 l       *ABS*	00000000 P2P_LOG_EPW
00000007 l       *ABS*	00000000 P2P_EMASK
00000003 l       *ABS*	00000000 P2P_BPE
00000007 l       *ABS*	00000000 P2P_BMASK
00db6db6 l       *ABS*	00000000 P2P_INIT
f1010000 l       *ABS*	00000000 RTR_P2P_BASE
f1018000 l       *ABS*	00000000 RTR_P2P_TOP
f1004000 l       *ABS*	00000000 RTR_MCRAM_BASE
f1005000 l       *ABS*	00000000 RTR_MCRAM_TOP
f1008000 l       *ABS*	00000000 RTR_MCKEY_BASE
f100c000 l       *ABS*	00000000 RTR_MCMASK_BASE
00000020 l       *ABS*	00000000 MC_CAM_WIDTH
f2000000 l       *ABS*	00000000 SYSCTL_BASE
5ec00000 l       *ABS*	00000000 SC_CODE
59111012 l       *ABS*	00000000 CHIP_ID
00000000 l       *ABS*	00000000 SC_CHIP_ID
00000004 l       *ABS*	00000000 SC_CPU_DIS
00000008 l       *ABS*	00000000 SC_SET_IRQ
0000000c l       *ABS*	00000000 SC_CLR_IRQ
00000010 l       *ABS*	00000000 SC_SET_OK
00000010 l       *ABS*	00000000 SC_CPU_OK
00000014 l       *ABS*	00000000 SC_CLR_OK
00000018 l       *ABS*	00000000 SC_SOFT_RST_L
0000001c l       *ABS*	00000000 SC_HARD_RST_L
00000020 l       *ABS*	00000000 SC_SUBS_RST_L
00000024 l       *ABS*	00000000 SC_SOFT_RST_P
00000028 l       *ABS*	00000000 SC_HARD_RST_P
0000002c l       *ABS*	00000000 SC_SUBS_RST_P
00000030 l       *ABS*	00000000 SC_RST_CODE
00000034 l       *ABS*	00000000 SC_MON_ID
00000038 l       *ABS*	00000000 SC_MISC_CTRL
0000003c l       *ABS*	00000000 GPIO_RES
00000040 l       *ABS*	00000000 GPIO_PORT
00000044 l       *ABS*	00000000 GPIO_DIR
00000048 l       *ABS*	00000000 GPIO_SET
0000004c l       *ABS*	00000000 GPIO_CLR
00000048 l       *ABS*	00000000 GPIO_READ
00000050 l       *ABS*	00000000 SC_PLL1
00000054 l       *ABS*	00000000 SC_PLL2
00000058 l       *ABS*	00000000 SC_FLAG
00000058 l       *ABS*	00000000 SC_SETFLAG
0000005c l       *ABS*	00000000 SC_CLRFLAG
00000060 l       *ABS*	00000000 SC_CLKMUX
00000064 l       *ABS*	00000000 SC_SLEEP
00000068 l       *ABS*	00000000 SC_TS0
0000006c l       *ABS*	00000000 SC_TS1
00000070 l       *ABS*	00000000 SC_TS2
00000080 l       *ABS*	00000000 SC_ARB0
00000100 l       *ABS*	00000000 SC_TAS0
00000180 l       *ABS*	00000000 SC_TAC0
00000200 l       *ABS*	00000000 SC_LINK_DIS
00000000 l       *ABS*	00000000 RST_POR
00000001 l       *ABS*	00000000 RST_WDT
00000002 l       *ABS*	00000000 RST_USER
00000003 l       *ABS*	00000000 RST_SW
00000004 l       *ABS*	00000000 RST_WDI
f3000000 l       *ABS*	00000000 WDOG_BASE
00000000 l       *ABS*	00000000 WD_LOAD
00000004 l       *ABS*	00000000 WD_COUNT
00000008 l       *ABS*	00000000 WD_CTRL
0000000c l       *ABS*	00000000 WD_INTCLR
00000010 l       *ABS*	00000000 WD_RAWINT
00000014 l       *ABS*	00000000 WD_MSKINT
00000c00 l       *ABS*	00000000 WD_LOCK
1acce551 l       *ABS*	00000000 WD_CODE
00000001 l       *ABS*	00000000 WD_INT_B
00000002 l       *ABS*	00000000 WD_RST_B
f4000000 l       *ABS*	00000000 ETH_BASE
f4000000 l       *ABS*	00000000 ETH_TX_BASE
00000600 l       *ABS*	00000000 ETH_TX_SIZE
f4000600 l       *ABS*	00000000 ETH_TX_TOP
f4004000 l       *ABS*	00000000 ETH_RX_BASE
00000c00 l       *ABS*	00000000 ETH_RX_SIZE
f4004c00 l       *ABS*	00000000 ETH_RX_TOP
f4008000 l       *ABS*	00000000 ETH_RX_DESC_RAM
f400c000 l       *ABS*	00000000 ETH_REGS
00000000 l       *ABS*	00000000 ETH_CONTROL
00000004 l       *ABS*	00000000 ETH_STATUS
00000008 l       *ABS*	00000000 ETH_TX_LEN
0000000c l       *ABS*	00000000 ETH_TX_CMD
00000010 l       *ABS*	00000000 ETH_RX_CMD
00000014 l       *ABS*	00000000 ETH_MAC_LO
00000018 l       *ABS*	00000000 ETH_MAC_HI
0000001c l       *ABS*	00000000 ETH_PHY_CTRL
00000020 l       *ABS*	00000000 ETH_INT_CLR
00000024 l       *ABS*	00000000 ETH_RX_BUF_RP
0000002c l       *ABS*	00000000 ETH_RX_DESC_RP
00000001 l       *ABS*	00000000 ETH_TX_CLR
00000010 l       *ABS*	00000000 ETH_RX_CLR
00000001 l       *ABS*	00000000 PHY_CTRL_NRST
00000002 l       *ABS*	00000000 PHY_CTRL_DIN
00000004 l       *ABS*	00000000 PHY_CTRL_DOUT
00000008 l       *ABS*	00000000 PHY_CTRL_OE
00000010 l       *ABS*	00000000 PHY_CTRL_CLK
00000000 l       *ABS*	00000000 PKT_MC
00400000 l       *ABS*	00000000 PKT_P2P
00800000 l       *ABS*	00000000 PKT_NN
00a00000 l       *ABS*	00000000 PKT_NND
00c00000 l       *ABS*	00000000 PKT_FR
00c00000 l       *ABS*	00000000 PKT_MASK
00030000 l       *ABS*	00000000 P2P_TYPE_BITS
00000000 l       *ABS*	00000000 TCR_MC
00400000 l       *ABS*	00000000 TCR_P2P
00800000 l       *ABS*	00000000 TCR_NN
00a00000 l       *ABS*	00000000 TCR_NND
00c00000 l       *ABS*	00000000 TCR_FR
00020000 l       *ABS*	00000000 TCR_PAYLOAD
00020000 l       *ABS*	00000000 RSR_PAYLOAD
00020000 l       *ABS*	00000000 TCR_MC_P
00420000 l       *ABS*	00000000 TCR_P2P_P
00820000 l       *ABS*	00000000 TCR_NN_P
00a20000 l       *ABS*	00000000 TCR_NND_P
00c20000 l       *ABS*	00000000 TCR_FR_P
00000000 l       *ABS*	00000000 PHY_CONTROL
00000001 l       *ABS*	00000000 PHY_STATUS
00000002 l       *ABS*	00000000 PHY_ID1
00000003 l       *ABS*	00000000 PHY_ID2
00000004 l       *ABS*	00000000 PHY_AUTO_ADV
00000005 l       *ABS*	00000000 PHY_AUTO_LPA
00000006 l       *ABS*	00000000 PHY_AUTO_EXP
00000010 l       *ABS*	00000000 PHY_SI_REV
00000011 l       *ABS*	00000000 PHY_MODE_CSR
00000012 l       *ABS*	00000000 PHY_SP_MODE
0000001a l       *ABS*	00000000 PHY_ERR_COUNT
0000001b l       *ABS*	00000000 PHY_SP_CSIR
0000001d l       *ABS*	00000000 PHY_INT_SRC
0000001e l       *ABS*	00000000 PHY_INT_MASK
0000001f l       *ABS*	00000000 PHY_SP_CSR
00000010 l       *ABS*	00000000 MODE_USER
00000011 l       *ABS*	00000000 MODE_FIQ
00000012 l       *ABS*	00000000 MODE_IRQ
00000013 l       *ABS*	00000000 MODE_SVC
00000017 l       *ABS*	00000000 MODE_ABT
0000001b l       *ABS*	00000000 MODE_UND
0000001f l       *ABS*	00000000 MODE_SYS
00000020 l       *ABS*	00000000 THUMB_BIT
00000080 l       *ABS*	00000000 IMASK_IRQ
00000040 l       *ABS*	00000000 IMASK_FIQ
000000c0 l       *ABS*	00000000 IMASK_ALL
00410000 l       *ABS*	00000000 IRQ_STACK
00000100 l       *ABS*	00000000 IRQ_SIZE
0040ff00 l       *ABS*	00000000 FIQ_STACK
00000100 l       *ABS*	00000000 FIQ_SIZE
0040fe00 l       *ABS*	00000000 SVC_STACK
00000014 l       *ABS*	00000000 MAX_CPUS
00000100 l       *ABS*	00000000 BUF_SIZE
00000000 l       *ABS*	00000000 NULL
00000000 l       *ABS*	00000000 MONITOR_CPU
ffff4000 l       *ABS*	00000000 ROM_IMAGE1
80000000 l       *ABS*	00000000 BIT_31
40000000 l       *ABS*	00000000 BIT_30
20000000 l       *ABS*	00000000 BIT_29
00000001 l       *ABS*	00000000 BIT_0
deaddead l       *ABS*	00000000 DEAD_WORD
00000000 l       *ABS*	00000000 SW_UNKNOWN
00000001 l       *ABS*	00000000 SW_SCAMP
ffffffff l       *ABS*	00000000 APLX_END
00000001 l       *ABS*	00000000 APLX_ACOPY
00000002 l       *ABS*	00000000 APLX_RCOPY
00000003 l       *ABS*	00000000 APLX_FILL
00000004 l       *ABS*	00000000 APLX_EXEC
00000010 l       *ABS*	00000000 APLX_SIZE
00000000 l       *ABS*	00000000 P2P_TYPE_SDP
01000000 l       *ABS*	00000000 P2P_CTRL
09000000 l       *ABS*	00000000 P2P_OPEN_REQ
01000000 l       *ABS*	00000000 P2P_OPEN_ACK
03000000 l       *ABS*	00000000 P2P_DATA_ACK
05000000 l       *ABS*	00000000 P2P_CLOSE_REQ
07000000 l       *ABS*	00000000 P2P_CLOSE_ACK
00000004 l       *ABS*	00000000 P2P_DEF_SQL
00000000 l       *ABS*	00000000 CMD_VER
00000001 l       *ABS*	00000000 CMD_RUN
00000002 l       *ABS*	00000000 CMD_READ
00000003 l       *ABS*	00000000 CMD_WRITE
00000004 l       *ABS*	00000000 CMD_APLX
0000000f l       *ABS*	00000000 CMD_AP_MAX
00000010 l       *ABS*	00000000 CMD_LINK_PROBE
00000011 l       *ABS*	00000000 CMD_LINK_READ
00000012 l       *ABS*	00000000 CMD_LINK_WRITE
00000013 l       *ABS*	00000000 CMD_xxx_19
00000014 l       *ABS*	00000000 CMD_NNP
00000015 l       *ABS*	00000000 CMD_P2PC
00000016 l       *ABS*	00000000 CMD_PING
00000017 l       *ABS*	00000000 CMD_FFD
00000018 l       *ABS*	00000000 CMD_AS
00000019 l       *ABS*	00000000 CMD_LED
0000001a l       *ABS*	00000000 CMD_IPTAG
0000001b l       *ABS*	00000000 CMD_SROM
00000040 l       *ABS*	00000000 CMD_TUBE
00000080 l       *ABS*	00000000 RC_OK
00000081 l       *ABS*	00000000 RC_LEN
00000082 l       *ABS*	00000000 RC_SUM
00000083 l       *ABS*	00000000 RC_CMD
00000084 l       *ABS*	00000000 RC_ARG
00000085 l       *ABS*	00000000 RC_PORT
00000086 l       *ABS*	00000000 RC_TIMEOUT
00000087 l       *ABS*	00000000 RC_ROUTE
00000088 l       *ABS*	00000000 RC_CPU
00000089 l       *ABS*	00000000 RC_DEAD
0000008a l       *ABS*	00000000 RC_BUF
0000008b l       *ABS*	00000000 RC_P2P_NOREPLY
0000008c l       *ABS*	00000000 RC_P2P_REJECT
0000008d l       *ABS*	00000000 RC_P2P_BUSY
0000008e l       *ABS*	00000000 RC_P2P_TIMEOUT
0000008f l       *ABS*	00000000 RC_PKT_TX
00000000 l       *ABS*	00000000 TYPE_BYTE
00000001 l       *ABS*	00000000 TYPE_HALF
00000002 l       *ABS*	00000000 TYPE_WORD
00000000 l       *ABS*	00000000 IPTAG_NEW
00000001 l       *ABS*	00000000 IPTAG_SET
00000002 l       *ABS*	00000000 IPTAG_GET
00000003 l       *ABS*	00000000 IPTAG_CLR
00000004 l       *ABS*	00000000 IPTAG_AUTO
00000004 l       *ABS*	00000000 IPTAG_MAX
00008000 l       *ABS*	00000000 IPTAG_VALID
00004000 l       *ABS*	00000000 IPTAG_TRANS
00002000 l       *ABS*	00000000 IPTAG_ARP
000000ff l       *ABS*	00000000 TAG_NONE
00000000 l       *ABS*	00000000 TAG_HOST
00000080 l       *ABS*	00000000 SDPF_REPLY
00000040 l       *ABS*	00000000 SDPF_xxx_40
00000020 l       *ABS*	00000000 SDPF_SUM
00000010 l       *ABS*	00000000 SDPF_DP2P
00000008 l       *ABS*	00000000 SDPF_DLINK
00000007 l       *ABS*	00000000 SDPF_LMASK
00000000 l       *ABS*	00000000 LOCK_MSG
00000001 l       *ABS*	00000000 LOCK_MBOX
00000002 l       *ABS*	00000000 LOCK_ETHER
00000003 l       *ABS*	00000000 LOCK_GPIO
00000004 l       *ABS*	00000000 LOCK_API_ROOT
00000000 l       *ABS*	00000000 NN_CMD_SIG0
00000001 l       *ABS*	00000000 NN_CMD_RTRC
00000002 l       *ABS*	00000000 NN_CMD_LTPC
00000003 l       *ABS*	00000000 NN_CMD_SP_3
00000004 l       *ABS*	00000000 NN_CMD_SIG1
00000005 l       *ABS*	00000000 NN_CMD_P2PC
00000006 l       *ABS*	00000000 NN_CMD_FFS
00000007 l       *ABS*	00000000 NN_CMD_SP_7
00000008 l       *ABS*	00000000 NN_CMD_PING
00000009 l       *ABS*	00000000 NN_CMD_P2PB
0000000a l       *ABS*	00000000 NN_CMD_SDP
0000000b l       *ABS*	00000000 NN_CMD_SP_11
0000000c l       *ABS*	00000000 NN_CMD_FBS
0000000d l       *ABS*	00000000 NN_CMD_FBD
0000000e l       *ABS*	00000000 NN_CMD_FBE
0000000f l       *ABS*	00000000 NN_CMD_FFE
5a000000 l       *ABS*	00000000 NN_SDP_KEY
0000000a l       *ABS*	00000000 CLK_XTAL_MHZ
0007011e l       *ABS*	00000000 PLL_300
00070128 l       *ABS*	00000000 PLL_400
0007011a l       *ABS*	00000000 PLL_260
00070121 l       *ABS*	00000000 PLL_330
00000050 l       *ABS*	00000000 PLL_LOCK_TIME
809488a5 l       *ABS*	00000000 PLL_CLK_SEL
00000004 l       *ABS*	00000000 SERIAL_SO
00000008 l       *ABS*	00000000 SERIAL_SI
00000010 l       *ABS*	00000000 SERIAL_CLK
00000020 l       *ABS*	00000000 SERIAL_NCS
00000038 l       *ABS*	00000000 SERIAL_OE
0000003f l       *ABS*	00000000 GPIO_HW_VER
00000000 l       *ABS*	00000000 HW_VER_S2
00000008 l       *ABS*	00000000 HW_VER_S3
00000001 l       *ABS*	00000000 LED_0
80000000 l       *ABS*	00000000 SDRAM_TQ
40000000 l       *ABS*	00000000 SDRAM_DPD
20000000 l       *ABS*	00000000 SDRAM_HERE
00000001 l       *ABS*	00000000 SER_OUT_0
00000002 l       *ABS*	00000000 SER_OUT_1
00000003 l       *ABS*	00000000 SER_OUT
00000040 l       *ABS*	00000000 SER_IN_0
00000080 l       *ABS*	00000000 SER_IN_1
000000c0 l       *ABS*	00000000 SER_IN
000000c0 l       *ABS*	00000000 FAIL_RESET
000000c1 l       *ABS*	00000000 FAIL_ROMX
000000c2 l       *ABS*	00000000 FAIL_ITCM0
000000c3 l       *ABS*	00000000 FAIL_ITCM1
000000c4 l       *ABS*	00000000 FAIL_DTCM
000000c5 l       *ABS*	00000000 FAIL_TIMER
000000c6 l       *ABS*	00000000 FAIL_VIC
000000c7 l       *ABS*	00000000 FAIL_CC
000000c8 l       *ABS*	00000000 FAIL_DMA
000000c9 l       *ABS*	00000000 FAIL_MP
000000ca l       *ABS*	00000000 FAIL_LATE
000000cb l       *ABS*	00000000 FAIL_MANUF
000000cc l       *ABS*	00000000 FAIL_SLEEP
000000cf l       *ABS*	00000000 FAIL_TLM
000000a0 l       *ABS*	00000000 FAIL_VEC
00000020 l       *ABS*	00000000 SV_SSIZE
00000060 l       *ABS*	00000000 SV_USIZE
00000080 l       *ABS*	00000000 SV_ISIZE
00000020 l       *ABS*	00000000 SV_VSIZE
00000040 l       *ABS*	00000000 SV_PSIZE
00000040 l       *ABS*	00000000 SV_RSIZE
000000a0 l       *ABS*	00000000 SV_MSIZE
000000a0 l       *ABS*	00000000 SV_ASIZE
f5007fe0 l       *ABS*	00000000 SV_SBASE
f5007f80 l       *ABS*	00000000 SV_UBASE
f5007f00 l       *ABS*	00000000 SV_IBASE
f5007f00 l       *ABS*	00000000 SV_BASE
f5007ee0 l       *ABS*	00000000 SV_VBASE
f5007ec0 l       *ABS*	00000000 SV_PBASE
f5007e80 l       *ABS*	00000000 SV_RBASE
f5007de0 l       *ABS*	00000000 SV_ABASE
f5007d40 l       *ABS*	00000000 SV_MBASE
f5007fe0 l       *ABS*	00000000 SROM_FLAG_BASE
f5007f80 l       *ABS*	00000000 STATUS_MAP_BASE
f5007ee0 l       *ABS*	00000000 RST_BLOCK_BASE
00008000 l       *ABS*	00000000 SRF_PRESENT
000000f0 l       *ABS*	00000000 SRF_HW_VER
00000008 l       *ABS*	00000000 SRF_PHY_INIT
00000004 l       *ABS*	00000000 SRF_PHY_RST
00000002 l       *ABS*	00000000 SRF_HI_LED
00000001 l       *ABS*	00000000 SRF_ETH
00000000 l       *ABS*	00000000 SRF_NONE
00000010 l       *ABS*	00000000 RTE_RESET
00000011 l       *ABS*	00000000 RTE_UNDEF
00000012 l       *ABS*	00000000 RTE_SVC
00000013 l       *ABS*	00000000 RTE_PABT
00000014 l       *ABS*	00000000 RTE_DABT
00000015 l       *ABS*	00000000 RTE_ADDR
00000016 l       *ABS*	00000000 RTE_IRQ
00000017 l       *ABS*	00000000 RTE_FIQ
00000000 l       APLX	00000000 aplx_table
00000020 l       RO_DATA	00000000 reset_vec
00000024 l       RO_DATA	00000000 undef_vec
00000028 l       RO_DATA	00000000 svc_vec
0000002c l       RO_DATA	00000000 pabt_vec
00000030 l       RO_DATA	00000000 dabt_vec
00000034 l       RO_DATA	00000000 addr_vec
0000003c l       RO_DATA	00000000 fiq_vec
00000040 l       RO_DATA	00000000 reset_han
00000088 l       RO_DATA	00000000 undef_err
000000c0 l       RO_DATA	00000000 svc_han
00000098 l       RO_DATA	00000000 pabt_err
000000a0 l       RO_DATA	00000000 dabt_err
000000a8 l       RO_DATA	00000000 addr_err
00000038 l       RO_DATA	00000000 irq_vec
000000b0 l       RO_DATA	00000000 irq_err
000000b8 l       RO_DATA	00000000 fiq_err
00001000 l       *ABS*	00000000 RTS_STACK
0040f000 l       *ABS*	00000000 C_STACK
00000080 l       RO_DATA	00000000 reset_err
00000090 l       RO_DATA	00000000 svc_err
000000e4 l       RO_DATA	00000000 svc_tube
000000e8 l       RO_DATA	00000000 svc_exit
00000184 l       RO_DATA	00000000 wc2
0000016c l       RO_DATA	00000000 wc1
00000260 l       RO_DATA	00000000 aplx_loader
00000248 l       RO_DATA	00000000 ap0
00000278 l       RO_DATA	00000000 aplx_copy
00000274 l       RO_DATA	00000000 aplx_rcopy
00000286 l       RO_DATA	00000000 aplx_fill
00000296 l       RO_DATA	00000000 aplx_exec
0000028c l       RO_DATA	00000000 ap1
00000000 l    df *ABS*	00000000 sark.c
000002b0 l     F RO_DATA	0000004c shm_msg_free
0040041c l     O ZI_DATA	00000004 msg_root
00400420 l     O ZI_DATA	00000004 msg_count
00400424 l     O ZI_DATA	00000004 msg_max
00400428 l     O ZI_DATA	00000490 msg_bufs
004008b8 l     O ZI_DATA	00000004 tube_msg
00000000 l    df *ABS*	00000000 spin1_isr.c
0040002c l     O RW_DATA	00000004 prng_seed
004008bc l     O ZI_DATA	00000004 prng_seed_ext
00000000 l    df *ABS*	00000000 spin1_api.c
00000f28 l     F RO_DATA	0000023c barrier_setup
00400030 l     O RW_DATA	00000004 nchips
00400038 l     O RW_DATA	00000004 ncores
0040003c l     O RW_DATA	00000004 dma_id
00400040 l     O RW_DATA	00000004 current_addr
004008c0 l     O ZI_DATA	00000001 rootChip
004008c2 l     O ZI_DATA	00000002 rootAddr
004008c4 l     O ZI_DATA	00000004 my_chip
004008c8 l     O ZI_DATA	00000004 my_ncores
004008d0 l     O ZI_DATA	00000004 timer_tick
004008d4 l     O ZI_DATA	00000004 warnings
004008d8 l     O ZI_DATA	00000004 fullq
004008dc l     O ZI_DATA	00000004 dfull
004008e0 l     O ZI_DATA	00000004 pfull
004008e8 l     O ZI_DATA	00000004 run
004008ec l     O ZI_DATA	00000320 task_queue
00000000 l    df *ABS*	00000000 spinn_io.c
00002f20 l     O RO_DATA	00000011 hex
00400c18 l     O ZI_DATA	00000004 sp_ptr
00000000 l    df *ABS*	00000000 
00000000 l    df *ABS*	00000000 BallController.c
00000000 l    df *ABS*	00000000 network.c
00000000 l    df *ABS*	00000000 communication.c
00000000 l    df *ABS*	00000000 spin1_math.c
00000000 l    df *ABS*	00000000 hacks.c
00000000 l    df *ABS*	00000000 sincos.c
00000000 l    df *ABS*	00000000 sqrt.c
00000000 l    df *ABS*	00000000 sqrtf.c
00000000 l    df *ABS*	00000000 rand.c
00400158 l     O ZI_DATA	00000008 seed
00000000 l    df *ABS*	00000000 __cos.c
00000000 l    df *ABS*	00000000 __rem_pio2.c
00000000 l    df *ABS*	00000000 __rem_pio2_large.c
00007d48 l     O RO_DATA	00000010 init_jk
00007d58 l     O RO_DATA	00000108 ipio2
00007e60 l     O RO_DATA	00000040 PIo2
00000000 l    df *ABS*	00000000 __sin.c
00000000 l    df *ABS*	00000000 floor.c
00000000 l    df *ABS*	00000000 scalbn.c
00000000 l    df *ABS*	00000000 _divsi3.o
00006958 l       RO_DATA	00000000 .divsi3_skip_div0_test
00000000 l       *ABS*	00000000 shift
00000000 l    df *ABS*	00000000 _arm_addsubdf3.o
00000000 l    df *ABS*	00000000 _arm_muldivdf3.o
00000000 l    df *ABS*	00000000 _arm_cmpdf2.o
00000000 l    df *ABS*	00000000 _arm_fixdfsi.o
00000000 l    df *ABS*	00000000 _arm_truncdfsf2.o
00000000 l    df *ABS*	00000000 _arm_addsubsf3.o
00000000 l    df *ABS*	00000000 _arm_muldivsf3.o
00000000 l    df *ABS*	00000000 _arm_cmpsf2.o
00000000 l    df *ABS*	00000000 _arm_fixsfsi.o
00000000 l    df *ABS*	00000000 _dvmd_lnx.o
00000000 l    df *ABS*	00000000 
00007c90 l     F RO_DATA	0000000c __proc_aplx_from_arm
00001828 g     F RO_DATA	00000650 spin1_start
000074a8 g     F RO_DATA	00000014 .hidden __aeabi_dcmple
00003fb4 g     F RO_DATA	00000010 phi_MFM_y
000073c8 g     F RO_DATA	00000088 .hidden __cmpdf2
00400c0c g     O ZI_DATA	00000004 barrier_rdygo
00004dd8 g     F RO_DATA	00000260 sqrt
000036d8 g     F RO_DATA	00000208 send_upd
00400194 g     O ZI_DATA	00000004 barrier_rdy1_cnt
000073c8 g     F RO_DATA	00000088 .hidden __eqdf2
00001f04 g     F RO_DATA	00000010 spin1_get_core_id
00400150 g     O ZI_DATA	00000004 e_x
00000040 g       *ABS*	00000000 RO_FROM
00000240 g     F RO_DATA	00000000 proc_aplx
00006ee8 g     F RO_DATA	00000060 .hidden __floatdidf
00000380 g     F RO_DATA	00000034 spin1_msg_free
00001164 g     F RO_DATA	00000078 spin1_callback_on
00003c70 g     F RO_DATA	000000d8 init_network
0000431c g     F RO_DATA	00000050 sigma_y
00400020 g     O RW_DATA	00000004 avg_speed
000021e4 g     F RO_DATA	00000050 spin1_trigger_user_event
00002cd4 g     O RO_DATA	00000008 S3_LEDS
000079c8 g     F RO_DATA	00000160 .hidden __divsf3
00400198 g     O ZI_DATA	00000004 barrier_rdy2_cnt
00001618 g     F RO_DATA	00000020 spin1_memcpy
00002cdc g     O RO_DATA	00000008 S2_LEDS
000013e4 g     F RO_DATA	00000088 clean_up
00007c24 g     F RO_DATA	0000005c .hidden __fixsfsi
00000be8 g     F RO_DATA	00000024 dma_error_isr
00000cb4 g     F RO_DATA	00000060 timer1_isr
00400168 g     O ZI_DATA	00000008 n
00400134 g     O ZI_DATA	00000004 w_A_theta
00004c38 g     F RO_DATA	00000004 __aeabi_unwind_cpp_pr0
000073b8 g     F RO_DATA	00000098 .hidden __gtdf2
00001330 g     F RO_DATA	000000b4 spin1_application_core_map
00000d14 g     F RO_DATA	00000068 soft_int_isr
00400014 g     O RW_DATA	00000004 total_sum_pos
000016c0 g     F RO_DATA	00000168 spin1_send_mc_packet
00006734 g     F RO_DATA	0000012c floor
0000746c g     F RO_DATA	00000014 .hidden __aeabi_cdcmple
00000ee8 g     F RO_DATA	00000040 spin1_rand
000075ec g     F RO_DATA	00000190 .hidden __aeabi_fadd
000075e8 g     F RO_DATA	00000194 .hidden __subsf3
00003154 g     F RO_DATA	000000e8 c_main
00000140 g     F RO_DATA	00000000 bx
00002234 g     F RO_DATA	00000244 rts_init
000027e8 g     F RO_DATA	000000d8 io_put_hex
00001ea8 g     F RO_DATA	00000010 irq_enable
00005038 g     F RO_DATA	00000130 sqrtf
000042cc g     F RO_DATA	00000050 sigma_x
0000491c g     F RO_DATA	00000010 empty_vector
000033fc g     F RO_DATA	000000cc normalizeBallParams
00007450 g     F RO_DATA	00000030 .hidden __aeabi_cdrcmple
000003b4 g     F RO_DATA	000000fc sark_setup
00001ea0 g     F RO_DATA	00000008 spin1_mode_restore
00001e90 g     F RO_DATA	00000010 spin1_irq_disable
00007c10 g     F RO_DATA	00000014 .hidden __aeabi_fcmpgt
00005b14 g     F RO_DATA	000009ec __rem_pio2_large
00006e6c g     F RO_DATA	00000028 .hidden __floatsidf
000073c0 g     F RO_DATA	00000090 .hidden __ltdf2
00003240 g     F RO_DATA	000000c4 average_params
00002150 g     F RO_DATA	00000094 spin1_schedule_callback
00000da4 g     F RO_DATA	00000090 dma_done_fiqsr
0000122c g     F RO_DATA	00000104 spin1_set_core_map
00400000 g       *ABS*	00000000 RW_TO
00007784 g     F RO_DATA	00000020 .hidden __aeabi_i2f
000039b4 g     F RO_DATA	00000184 init_MFM
0040019c g     O ZI_DATA	00000004 def_fiq_isr
004001a0 g     O ZI_DATA	0000002c diagnostics
00007b30 g     F RO_DATA	0000006c .hidden __lesf2
000002fc g     F RO_DATA	00000030 sark_error
00400c1c g       ZI_DATA	00000000 HEAP_BASE
0000020c g     F RO_DATA	00000000 svc_put_char
000028c0 g     F RO_DATA	00000190 io_put_fixed
00006e48 g     F RO_DATA	00000024 .hidden __aeabi_ui2d
000034ec g     F RO_DATA	00000024 r_pos_y
00004b68 g     F RO_DATA	00000028 perp
00006b90 g     F RO_DATA	00000000 .hidden __aeabi_drsub
00400018 g     O RW_DATA	00000004 total_sum_speed
004001cc g     O ZI_DATA	00000004 phys_cpu
00007494 g     F RO_DATA	00000014 .hidden __aeabi_dcmplt
00001e78 g     F RO_DATA	00000018 send_mc_packet_fulfil
00006e94 g     F RO_DATA	00000040 .hidden __extendsfdf2
000071b4 g     F RO_DATA	00000204 .hidden __aeabi_ddiv
00006b9c g     F RO_DATA	000002ac .hidden __adddf3
00007b38 g     F RO_DATA	00000064 .hidden __nesf2
00004c3c g     F RO_DATA	0000019c sincos
00400054 g     O ZI_DATA	00000004 node_counter
00006f48 g     F RO_DATA	0000026c .hidden __aeabi_dmul
00003568 g     F RO_DATA	000000cc send_err
004001d0 g     O ZI_DATA	00000004 user_arg1
0000495c g     F RO_DATA	00000048 v_norm
00000214 g     F RO_DATA	00000000 schedule
00001eb8 g     F RO_DATA	00000008 wait_for_irq
004001d4 g     O ZI_DATA	00000004 virt_cpu
00002478 g     F RO_DATA	0000006c rts_cleanup
00000b44 g     F RO_DATA	000000a4 cc_tx_empty_isr
00006e48 g     F RO_DATA	00000024 .hidden __floatunsidf
00000a54 g     F RO_DATA	000000c8 barrier_packet_handler
00400048 g     O ZI_DATA	00000004 state
004000a4 g     O ZI_DATA	00000004 total_sum_y
004000a8 g     O ZI_DATA	00000040 y_buffer
00007540 g     F RO_DATA	000000a0 .hidden __aeabi_d2f
00000d7c g     F RO_DATA	00000028 cc_rx_ready_fiqsr
00400c10 g     O ZI_DATA	00000004 barrier_go
000075e8 g     F RO_DATA	00000194 .hidden __aeabi_fsub
00001f14 g     F RO_DATA	00000014 spin1_get_chip_id
00004b90 g     F RO_DATA	000000a4 project
00003634 g     F RO_DATA	000000a4 rec_err
00007bfc g     F RO_DATA	00000014 .hidden __aeabi_fcmpge
000074e4 g     F RO_DATA	0000005c .hidden __fixdfsi
00003510 g     F RO_DATA	0000002c R_x
000077b4 g     F RO_DATA	0000007c .hidden __floatdisf
00400c14 g     O ZI_DATA	00000001 user_pending
0000169c g     F RO_DATA	00000024 spin1_flush_tx_packet_queue
00002030 g     F RO_DATA	00000038 spin1_kill
00007b28 g     F RO_DATA	00000074 .hidden __gtsf2
000034c8 g     F RO_DATA	00000024 r_pos_x
00004820 g     F RO_DATA	0000001c sendMotorCommand
00004a4c g     F RO_DATA	00000048 v_mul
00006b9c g     F RO_DATA	000002ac .hidden __aeabi_dadd
000073c0 g     F RO_DATA	00000090 .hidden __ledf2
00007be8 g     F RO_DATA	00000014 .hidden __aeabi_fcmple
0000120c g     F RO_DATA	00000010 spin1_get_simulation_time
00006ed4 g     F RO_DATA	00000074 .hidden __aeabi_ul2d
00007ed0 g       *ABS*	00000000 RW_FROM
0040014c g     O ZI_DATA	00000004 old_V_y
00400128 g     O ZI_DATA	00000004 w_V_x
0040005c g     O ZI_DATA	00000004 curr_index
00006950 g     F RO_DATA	00000000 .hidden __aeabi_idiv
00004938 g     F RO_DATA	00000024 norm
000004b0 g     F RO_DATA	0000015c spin1_send_sdp_msg
00400000 g     O RW_DATA	00000004 sim_count
000025b4 g     F RO_DATA	00000108 io_put_int
00400060 g     O ZI_DATA	00000004 total_sum_x
0000445c g     F RO_DATA	000000dc move
000074d0 g     F RO_DATA	00000014 .hidden __aeabi_dcmpgt
00001ee0 g     F RO_DATA	00000024 spin1_get_id
000049f8 g     F RO_DATA	00000054 v_sub
00400000 g       *ABS*	00000000 DTCM_BASE
00002530 g     F RO_DATA	00000084 io_put_str
00003fc4 g     F RO_DATA	00000194 updateError
000074bc g     F RO_DATA	00000014 .hidden __aeabi_dcmpge
00400170 g     O ZI_DATA	00000008 center
000048fc g     F RO_DATA	00000020 f_abs
004008e4 g     O ZI_DATA	00000004 exit_val
00006b98 g     F RO_DATA	000002b0 .hidden __aeabi_dsub
00001ec0 g     F RO_DATA	00000010 spin1_fiq_disable
00006ed4 g     F RO_DATA	00000074 .hidden __floatundidf
0000151c g     F RO_DATA	00000028 spin1_delay_us
00005180 g     F RO_DATA	00000048 rand
000038e0 g     F RO_DATA	000000d4 rec_upd
000053dc g     F RO_DATA	00000738 __rem_pio2
00007784 g     F RO_DATA	00000020 .hidden __floatsisf
00003d48 g     F RO_DATA	000000e4 save_
000000f8 g       RO_DATA	00000000 cpu_int
00003b38 g     F RO_DATA	00000138 init_params_
00007c24 g     F RO_DATA	0000005c .hidden __aeabi_f2iz
00007b38 g     F RO_DATA	00000064 .hidden __eqsf2
0040011c g     O ZI_DATA	00000004 sp_y_term
00003ea0 g     F RO_DATA	00000104 mfm_
000026bc g     F RO_DATA	000000e4 io_put_uint
0040004c g     O ZI_DATA	00000004 x_pos
000079c8 g     F RO_DATA	00000160 .hidden __aeabi_fdiv
0040001c g     O RW_DATA	00000004 avg_pos
00000044 g       *ABS*	00000000 RW_LENGTH
00006e6c g     F RO_DATA	00000028 .hidden __aeabi_i2d
0000489c g     F RO_DATA	00000020 max
00006500 g     F RO_DATA	00000234 __sin
00000e78 g     F RO_DATA	00000050 soft_int_fiqsr
00400178 g     O ZI_DATA	00000008 pos_
000077a4 g     F RO_DATA	0000008c .hidden __floatundisf
00007c80  w    F RO_DATA	00000010 .hidden __aeabi_ldiv0
000071b4 g     F RO_DATA	00000204 .hidden __divdf3
00400034 g     O RW_DATA	00000004 fiq_event
004001d8 g     O ZI_DATA	00000001 leadAp
00400118 g     O ZI_DATA	00000004 sp_x_term
0000777c g     F RO_DATA	00000028 .hidden __aeabi_ui2f
000001c0 g     F RO_DATA	00000000 snooze
0000121c g     F RO_DATA	00000010 spin1_set_timer_tick
00006f48 g     F RO_DATA	0000026c .hidden __muldf3
00400120 g     O ZI_DATA	00000004 counter
00007b38 g     F RO_DATA	00000064 .hidden __cmpsf2
00000b1c g     F RO_DATA	00000028 cc_rx_error_isr
00400148 g     O ZI_DATA	00000004 old_V_x
000077b4 g     F RO_DATA	0000007c .hidden __aeabi_l2f
0000483c g     F RO_DATA	00000040 sendNormMotorCommand
00005168 g     F RO_DATA	00000018 srand
00002fd4 g     F RO_DATA	00000064 eventNode
00007b30 g     F RO_DATA	0000006c .hidden __ltsf2
004001dc g     O ZI_DATA	00000004 thrown
00004158 g     F RO_DATA	00000174 update_V
00007540 g     F RO_DATA	000000a0 .hidden __truncdfsf2
00006ee8 g     F RO_DATA	00000060 .hidden __aeabi_l2d
00003fa4 g     F RO_DATA	00000010 phi_MFM_x
00000a14 g     F RO_DATA	00000040 cc_rx_ready_isr
00002068 g     F RO_DATA	00000038 spin1_malloc
000077a4 g     F RO_DATA	0000008c .hidden __aeabi_ul2f
00007bac g     F RO_DATA	00000014 .hidden __aeabi_cfcmple
00006950 g     F RO_DATA	00000220 .hidden __divsi3
000001c8 g     F RO_DATA	00000000 str_cpy
00007830 g     F RO_DATA	00000198 .hidden __mulsf3
00400004 g     O RW_DATA	00000010 core_map
00400124 g     O ZI_DATA	00000004 F_x
0000487c g     F RO_DATA	00000020 min
0000146c g     F RO_DATA	00000004 report_debug
004000e8 g     O ZI_DATA	00000004 updateCount
000073c8 g     F RO_DATA	00000088 .hidden __nedf2
00001f28 g     F RO_DATA	0000008c spin1_set_mc_table_entry
00000000 g       *ABS*	00000000 RO_TO
00400044 g       *ABS*	00000000 ZI_TO
00002a50 g     F RO_DATA	00000274 io_printf
004001e0 g     O ZI_DATA	00000148 dma_queue
0040012c g     O ZI_DATA	00000004 F_y
004000f4 g     O ZI_DATA	00000004 avg_index
000014f4 g     F RO_DATA	00000028 spin1_stop
00001470 g     F RO_DATA	00000084 report_warns
00400160 g     O ZI_DATA	00000004 coreID
00007b28 g     F RO_DATA	00000074 .hidden __gesf2
0000323c g     F RO_DATA	00000004 load_
000075e0 g     F RO_DATA	0000019c .hidden __aeabi_frsub
004000ec g     O ZI_DATA	00000004 y_command
00007bc0 g     F RO_DATA	00000014 .hidden __aeabi_fcmpeq
00000c0c g     F RO_DATA	000000a8 dma_done_isr
00006860 g     F RO_DATA	000000f0 scalbn
004008cc g     O ZI_DATA	00000004 ticks
00007830 g     F RO_DATA	00000198 .hidden __aeabi_fmul
00007b9c g     F RO_DATA	00000024 .hidden __aeabi_cfrcmple
00400180 g     O ZI_DATA	00000008 speed_
00004a94 g     F RO_DATA	00000044 dot
00004804 g     F RO_DATA	0000001c stopDevices
00001544 g     F RO_DATA	000000d4 spin1_dma_transfer
000020a0 g     F RO_DATA	000000b0 schedule_sysmode
00400024 g     O RW_DATA	00000004 error_x
000027a0 g     F RO_DATA	00000048 io_put_zhex
00000ec8 g     F RO_DATA	00000020 spin1_srand
00000154 g     F RO_DATA	00000000 word_cpy
00400164 g     O ZI_DATA	00000004 chipID
000011dc g     F RO_DATA	00000030 spin1_callback_off
00000e34 g     F RO_DATA	00000044 timer1_fiqsr
0000032c g     F RO_DATA	00000054 spin1_msg_get
00400108 g     O ZI_DATA	00000010 speed_buffer
00007bd4 g     F RO_DATA	00000014 .hidden __aeabi_fcmplt
00003304 g     F RO_DATA	000000f8 compute_speed
00400188 g     O ZI_DATA	00000008 old_pos_
00007480 g     F RO_DATA	00000014 .hidden __aeabi_dcmpeq
00400130 g     O ZI_DATA	00000004 w_V_y
0000353c g     F RO_DATA	0000002c R_y
0000436c g     F RO_DATA	000000f0 noise
0040013c g     O ZI_DATA	00000004 v_x_
00400328 g     O ZI_DATA	00000004 user_arg0
00400064 g     O ZI_DATA	00000040 x_buffer
00400190 g     O ZI_DATA	00000004 psi_
000001a8 g     F RO_DATA	00000000 cpu_int_off
00400138 g     O ZI_DATA	00000004 w_A_psi
000047c4 g     F RO_DATA	00000040 startDevices
00400154 g     O ZI_DATA	00000004 e_y
00001638 g     F RO_DATA	00000064 spin1_flush_rx_packet_queue
00000000 g       *ABS*	00000000 ITCM_BASE
00400140 g     O ZI_DATA	00000004 v_y_
0000060c g     F RO_DATA	0000005c svc_putc
0000777c g     F RO_DATA	00000028 .hidden __floatunsisf
000074e4 g     F RO_DATA	0000005c .hidden __aeabi_d2iz
00007bac g     F RO_DATA	00000014 .hidden __aeabi_cfcmpeq
000051c8 g     F RO_DATA	00000214 __cos
00004538 g     F RO_DATA	0000014c update_A
004000f0 g     O ZI_DATA	00000004 x_command
00002f38 g     F RO_DATA	0000009c update
00007c80  w    F RO_DATA	00000010 .hidden __aeabi_idiv0
0040032c g     O ZI_DATA	00000028 callback
00001fb4 g     F RO_DATA	0000007c spin1_led_control
000001b8 g     F RO_DATA	00000000 cpu_mode_set
000049a4 g     F RO_DATA	00000054 v_add
00004ad8 g     F RO_DATA	00000090 normalize
00003038 g     F RO_DATA	000000d8 compute_pos
00003e2c g     F RO_DATA	00000074 IF
0000746c g     F RO_DATA	00000014 .hidden __aeabi_cdcmpeq
000073b8 g     F RO_DATA	00000098 .hidden __gedf2
000000f4 g       RO_DATA	00000000 null_int
00400144 g     O ZI_DATA	00000004 theta_
000024e4 g     F RO_DATA	0000004c io_put_char
004000f8 g     O ZI_DATA	00000010 pos_buffer
000001dc g     F RO_DATA	00000000 div10
00006e94 g     F RO_DATA	00000040 .hidden __aeabi_f2d
000048bc g     F RO_DATA	00000040 range
0000492c g     F RO_DATA	0000000c vector
00006b98 g     F RO_DATA	000002b0 .hidden __subdf3
00400050 g     O ZI_DATA	00000004 y_pos
00006b70 g     F RO_DATA	00000020 .hidden __aeabi_idivmod
00001ed0 g     F RO_DATA	00000010 spin1_int_disable
00400028 g     O RW_DATA	00000004 error_y
00400058 g     O ZI_DATA	00000004 pos_computed
000075ec g     F RO_DATA	00000190 .hidden __addsf3
00007ea0 g       *ABS*	00000000 RO_LENGTH
00000bd4 g       *ABS*	00000000 ZI_LENGTH
00003110 g     F RO_DATA	00000044 eventMaster
00000668 g     F RO_DATA	000003ac cpu_int_c
00004684 g     F RO_DATA	00000140 initIO
00004c34 g     F RO_DATA	00000004 raise
00000144 g     F RO_DATA	00000000 copy_msg
00400354 g     O ZI_DATA	000000c8 tx_packet_queue



Disassembly of section APLX:

00000000 <aplx_table>:
   0:	00000002 	.word	0x00000002
   4:	00000000 	.word	0x00000000
   8:	00000040 	.word	0x00000040
   c:	00007ea0 	.word	0x00007ea0
  10:	00000002 	.word	0x00000002
  14:	00400000 	.word	0x00400000
  18:	00007ed0 	.word	0x00007ed0
  1c:	00000044 	.word	0x00000044
  20:	00000003 	.word	0x00000003
  24:	00400044 	.word	0x00400044
  28:	00000bd4 	.word	0x00000bd4
  2c:	00000000 	.word	0x00000000
  30:	00000004 	.word	0x00000004
	...

Disassembly of section RO_DATA:

00000000 <reset_vec-0x20>:
       0:	e59ff018 	ldr	pc, [pc, #24]	; 20 <reset_vec>
       4:	e59ff018 	ldr	pc, [pc, #24]	; 24 <undef_vec>
       8:	e59ff018 	ldr	pc, [pc, #24]	; 28 <svc_vec>
       c:	e59ff018 	ldr	pc, [pc, #24]	; 2c <pabt_vec>
      10:	e59ff018 	ldr	pc, [pc, #24]	; 30 <dabt_vec>
      14:	e59ff018 	ldr	pc, [pc, #24]	; 34 <addr_vec>
      18:	e51ffff0 	ldr	pc, [pc, #-4080]	; fffff030 <ROM_IMAGE1+0xb030>
      1c:	e59ff018 	ldr	pc, [pc, #24]	; 3c <fiq_vec>

00000020 <reset_vec>:
      20:	00000040 	.word	0x00000040

00000024 <undef_vec>:
      24:	00000088 	.word	0x00000088

00000028 <svc_vec>:
      28:	000000c0 	.word	0x000000c0

0000002c <pabt_vec>:
      2c:	00000098 	.word	0x00000098

00000030 <dabt_vec>:
      30:	000000a0 	.word	0x000000a0

00000034 <addr_vec>:
      34:	000000a8 	.word	0x000000a8

00000038 <irq_vec>:
      38:	000000b0 	.word	0x000000b0

0000003c <fiq_vec>:
      3c:	000000b8 	.word	0x000000b8

00000040 <reset_han>:
      40:	e321f0d2 	msr	CPSR_c, #210	; 0xd2
      44:	e3a0d841 	mov	sp, #4259840	; 0x410000
      48:	e321f0d1 	msr	CPSR_c, #209	; 0xd1
      4c:	e59fd0dc 	ldr	sp, [pc, #220]	; 130 <MC_QOS12>
      50:	e321f0d3 	msr	CPSR_c, #211	; 0xd3
      54:	e59fd0d8 	ldr	sp, [pc, #216]	; 134 <MC_QOS13>
      58:	e321f0df 	msr	CPSR_c, #223	; 0xdf
      5c:	e59fd0d4 	ldr	sp, [pc, #212]	; 138 <MC_QOS14>
      60:	e28f0018 	add	r0, pc, #24
      64:	e24f104c 	sub	r1, pc, #76	; 0x4c
      68:	e5810000 	str	r0, [r1]
      6c:	eb0000d0 	bl	3b4 <sark_setup>
      70:	eb00086f 	bl	2234 <rts_init>
      74:	eb000c36 	bl	3154 <c_main>
      78:	eb0008fe 	bl	2478 <rts_cleanup>
      7c:	ea00004f 	b	1c0 <snooze>

00000080 <reset_err>:
      80:	e3a00010 	mov	r0, #16
      84:	ea00009c 	b	2fc <sark_error>

00000088 <undef_err>:
      88:	e3a00011 	mov	r0, #17
      8c:	ea00009a 	b	2fc <sark_error>

00000090 <svc_err>:
      90:	e3a00012 	mov	r0, #18
      94:	ea000098 	b	2fc <sark_error>

00000098 <pabt_err>:
      98:	e3a00013 	mov	r0, #19
      9c:	ea000096 	b	2fc <sark_error>

000000a0 <dabt_err>:
      a0:	e3a00014 	mov	r0, #20
      a4:	ea000094 	b	2fc <sark_error>

000000a8 <addr_err>:
      a8:	e3a00015 	mov	r0, #21
      ac:	ea000092 	b	2fc <sark_error>

000000b0 <irq_err>:
      b0:	e3a00016 	mov	r0, #22
      b4:	ea000090 	b	2fc <sark_error>

000000b8 <fiq_err>:
      b8:	e3a00017 	mov	r0, #23
      bc:	ea00008e 	b	2fc <sark_error>

000000c0 <svc_han>:
      c0:	e92d500c 	push	{r2, r3, ip, lr}
      c4:	e14fc000 	mrs	ip, SPSR
      c8:	e92d1002 	push	{r1, ip}
      cc:	e31c0020 	tst	ip, #32
      d0:	151ec002 	ldrne	ip, [lr, #-2]
      d4:	051ec004 	ldreq	ip, [lr, #-4]
      d8:	e21cc0ff 	ands	ip, ip, #255	; 0xff
      dc:	0a000000 	beq	e4 <svc_tube>
      e0:	eaffffea 	b	90 <svc_err>

000000e4 <svc_tube>:
      e4:	eb000148 	bl	60c <svc_putc>

000000e8 <svc_exit>:
      e8:	e8bd1002 	pop	{r1, ip}
      ec:	e16ff00c 	msr	SPSR_fsxc, ip
      f0:	e8fd900c 	ldm	sp!, {r2, r3, ip, pc}^

000000f4 <null_int>:
      f4:	e25ef004 	subs	pc, lr, #4

000000f8 <cpu_int>:
      f8:	e24ee004 	sub	lr, lr, #4
      fc:	e92d4001 	push	{r0, lr}
     100:	e14fe000 	mrs	lr, SPSR
     104:	e92d5000 	push	{ip, lr}
     108:	e321f01f 	msr	CPSR_c, #31
     10c:	e92d400e 	push	{r1, r2, r3, lr}
     110:	eb000154 	bl	668 <cpu_int_c>
     114:	e8bd400e 	pop	{r1, r2, r3, lr}
     118:	e321f092 	msr	CPSR_c, #146	; 0x92
     11c:	e3a0c41f 	mov	ip, #520093696	; 0x1f000000
     120:	e58cc030 	str	ip, [ip, #48]	; 0x30
     124:	e8bd5000 	pop	{ip, lr}
     128:	e16ff00e 	msr	SPSR_fsxc, lr
     12c:	e8fd8001 	ldm	sp!, {r0, pc}^
     130:	0040ff00 	.word	0x0040ff00
     134:	0040fe00 	.word	0x0040fe00
     138:	0040f000 	.word	0x0040f000
     13c:	00000000 	.word	0x00000000

00000140 <bx>:
     140:	e12fff10 	bx	r0

00000144 <copy_msg>:
     144:	e1d120b4 	ldrh	r2, [r1, #4]
     148:	e2800004 	add	r0, r0, #4
     14c:	e2811004 	add	r1, r1, #4
     150:	e2822004 	add	r2, r2, #4

00000154 <word_cpy>:
     154:	e3120003 	tst	r2, #3
     158:	13c22003 	bicne	r2, r2, #3
     15c:	12822004 	addne	r2, r2, #4
     160:	e92d4010 	push	{r4, lr}
     164:	e2522020 	subs	r2, r2, #32
     168:	3a000005 	bcc	184 <wc2>

0000016c <wc1>:
     16c:	e8b15018 	ldm	r1!, {r3, r4, ip, lr}
     170:	e8a05018 	stmia	r0!, {r3, r4, ip, lr}
     174:	e8b15018 	ldm	r1!, {r3, r4, ip, lr}
     178:	e8a05018 	stmia	r0!, {r3, r4, ip, lr}
     17c:	e2522020 	subs	r2, r2, #32
     180:	2afffff9 	bcs	16c <wc1>

00000184 <wc2>:
     184:	e1b0ce02 	lsls	ip, r2, #28
     188:	28b15018 	ldmcs	r1!, {r3, r4, ip, lr}
     18c:	28a05018 	stmiacs	r0!, {r3, r4, ip, lr}
     190:	48b10018 	ldmmi	r1!, {r3, r4}
     194:	48a00018 	stmiami	r0!, {r3, r4}
     198:	e1b0cf02 	lsls	ip, r2, #30
     19c:	24913004 	ldrcs	r3, [r1], #4
     1a0:	24803004 	strcs	r3, [r0], #4
     1a4:	e8bd8010 	pop	{r4, pc}

000001a8 <cpu_int_off>:
     1a8:	e10f0000 	mrs	r0, CPSR
     1ac:	e38010c0 	orr	r1, r0, #192	; 0xc0
     1b0:	e121f001 	msr	CPSR_c, r1
     1b4:	e12fff1e 	bx	lr

000001b8 <cpu_mode_set>:
     1b8:	e121f000 	msr	CPSR_c, r0
     1bc:	e12fff1e 	bx	lr

000001c0 <snooze>:
     1c0:	ee070f90 	mcr	15, 0, r0, cr7, cr0, {4}
     1c4:	eafffffd 	b	1c0 <snooze>

000001c8 <str_cpy>:
     1c8:	e4d12001 	ldrb	r2, [r1], #1
     1cc:	e3520000 	cmp	r2, #0
     1d0:	e4c02001 	strb	r2, [r0], #1
     1d4:	1afffffb 	bne	1c8 <str_cpy>
     1d8:	e12fff1e 	bx	lr

000001dc <div10>:
     1dc:	e241200a 	sub	r2, r1, #10
     1e0:	e0411121 	sub	r1, r1, r1, lsr #2
     1e4:	e0811221 	add	r1, r1, r1, lsr #4
     1e8:	e0811421 	add	r1, r1, r1, lsr #8
     1ec:	e0811821 	add	r1, r1, r1, lsr #16
     1f0:	e1a011a1 	lsr	r1, r1, #3
     1f4:	e0813101 	add	r3, r1, r1, lsl #2
     1f8:	e0522083 	subs	r2, r2, r3, lsl #1
     1fc:	52811001 	addpl	r1, r1, #1
     200:	4282200a 	addmi	r2, r2, #10
     204:	e8800006 	stm	r0, {r1, r2}
     208:	e12fff1e 	bx	lr

0000020c <svc_put_char>:
     20c:	ef000000 	svc	0x00000000
     210:	e12fff1e 	bx	lr

00000214 <schedule>:
     214:	e92d5000 	push	{ip, lr}
     218:	e10fc000 	mrs	ip, CPSR
     21c:	e3cce01f 	bic	lr, ip, #31
     220:	e38ee01f 	orr	lr, lr, #31
     224:	e121f00e 	msr	CPSR_c, lr
     228:	e92d5000 	push	{ip, lr}
     22c:	eb00079b 	bl	20a0 <schedule_sysmode>
     230:	e8bd5000 	pop	{ip, lr}
     234:	e121f00c 	msr	CPSR_c, ip
     238:	e8bd5000 	pop	{ip, lr}
     23c:	e12fff1e 	bx	lr

00000240 <proc_aplx>:
     240:	b5f0      	push	{r4, r5, r6, r7, lr}
     242:	4917      	ldr	r1, [pc, #92]	; (2a0 <aplx_exec+0xa>)
     244:	a206      	add	r2, pc, #24	; (adr r2, 260 <aplx_loader>)
     246:	2304      	movs	r3, #4

00000248 <ap0>:
     248:	caf0      	ldmia	r2!, {r4, r5, r6, r7}
     24a:	c1f0      	stmia	r1!, {r4, r5, r6, r7}
     24c:	3b01      	subs	r3, #1
     24e:	d1fb      	bne.n	248 <ap0>
     250:	393f      	subs	r1, #63	; 0x3f
     252:	4708      	bx	r1
	...

00000260 <aplx_loader>:
     260:	c81e      	ldmia	r0!, {r1, r2, r3, r4}
     262:	2901      	cmp	r1, #1
     264:	d008      	beq.n	278 <aplx_copy>
     266:	2902      	cmp	r1, #2
     268:	d004      	beq.n	274 <aplx_rcopy>
     26a:	2903      	cmp	r1, #3
     26c:	d00b      	beq.n	286 <aplx_fill>
     26e:	2904      	cmp	r1, #4
     270:	d011      	beq.n	296 <aplx_exec>
     272:	bdf0      	pop	{r4, r5, r6, r7, pc}

00000274 <aplx_rcopy>:
     274:	181b      	adds	r3, r3, r0
     276:	3b10      	subs	r3, #16

00000278 <aplx_copy>:
     278:	cbe2      	ldmia	r3!, {r1, r5, r6, r7}
     27a:	c2e2      	stmia	r2!, {r1, r5, r6, r7}
     27c:	cbe2      	ldmia	r3!, {r1, r5, r6, r7}
     27e:	c2e2      	stmia	r2!, {r1, r5, r6, r7}
     280:	3c20      	subs	r4, #32
     282:	d8f9      	bhi.n	278 <aplx_copy>
     284:	e7ec      	b.n	260 <aplx_loader>

00000286 <aplx_fill>:
     286:	1c25      	adds	r5, r4, #0
     288:	1c26      	adds	r6, r4, #0
     28a:	1c27      	adds	r7, r4, #0

0000028c <ap1>:
     28c:	c2f0      	stmia	r2!, {r4, r5, r6, r7}
     28e:	c2f0      	stmia	r2!, {r4, r5, r6, r7}
     290:	3b20      	subs	r3, #32
     292:	d8fb      	bhi.n	28c <ap1>
     294:	e7e4      	b.n	260 <aplx_loader>

00000296 <aplx_exec>:
     296:	4790      	blx	r2
     298:	e7e2      	b.n	260 <aplx_loader>
     29a:	0000      	movs	r0, r0
     29c:	0000      	movs	r0, r0
     29e:	0000      	movs	r0, r0
     2a0:	00007fc0 	.word	0x00007fc0
	...

000002b0 <shm_msg_free>:
     2b0:	e92d4010 	push	{r4, lr}
     2b4:	e1a04000 	mov	r4, r0
     2b8:	ebffffba 	bl	1a8 <cpu_int_off>
     2bc:	e3a024f2 	mov	r2, #-234881024	; 0xf2000000
     2c0:	e5923100 	ldr	r3, [r2, #256]	; 0x100
     2c4:	e3530000 	cmp	r3, #0
     2c8:	bafffffc 	blt	2c0 <shm_msg_free+0x10>
     2cc:	e59f3024 	ldr	r3, [pc, #36]	; 2f8 <shm_msg_free+0x48>
     2d0:	e5932f30 	ldr	r2, [r3, #3888]	; 0xf30
     2d4:	e5842000 	str	r2, [r4]
     2d8:	e5834f30 	str	r4, [r3, #3888]	; 0xf30
     2dc:	e5932f68 	ldr	r2, [r3, #3944]	; 0xf68
     2e0:	e2422001 	sub	r2, r2, #1
     2e4:	e5832f68 	str	r2, [r3, #3944]	; 0xf68
     2e8:	e3a034f2 	mov	r3, #-234881024	; 0xf2000000
     2ec:	e5933180 	ldr	r3, [r3, #384]	; 0x180
     2f0:	ebffffb0 	bl	1b8 <cpu_mode_set>
     2f4:	e8bd8010 	pop	{r4, pc}
     2f8:	f5007000 	.word	0xf5007000

000002fc <sark_error>:
     2fc:	e92d4008 	push	{r3, lr}
     300:	e59f301c 	ldr	r3, [pc, #28]	; 324 <RTR_DGC9>
     304:	e59f201c 	ldr	r2, [pc, #28]	; 328 <RTR_DGC10>
     308:	e5922000 	ldr	r2, [r2]
     30c:	e0832002 	add	r2, r3, r2
     310:	e5c20f40 	strb	r0, [r2, #3904]	; 0xf40
     314:	e3a02008 	mov	r2, #8
     318:	e5c32f2b 	strb	r2, [r3, #3883]	; 0xf2b
     31c:	ebffffa7 	bl	1c0 <snooze>
     320:	e8bd8008 	pop	{r3, pc}
     324:	f5007000 	.word	0xf5007000
     328:	004001d4 	.word	0x004001d4

0000032c <spin1_msg_get>:
     32c:	e92d4010 	push	{r4, lr}
     330:	ebffff9c 	bl	1a8 <cpu_int_off>
     334:	e59f3040 	ldr	r3, [pc, #64]	; 37c <RTR_DGC15+0x40>
     338:	e5934000 	ldr	r4, [r3]
     33c:	e3540000 	cmp	r4, #0
     340:	0a00000a 	beq	370 <RTR_DGC15+0x34>
     344:	e5942000 	ldr	r2, [r4]
     348:	e5832000 	str	r2, [r3]
     34c:	e3a02000 	mov	r2, #0
     350:	e5842000 	str	r2, [r4]
     354:	e5932004 	ldr	r2, [r3, #4]
     358:	e2822001 	add	r2, r2, #1
     35c:	e5832004 	str	r2, [r3, #4]
     360:	e5933008 	ldr	r3, [r3, #8]
     364:	e1520003 	cmp	r2, r3
     368:	859f300c 	ldrhi	r3, [pc, #12]	; 37c <RTR_DGC15+0x40>
     36c:	85832008 	strhi	r2, [r3, #8]
     370:	ebffff90 	bl	1b8 <cpu_mode_set>
     374:	e1a00004 	mov	r0, r4
     378:	e8bd8010 	pop	{r4, pc}
     37c:	0040041c 	.word	0x0040041c

00000380 <spin1_msg_free>:
     380:	e92d4010 	push	{r4, lr}
     384:	e1a04000 	mov	r4, r0
     388:	ebffff86 	bl	1a8 <cpu_int_off>
     38c:	e59f301c 	ldr	r3, [pc, #28]	; 3b0 <spin1_msg_free+0x30>
     390:	e5932000 	ldr	r2, [r3]
     394:	e5842000 	str	r2, [r4]
     398:	e5834000 	str	r4, [r3]
     39c:	e5932004 	ldr	r2, [r3, #4]
     3a0:	e2422001 	sub	r2, r2, #1
     3a4:	e5832004 	str	r2, [r3, #4]
     3a8:	ebffff82 	bl	1b8 <cpu_mode_set>
     3ac:	e8bd8010 	pop	{r4, pc}
     3b0:	0040041c 	.word	0x0040041c

000003b4 <sark_setup>:
     3b4:	e92d40f8 	push	{r3, r4, r5, r6, r7, lr}
     3b8:	e3a03203 	mov	r3, #805306368	; 0x30000000
     3bc:	e5933014 	ldr	r3, [r3, #20]
     3c0:	e1a03c23 	lsr	r3, r3, #24
     3c4:	e59f20c8 	ldr	r2, [pc, #200]	; 494 <MC_TABLE_SIZE+0x94>
     3c8:	e5823000 	str	r3, [r2]
     3cc:	e59f70c4 	ldr	r7, [pc, #196]	; 498 <MC_TABLE_SIZE+0x98>
     3d0:	e59f60c4 	ldr	r6, [pc, #196]	; 49c <MC_TABLE_SIZE+0x9c>
     3d4:	e0863003 	add	r3, r6, r3
     3d8:	e5d33f94 	ldrb	r3, [r3, #3988]	; 0xf94
     3dc:	e5873000 	str	r3, [r7]
     3e0:	e59f40b8 	ldr	r4, [pc, #184]	; 4a0 <MC_TABLE_SIZE+0xa0>
     3e4:	e284200c 	add	r2, r4, #12
     3e8:	e1a03004 	mov	r3, r4
     3ec:	e4832130 	str	r2, [r3], #304	; 0x130
     3f0:	e584300c 	str	r3, [r4, #12]
     3f4:	e2843f95 	add	r3, r4, #596	; 0x254
     3f8:	e5843130 	str	r3, [r4, #304]	; 0x130
     3fc:	e2843fde 	add	r3, r4, #888	; 0x378
     400:	e5843254 	str	r3, [r4, #596]	; 0x254
     404:	e3a05000 	mov	r5, #0
     408:	e5845378 	str	r5, [r4, #888]	; 0x378
     40c:	ebffffc6 	bl	32c <spin1_msg_get>
     410:	e584049c 	str	r0, [r4, #1180]	; 0x49c
     414:	e3a03007 	mov	r3, #7
     418:	e5c03008 	strb	r3, [r0, #8]
     41c:	e5c05009 	strb	r5, [r0, #9]
     420:	e3e02000 	mvn	r2, #0
     424:	e5c0200a 	strb	r2, [r0, #10]
     428:	e59f3074 	ldr	r3, [pc, #116]	; 4a4 <MC_TABLE_SIZE+0xa4>
     42c:	e19630b3 	ldrh	r3, [r6, r3]
     430:	e1c030bc 	strh	r3, [r0, #12]
     434:	e5973000 	ldr	r3, [r7]
     438:	e5c0300b 	strb	r3, [r0, #11]
     43c:	e3a03c0f 	mov	r3, #3840	; 0xf00
     440:	e19630b3 	ldrh	r3, [r6, r3]
     444:	e1c030be 	strh	r3, [r0, #14]
     448:	e3a03040 	mov	r3, #64	; 0x40
     44c:	e1c031b0 	strh	r3, [r0, #16]
     450:	e3a0300c 	mov	r3, #12
     454:	e1c030b4 	strh	r3, [r0, #4]
     458:	e3a0341f 	mov	r3, #520093696	; 0x1f000000
     45c:	e5833030 	str	r3, [r3, #48]	; 0x30
     460:	e583500c 	str	r5, [r3, #12]
     464:	e5832014 	str	r2, [r3, #20]
     468:	e59f2038 	ldr	r2, [pc, #56]	; 4a8 <MC_TABLE_SIZE+0xa8>
     46c:	e5832034 	str	r2, [r3, #52]	; 0x34
     470:	e59f2034 	ldr	r2, [pc, #52]	; 4ac <MC_TABLE_SIZE+0xac>
     474:	e5832100 	str	r2, [r3, #256]	; 0x100
     478:	e3a02032 	mov	r2, #50	; 0x32
     47c:	e5832200 	str	r2, [r3, #512]	; 0x200
     480:	e3a02701 	mov	r2, #262144	; 0x40000
     484:	e5832010 	str	r2, [r3, #16]
     488:	e3a0001f 	mov	r0, #31
     48c:	ebffff49 	bl	1b8 <cpu_mode_set>
     490:	e8bd80f8 	pop	{r3, r4, r5, r6, r7, pc}
     494:	004001cc 	.word	0x004001cc
     498:	004001d4 	.word	0x004001d4
     49c:	f5007000 	.word	0xf5007000
     4a0:	0040041c 	.word	0x0040041c
     4a4:	00000f04 	.word	0x00000f04
     4a8:	000000f4 	.word	0x000000f4
     4ac:	000000f8 	.word	0x000000f8

000004b0 <spin1_send_sdp_msg>:
     4b0:	e92d43f8 	push	{r3, r4, r5, r6, r7, r8, r9, lr}
     4b4:	e1a09000 	mov	r9, r0
     4b8:	e1a05001 	mov	r5, r1
     4bc:	e59f313c 	ldr	r3, [pc, #316]	; 600 <ETH_TX_SIZE>
     4c0:	e5938000 	ldr	r8, [r3]
     4c4:	e59f7138 	ldr	r7, [pc, #312]	; 604 <ETH_TX_SIZE+0x4>
     4c8:	e0874188 	add	r4, r7, r8, lsl #3
     4cc:	e5d43001 	ldrb	r3, [r4, #1]
     4d0:	e35300ff 	cmp	r3, #255	; 0xff
     4d4:	0a000034 	beq	5ac <spin1_send_sdp_msg+0xfc>
     4d8:	ebffff32 	bl	1a8 <cpu_int_off>
     4dc:	e3a024f2 	mov	r2, #-234881024	; 0xf2000000
     4e0:	e5923100 	ldr	r3, [r2, #256]	; 0x100
     4e4:	e3530000 	cmp	r3, #0
     4e8:	bafffffc 	blt	4e0 <spin1_send_sdp_msg+0x30>
     4ec:	e59f3114 	ldr	r3, [pc, #276]	; 608 <ETH_TX_SIZE+0x8>
     4f0:	e5936f30 	ldr	r6, [r3, #3888]	; 0xf30
     4f4:	e3560000 	cmp	r6, #0
     4f8:	0a00003b 	beq	5ec <spin1_send_sdp_msg+0x13c>
     4fc:	e5962000 	ldr	r2, [r6]
     500:	e5832f30 	str	r2, [r3, #3888]	; 0xf30
     504:	e3a02000 	mov	r2, #0
     508:	e5862000 	str	r2, [r6]
     50c:	e5932f68 	ldr	r2, [r3, #3944]	; 0xf68
     510:	e2822001 	add	r2, r2, #1
     514:	e5832f68 	str	r2, [r3, #3944]	; 0xf68
     518:	e5933f6c 	ldr	r3, [r3, #3948]	; 0xf6c
     51c:	e1520003 	cmp	r2, r3
     520:	859f30e0 	ldrhi	r3, [pc, #224]	; 608 <ETH_TX_SIZE+0x8>
     524:	85832f6c 	strhi	r2, [r3, #3948]	; 0xf6c
     528:	ea000023 	b	5bc <spin1_send_sdp_msg+0x10c>
     52c:	e5923104 	ldr	r3, [r2, #260]	; 0x104
     530:	e3530000 	cmp	r3, #0
     534:	bafffffc 	blt	52c <spin1_send_sdp_msg+0x7c>
     538:	e59f90c8 	ldr	r9, [pc, #200]	; 608 <ETH_TX_SIZE+0x8>
     53c:	e59f30bc 	ldr	r3, [pc, #188]	; 600 <ETH_TX_SIZE>
     540:	e5933000 	ldr	r3, [r3]
     544:	e5992f60 	ldr	r2, [r9, #3936]	; 0xf60
     548:	e3a01001 	mov	r1, #1
     54c:	e1823311 	orr	r3, r2, r1, lsl r3
     550:	e5893f60 	str	r3, [r9, #3936]	; 0xf60
     554:	e3a034f2 	mov	r3, #-234881024	; 0xf2000000
     558:	e5933184 	ldr	r3, [r3, #388]	; 0x184
     55c:	ebffff15 	bl	1b8 <cpu_mode_set>
     560:	e5991f10 	ldr	r1, [r9, #3856]	; 0xf10
     564:	e1a02009 	mov	r2, r9
     568:	ea000003 	b	57c <spin1_send_sdp_msg+0xcc>
     56c:	e5923f10 	ldr	r3, [r2, #3856]	; 0xf10
     570:	e0613003 	rsb	r3, r1, r3
     574:	e1530005 	cmp	r3, r5
     578:	8a000002 	bhi	588 <spin1_send_sdp_msg+0xd8>
     57c:	e5d43000 	ldrb	r3, [r4]
     580:	e3530000 	cmp	r3, #0
     584:	1afffff8 	bne	56c <spin1_send_sdp_msg+0xbc>
     588:	e7d73188 	ldrb	r3, [r7, r8, lsl #3]
     58c:	e3530000 	cmp	r3, #0
     590:	0a000007 	beq	5b4 <spin1_send_sdp_msg+0x104>
     594:	e1a00006 	mov	r0, r6
     598:	ebffff44 	bl	2b0 <shm_msg_free>
     59c:	e3e03000 	mvn	r3, #0
     5a0:	e5c43001 	strb	r3, [r4, #1]
     5a4:	e3a00000 	mov	r0, #0
     5a8:	e8bd83f8 	pop	{r3, r4, r5, r6, r7, r8, r9, pc}
     5ac:	e3a00000 	mov	r0, #0
     5b0:	e8bd83f8 	pop	{r3, r4, r5, r6, r7, r8, r9, pc}
     5b4:	e3a00001 	mov	r0, #1
     5b8:	e8bd83f8 	pop	{r3, r4, r5, r6, r7, r8, r9, pc}
     5bc:	e3a034f2 	mov	r3, #-234881024	; 0xf2000000
     5c0:	e5933180 	ldr	r3, [r3, #384]	; 0x180
     5c4:	ebfffefb 	bl	1b8 <cpu_mode_set>
     5c8:	e1a00006 	mov	r0, r6
     5cc:	e1a01009 	mov	r1, r9
     5d0:	ebfffedb 	bl	144 <copy_msg>
     5d4:	e5846004 	str	r6, [r4, #4]
     5d8:	e3a03001 	mov	r3, #1
     5dc:	e7c73188 	strb	r3, [r7, r8, lsl #3]
     5e0:	ebfffef0 	bl	1a8 <cpu_int_off>
     5e4:	e3a024f2 	mov	r2, #-234881024	; 0xf2000000
     5e8:	eaffffcf 	b	52c <spin1_send_sdp_msg+0x7c>
     5ec:	e3a034f2 	mov	r3, #-234881024	; 0xf2000000
     5f0:	e5933180 	ldr	r3, [r3, #384]	; 0x180
     5f4:	ebfffeef 	bl	1b8 <cpu_mode_set>
     5f8:	e3a00000 	mov	r0, #0
     5fc:	e8bd83f8 	pop	{r3, r4, r5, r6, r7, r8, r9, pc}
     600:	004001d4 	.word	0x004001d4
     604:	f5007d40 	.word	0xf5007d40
     608:	f5007000 	.word	0xf5007000

0000060c <svc_putc>:
     60c:	e92d4008 	push	{r3, lr}
     610:	e59f304c 	ldr	r3, [pc, #76]	; 664 <svc_putc+0x58>
     614:	e593349c 	ldr	r3, [r3, #1180]	; 0x49c
     618:	e1d320b4 	ldrh	r2, [r3, #4]
     61c:	e2821001 	add	r1, r2, #1
     620:	e1c310b4 	strh	r1, [r3, #4]
     624:	e0832002 	add	r2, r3, r2
     628:	e5c20008 	strb	r0, [r2, #8]
     62c:	e3500000 	cmp	r0, #0
     630:	1350000a 	cmpne	r0, #10
     634:	0a000002 	beq	644 <svc_putc+0x38>
     638:	e1d320b4 	ldrh	r2, [r3, #4]
     63c:	e3520f43 	cmp	r2, #268	; 0x10c
     640:	18bd8008 	popne	{r3, pc}
     644:	e1a00003 	mov	r0, r3
     648:	e3a01ffa 	mov	r1, #1000	; 0x3e8
     64c:	ebffff97 	bl	4b0 <spin1_send_sdp_msg>
     650:	e59f300c 	ldr	r3, [pc, #12]	; 664 <svc_putc+0x58>
     654:	e593349c 	ldr	r3, [r3, #1180]	; 0x49c
     658:	e3a0200c 	mov	r2, #12
     65c:	e1c320b4 	strh	r2, [r3, #4]
     660:	e8bd8008 	pop	{r3, pc}
     664:	0040041c 	.word	0x0040041c

00000668 <cpu_int_c>:
     668:	e92d4070 	push	{r4, r5, r6, lr}
     66c:	e59f3380 	ldr	r3, [pc, #896]	; 9f4 <cpu_int_c+0x38c>
     670:	e5933000 	ldr	r3, [r3]
     674:	e3a02001 	mov	r2, #1
     678:	e1a02312 	lsl	r2, r2, r3
     67c:	e282245e 	add	r2, r2, #1577058304	; 0x5e000000
     680:	e2822503 	add	r2, r2, #12582912	; 0xc00000
     684:	e3a034f2 	mov	r3, #-234881024	; 0xf2000000
     688:	e583200c 	str	r2, [r3, #12]
     68c:	e59f3364 	ldr	r3, [pc, #868]	; 9f8 <cpu_int_c+0x390>
     690:	e593c000 	ldr	ip, [r3]
     694:	e59f2360 	ldr	r2, [pc, #864]	; 9fc <cpu_int_c+0x394>
     698:	e082418c 	add	r4, r2, ip, lsl #3
     69c:	e7d2318c 	ldrb	r3, [r2, ip, lsl #3]
     6a0:	e20330ff 	and	r3, r3, #255	; 0xff
     6a4:	e5945004 	ldr	r5, [r4, #4]
     6a8:	e3530001 	cmp	r3, #1
     6ac:	1a0000c3 	bne	9c0 <cpu_int_c+0x358>
     6b0:	e3a03000 	mov	r3, #0
     6b4:	e7c2318c 	strb	r3, [r2, ip, lsl #3]
     6b8:	ebffff1b 	bl	32c <spin1_msg_get>
     6bc:	e2504000 	subs	r4, r0, #0
     6c0:	0a0000bb 	beq	9b4 <cpu_int_c+0x34c>
     6c4:	e1a00004 	mov	r0, r4
     6c8:	e1a01005 	mov	r1, r5
     6cc:	ebfffe9c 	bl	144 <copy_msg>
     6d0:	e1a00005 	mov	r0, r5
     6d4:	ebfffef5 	bl	2b0 <shm_msg_free>
     6d8:	e5d4500a 	ldrb	r5, [r4, #10]
     6dc:	e31500e0 	tst	r5, #224	; 0xe0
     6e0:	1a0000a3 	bne	974 <cpu_int_c+0x30c>
     6e4:	e1d430b4 	ldrh	r3, [r4, #4]
     6e8:	e3530017 	cmp	r3, #23
     6ec:	93a03081 	movls	r3, #129	; 0x81
     6f0:	91c431b0 	strhls	r3, [r4, #16]
     6f4:	93a0300c 	movls	r3, #12
     6f8:	9a00008e 	bls	938 <cpu_int_c+0x2d0>
     6fc:	e1d431b0 	ldrh	r3, [r4, #16]
     700:	e3a02080 	mov	r2, #128	; 0x80
     704:	e1c421b0 	strh	r2, [r4, #16]
     708:	e3530004 	cmp	r3, #4
     70c:	979ff103 	ldrls	pc, [pc, r3, lsl #2]
     710:	ea000079 	b	8fc <cpu_int_c+0x294>
     714:	00000728 	.word	0x00000728
     718:	00000774 	.word	0x00000774
     71c:	00000784 	.word	0x00000784
     720:	00000838 	.word	0x00000838
     724:	000008e8 	.word	0x000008e8
     728:	e59f32c4 	ldr	r3, [pc, #708]	; 9f4 <cpu_int_c+0x38c>
     72c:	e5932000 	ldr	r2, [r3]
     730:	e59f32c0 	ldr	r3, [pc, #704]	; 9f8 <cpu_int_c+0x390>
     734:	e5933000 	ldr	r3, [r3]
     738:	e0833402 	add	r3, r3, r2, lsl #8
     73c:	e3a02c0f 	mov	r2, #3840	; 0xf00
     740:	e59f12b8 	ldr	r1, [pc, #696]	; a00 <cpu_int_c+0x398>
     744:	e19120b2 	ldrh	r2, [r1, r2]
     748:	e0833802 	add	r3, r3, r2, lsl #16
     74c:	e5843014 	str	r3, [r4, #20]
     750:	e59f32ac 	ldr	r3, [pc, #684]	; a04 <cpu_int_c+0x39c>
     754:	e5843018 	str	r3, [r4, #24]
     758:	e59f32a8 	ldr	r3, [pc, #680]	; a08 <cpu_int_c+0x3a0>
     75c:	e584301c 	str	r3, [r4, #28]
     760:	e2840020 	add	r0, r4, #32
     764:	e59f12a0 	ldr	r1, [pc, #672]	; a0c <cpu_int_c+0x3a4>
     768:	ebfffe96 	bl	1c8 <str_cpy>
     76c:	e3a03027 	mov	r3, #39	; 0x27
     770:	ea000070 	b	938 <cpu_int_c+0x2d0>
     774:	e5940014 	ldr	r0, [r4, #20]
     778:	ebfffe70 	bl	140 <bx>
     77c:	e3a0300c 	mov	r3, #12
     780:	ea00006c 	b	938 <cpu_int_c+0x2d0>
     784:	e5942018 	ldr	r2, [r4, #24]
     788:	e594001c 	ldr	r0, [r4, #28]
     78c:	e3520c01 	cmp	r2, #256	; 0x100
     790:	93500002 	cmpls	r0, #2
     794:	83a03084 	movhi	r3, #132	; 0x84
     798:	81c431b0 	strhhi	r3, [r4, #16]
     79c:	83a02000 	movhi	r2, #0
     7a0:	8a000022 	bhi	830 <cpu_int_c+0x1c8>
     7a4:	e1a03004 	mov	r3, r4
     7a8:	e5b31014 	ldr	r1, [r3, #20]!
     7ac:	e3500000 	cmp	r0, #0
     7b0:	1a000009 	bne	7dc <cpu_int_c+0x174>
     7b4:	e3520000 	cmp	r2, #0
     7b8:	0a00001c 	beq	830 <cpu_int_c+0x1c8>
     7bc:	e1a0e003 	mov	lr, r3
     7c0:	e083c002 	add	ip, r3, r2
     7c4:	e06e0003 	rsb	r0, lr, r3
     7c8:	e7d00001 	ldrb	r0, [r0, r1]
     7cc:	e4c30001 	strb	r0, [r3], #1
     7d0:	e153000c 	cmp	r3, ip
     7d4:	1afffffa 	bne	7c4 <cpu_int_c+0x15c>
     7d8:	ea000014 	b	830 <cpu_int_c+0x1c8>
     7dc:	e3500001 	cmp	r0, #1
     7e0:	1a000009 	bne	80c <cpu_int_c+0x1a4>
     7e4:	e1b000a2 	lsrs	r0, r2, #1
     7e8:	0a000010 	beq	830 <cpu_int_c+0x1c8>
     7ec:	e1a0c003 	mov	ip, r3
     7f0:	e0830080 	add	r0, r3, r0, lsl #1
     7f4:	e06ce003 	rsb	lr, ip, r3
     7f8:	e19ee0b1 	ldrh	lr, [lr, r1]
     7fc:	e0c3e0b2 	strh	lr, [r3], #2
     800:	e1530000 	cmp	r3, r0
     804:	1afffffa 	bne	7f4 <cpu_int_c+0x18c>
     808:	ea000008 	b	830 <cpu_int_c+0x1c8>
     80c:	e1b0c122 	lsrs	ip, r2, #2
     810:	0a000006 	beq	830 <cpu_int_c+0x1c8>
     814:	e1a0e003 	mov	lr, r3
     818:	e083c10c 	add	ip, r3, ip, lsl #2
     81c:	e06e0003 	rsb	r0, lr, r3
     820:	e7900001 	ldr	r0, [r0, r1]
     824:	e4830004 	str	r0, [r3], #4
     828:	e153000c 	cmp	r3, ip
     82c:	1afffffa 	bne	81c <cpu_int_c+0x1b4>
     830:	e282300c 	add	r3, r2, #12
     834:	ea00003f 	b	938 <cpu_int_c+0x2d0>
     838:	e5943018 	ldr	r3, [r4, #24]
     83c:	e594001c 	ldr	r0, [r4, #28]
     840:	e3530c01 	cmp	r3, #256	; 0x100
     844:	93500002 	cmpls	r0, #2
     848:	83a03084 	movhi	r3, #132	; 0x84
     84c:	81c431b0 	strhhi	r3, [r4, #16]
     850:	83a0300c 	movhi	r3, #12
     854:	8a000037 	bhi	938 <cpu_int_c+0x2d0>
     858:	e5942014 	ldr	r2, [r4, #20]
     85c:	e2841020 	add	r1, r4, #32
     860:	e3500000 	cmp	r0, #0
     864:	1a000009 	bne	890 <cpu_int_c+0x228>
     868:	e3530000 	cmp	r3, #0
     86c:	0a000026 	beq	90c <cpu_int_c+0x2a4>
     870:	e0820003 	add	r0, r2, r3
     874:	e1a03002 	mov	r3, r2
     878:	e0622001 	rsb	r2, r2, r1
     87c:	e7d21003 	ldrb	r1, [r2, r3]
     880:	e4c31001 	strb	r1, [r3], #1
     884:	e1530000 	cmp	r3, r0
     888:	1afffffb 	bne	87c <cpu_int_c+0x214>
     88c:	ea000020 	b	914 <cpu_int_c+0x2ac>
     890:	e3500001 	cmp	r0, #1
     894:	1a000009 	bne	8c0 <cpu_int_c+0x258>
     898:	e1b030a3 	lsrs	r3, r3, #1
     89c:	0a00001e 	beq	91c <cpu_int_c+0x2b4>
     8a0:	e0820083 	add	r0, r2, r3, lsl #1
     8a4:	e1a03002 	mov	r3, r2
     8a8:	e0622001 	rsb	r2, r2, r1
     8ac:	e19210b3 	ldrh	r1, [r2, r3]
     8b0:	e0c310b2 	strh	r1, [r3], #2
     8b4:	e1530000 	cmp	r3, r0
     8b8:	1afffffb 	bne	8ac <cpu_int_c+0x244>
     8bc:	ea000018 	b	924 <cpu_int_c+0x2bc>
     8c0:	e1b03123 	lsrs	r3, r3, #2
     8c4:	0a000018 	beq	92c <cpu_int_c+0x2c4>
     8c8:	e0820103 	add	r0, r2, r3, lsl #2
     8cc:	e1a03002 	mov	r3, r2
     8d0:	e0622001 	rsb	r2, r2, r1
     8d4:	e7921003 	ldr	r1, [r2, r3]
     8d8:	e4831004 	str	r1, [r3], #4
     8dc:	e1530000 	cmp	r3, r0
     8e0:	1afffffb 	bne	8d4 <cpu_int_c+0x26c>
     8e4:	ea000012 	b	934 <cpu_int_c+0x2cc>
     8e8:	e5940014 	ldr	r0, [r4, #20]
     8ec:	e3a01000 	mov	r1, #0
     8f0:	eb001ce6 	bl	7c90 <__proc_aplx_from_arm>
     8f4:	e3a0300c 	mov	r3, #12
     8f8:	ea00000e 	b	938 <cpu_int_c+0x2d0>
     8fc:	e3a03083 	mov	r3, #131	; 0x83
     900:	e1c431b0 	strh	r3, [r4, #16]
     904:	e3a0300c 	mov	r3, #12
     908:	ea00000a 	b	938 <cpu_int_c+0x2d0>
     90c:	e3a0300c 	mov	r3, #12
     910:	ea000008 	b	938 <cpu_int_c+0x2d0>
     914:	e3a0300c 	mov	r3, #12
     918:	ea000006 	b	938 <cpu_int_c+0x2d0>
     91c:	e3a0300c 	mov	r3, #12
     920:	ea000004 	b	938 <cpu_int_c+0x2d0>
     924:	e3a0300c 	mov	r3, #12
     928:	ea000002 	b	938 <cpu_int_c+0x2d0>
     92c:	e3a0300c 	mov	r3, #12
     930:	ea000000 	b	938 <cpu_int_c+0x2d0>
     934:	e3a0300c 	mov	r3, #12
     938:	e1c430b4 	strh	r3, [r4, #4]
     93c:	e5d4200a 	ldrb	r2, [r4, #10]
     940:	e1d430bc 	ldrh	r3, [r4, #12]
     944:	e5d4100b 	ldrb	r1, [r4, #11]
     948:	e5c4100a 	strb	r1, [r4, #10]
     94c:	e5c4200b 	strb	r2, [r4, #11]
     950:	e1d420be 	ldrh	r2, [r4, #14]
     954:	e1c420bc 	strh	r2, [r4, #12]
     958:	e1c430be 	strh	r3, [r4, #14]
     95c:	e1a00004 	mov	r0, r4
     960:	e3a01ffa 	mov	r1, #1000	; 0x3e8
     964:	ebfffed1 	bl	4b0 <spin1_send_sdp_msg>
     968:	e1a00004 	mov	r0, r4
     96c:	ebfffe83 	bl	380 <spin1_msg_free>
     970:	e8bd8070 	pop	{r4, r5, r6, pc}
     974:	e59f3094 	ldr	r3, [pc, #148]	; a10 <cpu_int_c+0x3a8>
     978:	e5933018 	ldr	r3, [r3, #24]
     97c:	e3530000 	cmp	r3, #0
     980:	0a000008 	beq	9a8 <cpu_int_c+0x340>
     984:	ebfffe07 	bl	1a8 <cpu_int_off>
     988:	e1a06000 	mov	r6, r0
     98c:	e3a00003 	mov	r0, #3
     990:	e1a01004 	mov	r1, r4
     994:	e1a022a5 	lsr	r2, r5, #5
     998:	eb0005c0 	bl	20a0 <schedule_sysmode>
     99c:	e1a00006 	mov	r0, r6
     9a0:	ebfffe04 	bl	1b8 <cpu_mode_set>
     9a4:	e8bd8070 	pop	{r4, r5, r6, pc}
     9a8:	e1a00004 	mov	r0, r4
     9ac:	ebfffe73 	bl	380 <spin1_msg_free>
     9b0:	e8bd8070 	pop	{r4, r5, r6, pc}
     9b4:	e1a00005 	mov	r0, r5
     9b8:	ebfffe3c 	bl	2b0 <shm_msg_free>
     9bc:	e8bd8070 	pop	{r4, r5, r6, pc}
     9c0:	e3530002 	cmp	r3, #2
     9c4:	1a000004 	bne	9dc <cpu_int_c+0x374>
     9c8:	e3a01000 	mov	r1, #0
     9cc:	e7c2118c 	strb	r1, [r2, ip, lsl #3]
     9d0:	e1a00005 	mov	r0, r5
     9d4:	eb001cad 	bl	7c90 <__proc_aplx_from_arm>
     9d8:	e8bd8070 	pop	{r4, r5, r6, pc}
     9dc:	e3530003 	cmp	r3, #3
     9e0:	02855001 	addeq	r5, r5, #1
     9e4:	05845004 	streq	r5, [r4, #4]
     9e8:	03a03000 	moveq	r3, #0
     9ec:	07c2318c 	strbeq	r3, [r2, ip, lsl #3]
     9f0:	e8bd8070 	pop	{r4, r5, r6, pc}
     9f4:	004001cc 	.word	0x004001cc
     9f8:	004001d4 	.word	0x004001d4
     9fc:	f5007de0 	.word	0xf5007de0
     a00:	f5007000 	.word	0xf5007000
     a04:	005c0100 	.word	0x005c0100
     a08:	534c0f91 	.word	0x534c0f91
     a0c:	00002cc4 	.word	0x00002cc4
     a10:	0040032c 	.word	0x0040032c

00000a14 <cc_rx_ready_isr>:
     a14:	e24ee004 	sub	lr, lr, #4
     a18:	e92d500f 	push	{r0, r1, r2, r3, ip, lr}
     a1c:	e3a03201 	mov	r3, #268435456	; 0x10000000
     a20:	e5932010 	ldr	r2, [r3, #16]
     a24:	e5931014 	ldr	r1, [r3, #20]
     a28:	e59f3020 	ldr	r3, [pc, #32]	; a50 <cc_rx_ready_isr+0x3c>
     a2c:	e5933000 	ldr	r3, [r3]
     a30:	e3530000 	cmp	r3, #0
     a34:	0a000001 	beq	a40 <cc_rx_ready_isr+0x2c>
     a38:	e3a00000 	mov	r0, #0
     a3c:	ebfffdf4 	bl	214 <schedule>
     a40:	e3a02001 	mov	r2, #1
     a44:	e3a0341f 	mov	r3, #520093696	; 0x1f000000
     a48:	e5832030 	str	r2, [r3, #48]	; 0x30
     a4c:	e8fd900f 	ldm	sp!, {r0, r1, r2, r3, ip, pc}^
     a50:	0040032c 	.word	0x0040032c

00000a54 <barrier_packet_handler>:
     a54:	e92d000c 	push	{r2, r3}
     a58:	e3a03201 	mov	r3, #268435456	; 0x10000000
     a5c:	e5933014 	ldr	r3, [r3, #20]
     a60:	e283320f 	add	r3, r3, #-268435456	; 0xf0000000
     a64:	e2833b02 	add	r3, r3, #2048	; 0x800
     a68:	e3530003 	cmp	r3, #3
     a6c:	979ff103 	ldrls	pc, [pc, r3, lsl #2]
     a70:	ea00001e 	b	af0 <barrier_packet_handler+0x9c>
     a74:	00000a94 	.word	0x00000a94
     a78:	00000a84 	.word	0x00000a84
     a7c:	00000acc 	.word	0x00000acc
     a80:	00000ae0 	.word	0x00000ae0
     a84:	e3a02001 	mov	r2, #1
     a88:	e59f3074 	ldr	r3, [pc, #116]	; b04 <barrier_packet_handler+0xb0>
     a8c:	e5832000 	str	r2, [r3]
     a90:	ea000016 	b	af0 <barrier_packet_handler+0x9c>
     a94:	e59f306c 	ldr	r3, [pc, #108]	; b08 <barrier_packet_handler+0xb4>
     a98:	e5933004 	ldr	r3, [r3, #4]
     a9c:	e3530000 	cmp	r3, #0
     aa0:	b3a0341f 	movlt	r3, #520093696	; 0x1f000000
     aa4:	b593200c 	ldrlt	r2, [r3, #12]
     aa8:	b3822040 	orrlt	r2, r2, #64	; 0x40
     aac:	b583200c 	strlt	r2, [r3, #12]
     ab0:	a59f2054 	ldrge	r2, [pc, #84]	; b0c <barrier_packet_handler+0xb8>
     ab4:	a3a0341f 	movge	r3, #520093696	; 0x1f000000
     ab8:	a583210c 	strge	r2, [r3, #268]	; 0x10c
     abc:	e3a02001 	mov	r2, #1
     ac0:	e59f3048 	ldr	r3, [pc, #72]	; b10 <barrier_packet_handler+0xbc>
     ac4:	e5832000 	str	r2, [r3]
     ac8:	ea000008 	b	af0 <barrier_packet_handler+0x9c>
     acc:	e59f3040 	ldr	r3, [pc, #64]	; b14 <barrier_packet_handler+0xc0>
     ad0:	e5932000 	ldr	r2, [r3]
     ad4:	e2822001 	add	r2, r2, #1
     ad8:	e5832000 	str	r2, [r3]
     adc:	ea000003 	b	af0 <barrier_packet_handler+0x9c>
     ae0:	e59f3030 	ldr	r3, [pc, #48]	; b18 <barrier_packet_handler+0xc4>
     ae4:	e5932000 	ldr	r2, [r3]
     ae8:	e2822001 	add	r2, r2, #1
     aec:	e5832000 	str	r2, [r3]
     af0:	e3a02001 	mov	r2, #1
     af4:	e3a0341f 	mov	r3, #520093696	; 0x1f000000
     af8:	e5832030 	str	r2, [r3, #48]	; 0x30
     afc:	e8bd000c 	pop	{r2, r3}
     b00:	e25ef004 	subs	pc, lr, #4
     b04:	00400c0c 	.word	0x00400c0c
     b08:	0040032c 	.word	0x0040032c
     b0c:	00000a14 	.word	0x00000a14
     b10:	00400c10 	.word	0x00400c10
     b14:	00400194 	.word	0x00400194
     b18:	00400198 	.word	0x00400198

00000b1c <cc_rx_error_isr>:
     b1c:	e92d000c 	push	{r2, r3}
     b20:	e3a03201 	mov	r3, #268435456	; 0x10000000
     b24:	e5932014 	ldr	r2, [r3, #20]
     b28:	e3a02000 	mov	r2, #0
     b2c:	e583200c 	str	r2, [r3, #12]
     b30:	e3a02001 	mov	r2, #1
     b34:	e3a0341f 	mov	r3, #520093696	; 0x1f000000
     b38:	e5832030 	str	r2, [r3, #48]	; 0x30
     b3c:	e8bd000c 	pop	{r2, r3}
     b40:	e25ef004 	subs	pc, lr, #4

00000b44 <cc_tx_empty_isr>:
     b44:	e24ee004 	sub	lr, lr, #4
     b48:	e92d503f 	push	{r0, r1, r2, r3, r4, r5, ip, lr}
     b4c:	e3a02000 	mov	r2, #0
     b50:	e3a03201 	mov	r3, #268435456	; 0x10000000
     b54:	e5832000 	str	r2, [r3]
     b58:	e59f2084 	ldr	r2, [pc, #132]	; be4 <ZI_LENGTH+0x10>
     b5c:	e5923000 	ldr	r3, [r2]
     b60:	e5922004 	ldr	r2, [r2, #4]
     b64:	e1530002 	cmp	r3, r2
     b68:	0a000019 	beq	bd4 <ZI_LENGTH>
     b6c:	e3a02201 	mov	r2, #268435456	; 0x10000000
     b70:	e5922000 	ldr	r2, [r2]
     b74:	e3120101 	tst	r2, #1073741824	; 0x40000000
     b78:	1a000011 	bne	bc4 <cc_tx_empty_isr+0x80>
     b7c:	e59f4060 	ldr	r4, [pc, #96]	; be4 <ZI_LENGTH+0x10>
     b80:	e3a05201 	mov	r5, #268435456	; 0x10000000
     b84:	e0832083 	add	r2, r3, r3, lsl #1
     b88:	e0842102 	add	r2, r4, r2, lsl #2
     b8c:	e5920008 	ldr	r0, [r2, #8]
     b90:	e592100c 	ldr	r1, [r2, #12]
     b94:	e5922010 	ldr	r2, [r2, #16]
     b98:	e2833001 	add	r3, r3, #1
     b9c:	e203300f 	and	r3, r3, #15
     ba0:	e5843000 	str	r3, [r4]
     ba4:	eb0004b3 	bl	1e78 <send_mc_packet_fulfil>
     ba8:	e5943000 	ldr	r3, [r4]
     bac:	e5942004 	ldr	r2, [r4, #4]
     bb0:	e1530002 	cmp	r3, r2
     bb4:	0a000006 	beq	bd4 <ZI_LENGTH>
     bb8:	e5952000 	ldr	r2, [r5]
     bbc:	e3120101 	tst	r2, #1073741824	; 0x40000000
     bc0:	0affffef 	beq	b84 <cc_tx_empty_isr+0x40>
     bc4:	e3a02001 	mov	r2, #1
     bc8:	e3a0341f 	mov	r3, #520093696	; 0x1f000000
     bcc:	e5832030 	str	r2, [r3, #48]	; 0x30
     bd0:	e8fd903f 	ldm	sp!, {r0, r1, r2, r3, r4, r5, ip, pc}^
     bd4:	e3a02b02 	mov	r2, #2048	; 0x800
     bd8:	e3a0341f 	mov	r3, #520093696	; 0x1f000000
     bdc:	e5832014 	str	r2, [r3, #20]
     be0:	eafffff7 	b	bc4 <cc_tx_empty_isr+0x80>
     be4:	00400354 	.word	0x00400354

00000be8 <dma_error_isr>:
     be8:	e92d000c 	push	{r2, r3}
     bec:	e3a02020 	mov	r2, #32
     bf0:	e3a03203 	mov	r3, #805306368	; 0x30000000
     bf4:	e5832010 	str	r2, [r3, #16]
     bf8:	e3a02001 	mov	r2, #1
     bfc:	e3a0341f 	mov	r3, #520093696	; 0x1f000000
     c00:	e5832030 	str	r2, [r3, #48]	; 0x30
     c04:	e8bd000c 	pop	{r2, r3}
     c08:	e25ef004 	subs	pc, lr, #4

00000c0c <dma_done_isr>:
     c0c:	e24ee004 	sub	lr, lr, #4
     c10:	e92d503f 	push	{r0, r1, r2, r3, r4, r5, ip, lr}
     c14:	e3a02008 	mov	r2, #8
     c18:	e3a03203 	mov	r3, #805306368	; 0x30000000
     c1c:	e5832010 	str	r2, [r3, #16]
     c20:	e59f0084 	ldr	r0, [pc, #132]	; cac <dma_done_isr+0xa0>
     c24:	e5903000 	ldr	r3, [r0]
     c28:	e0832103 	add	r2, r3, r3, lsl #2
     c2c:	e0802102 	add	r2, r0, r2, lsl #2
     c30:	e5921008 	ldr	r1, [r2, #8]
     c34:	e592200c 	ldr	r2, [r2, #12]
     c38:	e2833001 	add	r3, r3, #1
     c3c:	e203300f 	and	r3, r3, #15
     c40:	e5803000 	str	r3, [r0]
     c44:	e5900004 	ldr	r0, [r0, #4]
     c48:	e1530000 	cmp	r3, r0
     c4c:	0a00000c 	beq	c84 <dma_done_isr+0x78>
     c50:	e59f0054 	ldr	r0, [pc, #84]	; cac <dma_done_isr+0xa0>
     c54:	e1a0c103 	lsl	ip, r3, #2
     c58:	e08c4003 	add	r4, ip, r3
     c5c:	e0804104 	add	r4, r0, r4, lsl #2
     c60:	e5945014 	ldr	r5, [r4, #20]
     c64:	e5944018 	ldr	r4, [r4, #24]
     c68:	e08c3003 	add	r3, ip, r3
     c6c:	e0800103 	add	r0, r0, r3, lsl #2
     c70:	e5900010 	ldr	r0, [r0, #16]
     c74:	e3a03203 	mov	r3, #805306368	; 0x30000000
     c78:	e5830004 	str	r0, [r3, #4]
     c7c:	e5835008 	str	r5, [r3, #8]
     c80:	e583400c 	str	r4, [r3, #12]
     c84:	e59f3024 	ldr	r3, [pc, #36]	; cb0 <dma_done_isr+0xa4>
     c88:	e5933008 	ldr	r3, [r3, #8]
     c8c:	e3530000 	cmp	r3, #0
     c90:	0a000001 	beq	c9c <dma_done_isr+0x90>
     c94:	e3a00001 	mov	r0, #1
     c98:	ebfffd5d 	bl	214 <schedule>
     c9c:	e3a02001 	mov	r2, #1
     ca0:	e3a0341f 	mov	r3, #520093696	; 0x1f000000
     ca4:	e5832030 	str	r2, [r3, #48]	; 0x30
     ca8:	e8fd903f 	ldm	sp!, {r0, r1, r2, r3, r4, r5, ip, pc}^
     cac:	004001e0 	.word	0x004001e0
     cb0:	0040032c 	.word	0x0040032c

00000cb4 <timer1_isr>:
     cb4:	e24ee004 	sub	lr, lr, #4
     cb8:	e92d500f 	push	{r0, r1, r2, r3, ip, lr}
     cbc:	e3a02001 	mov	r2, #1
     cc0:	e3a03411 	mov	r3, #285212672	; 0x11000000
     cc4:	e583200c 	str	r2, [r3, #12]
     cc8:	e59f303c 	ldr	r3, [pc, #60]	; d0c <timer1_isr+0x58>
     ccc:	e5932000 	ldr	r2, [r3]
     cd0:	e2822001 	add	r2, r2, #1
     cd4:	e5832000 	str	r2, [r3]
     cd8:	e59f3030 	ldr	r3, [pc, #48]	; d10 <timer1_isr+0x5c>
     cdc:	e5933010 	ldr	r3, [r3, #16]
     ce0:	e3530000 	cmp	r3, #0
     ce4:	0a000004 	beq	cfc <timer1_isr+0x48>
     ce8:	e59f301c 	ldr	r3, [pc, #28]	; d0c <timer1_isr+0x58>
     cec:	e5931000 	ldr	r1, [r3]
     cf0:	e3a00002 	mov	r0, #2
     cf4:	e3a02000 	mov	r2, #0
     cf8:	ebfffd45 	bl	214 <schedule>
     cfc:	e3a02001 	mov	r2, #1
     d00:	e3a0341f 	mov	r3, #520093696	; 0x1f000000
     d04:	e5832030 	str	r2, [r3, #48]	; 0x30
     d08:	e8fd900f 	ldm	sp!, {r0, r1, r2, r3, ip, pc}^
     d0c:	004008cc 	.word	0x004008cc
     d10:	0040032c 	.word	0x0040032c

00000d14 <soft_int_isr>:
     d14:	e24ee004 	sub	lr, lr, #4
     d18:	e92d500f 	push	{r0, r1, r2, r3, ip, lr}
     d1c:	e3a02002 	mov	r2, #2
     d20:	e3a0341f 	mov	r3, #520093696	; 0x1f000000
     d24:	e583201c 	str	r2, [r3, #28]
     d28:	e3a02000 	mov	r2, #0
     d2c:	e59f3038 	ldr	r3, [pc, #56]	; d6c <soft_int_isr+0x58>
     d30:	e5c32000 	strb	r2, [r3]
     d34:	e59f3034 	ldr	r3, [pc, #52]	; d70 <soft_int_isr+0x5c>
     d38:	e5933020 	ldr	r3, [r3, #32]
     d3c:	e1530002 	cmp	r3, r2
     d40:	0a000005 	beq	d5c <soft_int_isr+0x48>
     d44:	e3a00004 	mov	r0, #4
     d48:	e59f3024 	ldr	r3, [pc, #36]	; d74 <soft_int_isr+0x60>
     d4c:	e5931000 	ldr	r1, [r3]
     d50:	e59f3020 	ldr	r3, [pc, #32]	; d78 <soft_int_isr+0x64>
     d54:	e5932000 	ldr	r2, [r3]
     d58:	ebfffd2d 	bl	214 <schedule>
     d5c:	e3a02001 	mov	r2, #1
     d60:	e3a0341f 	mov	r3, #520093696	; 0x1f000000
     d64:	e5832030 	str	r2, [r3, #48]	; 0x30
     d68:	e8fd900f 	ldm	sp!, {r0, r1, r2, r3, ip, pc}^
     d6c:	00400c14 	.word	0x00400c14
     d70:	0040032c 	.word	0x0040032c
     d74:	00400328 	.word	0x00400328
     d78:	004001d0 	.word	0x004001d0

00000d7c <cc_rx_ready_fiqsr>:
     d7c:	e24ee004 	sub	lr, lr, #4
     d80:	e92d500f 	push	{r0, r1, r2, r3, ip, lr}
     d84:	e3a03201 	mov	r3, #268435456	; 0x10000000
     d88:	e5931010 	ldr	r1, [r3, #16]
     d8c:	e5930014 	ldr	r0, [r3, #20]
     d90:	e59f3008 	ldr	r3, [pc, #8]	; da0 <cc_rx_ready_fiqsr+0x24>
     d94:	e5933000 	ldr	r3, [r3]
     d98:	e12fff33 	blx	r3
     d9c:	e8fd900f 	ldm	sp!, {r0, r1, r2, r3, ip, pc}^
     da0:	0040032c 	.word	0x0040032c

00000da4 <dma_done_fiqsr>:
     da4:	e24ee004 	sub	lr, lr, #4
     da8:	e92d503f 	push	{r0, r1, r2, r3, r4, r5, ip, lr}
     dac:	e3a02008 	mov	r2, #8
     db0:	e3a03203 	mov	r3, #805306368	; 0x30000000
     db4:	e5832010 	str	r2, [r3, #16]
     db8:	e59f206c 	ldr	r2, [pc, #108]	; e2c <dma_done_fiqsr+0x88>
     dbc:	e5923000 	ldr	r3, [r2]
     dc0:	e0831103 	add	r1, r3, r3, lsl #2
     dc4:	e0821101 	add	r1, r2, r1, lsl #2
     dc8:	e5910008 	ldr	r0, [r1, #8]
     dcc:	e591100c 	ldr	r1, [r1, #12]
     dd0:	e2833001 	add	r3, r3, #1
     dd4:	e203300f 	and	r3, r3, #15
     dd8:	e5823000 	str	r3, [r2]
     ddc:	e5922004 	ldr	r2, [r2, #4]
     de0:	e1530002 	cmp	r3, r2
     de4:	0a00000c 	beq	e1c <dma_done_fiqsr+0x78>
     de8:	e59f203c 	ldr	r2, [pc, #60]	; e2c <dma_done_fiqsr+0x88>
     dec:	e1a0c103 	lsl	ip, r3, #2
     df0:	e08ce003 	add	lr, ip, r3
     df4:	e082e10e 	add	lr, r2, lr, lsl #2
     df8:	e59e4014 	ldr	r4, [lr, #20]
     dfc:	e59ee018 	ldr	lr, [lr, #24]
     e00:	e08c3003 	add	r3, ip, r3
     e04:	e0822103 	add	r2, r2, r3, lsl #2
     e08:	e5922010 	ldr	r2, [r2, #16]
     e0c:	e3a03203 	mov	r3, #805306368	; 0x30000000
     e10:	e5832004 	str	r2, [r3, #4]
     e14:	e5834008 	str	r4, [r3, #8]
     e18:	e583e00c 	str	lr, [r3, #12]
     e1c:	e59f300c 	ldr	r3, [pc, #12]	; e30 <dma_done_fiqsr+0x8c>
     e20:	e5933008 	ldr	r3, [r3, #8]
     e24:	e12fff33 	blx	r3
     e28:	e8fd903f 	ldm	sp!, {r0, r1, r2, r3, r4, r5, ip, pc}^
     e2c:	004001e0 	.word	0x004001e0
     e30:	0040032c 	.word	0x0040032c

00000e34 <timer1_fiqsr>:
     e34:	e24ee004 	sub	lr, lr, #4
     e38:	e92d500f 	push	{r0, r1, r2, r3, ip, lr}
     e3c:	e3a02001 	mov	r2, #1
     e40:	e3a03411 	mov	r3, #285212672	; 0x11000000
     e44:	e583200c 	str	r2, [r3, #12]
     e48:	e59f3020 	ldr	r3, [pc, #32]	; e70 <timer1_fiqsr+0x3c>
     e4c:	e5932000 	ldr	r2, [r3]
     e50:	e2822001 	add	r2, r2, #1
     e54:	e5832000 	str	r2, [r3]
     e58:	e5930000 	ldr	r0, [r3]
     e5c:	e59f3010 	ldr	r3, [pc, #16]	; e74 <timer1_fiqsr+0x40>
     e60:	e5933010 	ldr	r3, [r3, #16]
     e64:	e3a01000 	mov	r1, #0
     e68:	e12fff33 	blx	r3
     e6c:	e8fd900f 	ldm	sp!, {r0, r1, r2, r3, ip, pc}^
     e70:	004008cc 	.word	0x004008cc
     e74:	0040032c 	.word	0x0040032c

00000e78 <soft_int_fiqsr>:
     e78:	e24ee004 	sub	lr, lr, #4
     e7c:	e92d500f 	push	{r0, r1, r2, r3, ip, lr}
     e80:	e3a02002 	mov	r2, #2
     e84:	e3a0341f 	mov	r3, #520093696	; 0x1f000000
     e88:	e583201c 	str	r2, [r3, #28]
     e8c:	e59f3024 	ldr	r3, [pc, #36]	; eb8 <soft_int_fiqsr+0x40>
     e90:	e5933020 	ldr	r3, [r3, #32]
     e94:	e59f2020 	ldr	r2, [pc, #32]	; ebc <soft_int_fiqsr+0x44>
     e98:	e5920000 	ldr	r0, [r2]
     e9c:	e59f201c 	ldr	r2, [pc, #28]	; ec0 <soft_int_fiqsr+0x48>
     ea0:	e5921000 	ldr	r1, [r2]
     ea4:	e12fff33 	blx	r3
     ea8:	e3a02000 	mov	r2, #0
     eac:	e59f3010 	ldr	r3, [pc, #16]	; ec4 <soft_int_fiqsr+0x4c>
     eb0:	e5c32000 	strb	r2, [r3]
     eb4:	e8fd900f 	ldm	sp!, {r0, r1, r2, r3, ip, pc}^
     eb8:	0040032c 	.word	0x0040032c
     ebc:	00400328 	.word	0x00400328
     ec0:	004001d0 	.word	0x004001d0
     ec4:	00400c14 	.word	0x00400c14

00000ec8 <spin1_srand>:
     ec8:	e59f3010 	ldr	r3, [pc, #16]	; ee0 <spin1_srand+0x18>
     ecc:	e5830000 	str	r0, [r3]
     ed0:	e3a02000 	mov	r2, #0
     ed4:	e59f3008 	ldr	r3, [pc, #8]	; ee4 <spin1_srand+0x1c>
     ed8:	e5832000 	str	r2, [r3]
     edc:	e12fff1e 	bx	lr
     ee0:	0040002c 	.word	0x0040002c
     ee4:	004008bc 	.word	0x004008bc

00000ee8 <spin1_rand>:
     ee8:	e59f3030 	ldr	r3, [pc, #48]	; f20 <RTR_TST2+0x1c>
     eec:	e5930000 	ldr	r0, [r3]
     ef0:	e59f302c 	ldr	r3, [pc, #44]	; f24 <RTR_TST2+0x20>
     ef4:	e5933000 	ldr	r3, [r3]
     ef8:	e11300a3 	tst	r3, r3, lsr #1
     efc:	e1b02060 	rrxs	r2, r0
     f00:	e0a33003 	adc	r3, r3, r3
     f04:	e0222600 	eor	r2, r2, r0, lsl #12
     f08:	e0220a22 	eor	r0, r2, r2, lsr #20
     f0c:	e59f200c 	ldr	r2, [pc, #12]	; f20 <RTR_TST2+0x1c>
     f10:	e5820000 	str	r0, [r2]
     f14:	e59f2008 	ldr	r2, [pc, #8]	; f24 <RTR_TST2+0x20>
     f18:	e5823000 	str	r3, [r2]
     f1c:	e12fff1e 	bx	lr
     f20:	0040002c 	.word	0x0040002c
     f24:	004008bc 	.word	0x004008bc

00000f28 <barrier_setup>:
     f28:	e92d0ff0 	push	{r4, r5, r6, r7, r8, r9, sl, fp}
     f2c:	e24dd010 	sub	sp, sp, #16
     f30:	e59fc200 	ldr	ip, [pc, #512]	; 1138 <RTS_STACK+0x138>
     f34:	e3a03c0f 	mov	r3, #3840	; 0xf00
     f38:	e19c30b3 	ldrh	r3, [ip, r3]
     f3c:	e1a0b423 	lsr	fp, r3, #8
     f40:	e20340ff 	and	r4, r3, #255	; 0xff
     f44:	e58d4008 	str	r4, [sp, #8]
     f48:	e2733001 	rsbs	r3, r3, #1
     f4c:	33a03000 	movcc	r3, #0
     f50:	e58d3004 	str	r3, [sp, #4]
     f54:	e59f31e0 	ldr	r3, [pc, #480]	; 113c <RTS_STACK+0x13c>
     f58:	e59d4004 	ldr	r4, [sp, #4]
     f5c:	e5c34000 	strb	r4, [r3]
     f60:	e3a04000 	mov	r4, #0
     f64:	e1c340b2 	strh	r4, [r3, #2]
     f68:	e5938004 	ldr	r8, [r3, #4]
     f6c:	e1a06108 	lsl	r6, r8, #2
     f70:	e58d600c 	str	r6, [sp, #12]
     f74:	e7925108 	ldr	r5, [r2, r8, lsl #2]
     f78:	e3c55001 	bic	r5, r5, #1
     f7c:	e5dc7fbd 	ldrb	r7, [ip, #4029]	; 0xfbd
     f80:	e3570001 	cmp	r7, #1
     f84:	9a00000f 	bls	fc8 <barrier_setup+0xa0>
     f88:	e3a03001 	mov	r3, #1
     f8c:	e1a0c003 	mov	ip, r3
     f90:	e59fa1a8 	ldr	sl, [pc, #424]	; 1140 <RTS_STACK+0x140>
     f94:	e59f61a0 	ldr	r6, [pc, #416]	; 113c <RTS_STACK+0x13c>
     f98:	e015931c 	ands	r9, r5, ip, lsl r3
     f9c:	0a000005 	beq	fb8 <barrier_setup+0x90>
     fa0:	e7d3900a 	ldrb	r9, [r3, sl]
     fa4:	e2899006 	add	r9, r9, #6
     fa8:	e184491c 	orr	r4, r4, ip, lsl r9
     fac:	e5969008 	ldr	r9, [r6, #8]
     fb0:	e2899001 	add	r9, r9, #1
     fb4:	e5869008 	str	r9, [r6, #8]
     fb8:	e2833001 	add	r3, r3, #1
     fbc:	e1570003 	cmp	r7, r3
     fc0:	8afffff4 	bhi	f98 <barrier_setup+0x70>
     fc4:	ea000000 	b	fcc <barrier_setup+0xa4>
     fc8:	e3a04000 	mov	r4, #0
     fcc:	e35b0000 	cmp	fp, #0
     fd0:	13a05000 	movne	r5, #0
     fd4:	1a00000c 	bne	100c <RTS_STACK+0xc>
     fd8:	e2413001 	sub	r3, r1, #1
     fdc:	e59dc008 	ldr	ip, [sp, #8]
     fe0:	e15c0003 	cmp	ip, r3
     fe4:	23a05000 	movcs	r5, #0
     fe8:	2a000007 	bcs	100c <RTS_STACK+0xc>
     fec:	e59d600c 	ldr	r6, [sp, #12]
     ff0:	e0823006 	add	r3, r2, r6
     ff4:	e5935004 	ldr	r5, [r3, #4]
     ff8:	e3c55001 	bic	r5, r5, #1
     ffc:	e3550000 	cmp	r5, #0
    1000:	13a05004 	movne	r5, #4
    1004:	03a05000 	moveq	r5, #0
    1008:	eaffffff 	b	100c <RTS_STACK+0xc>
    100c:	e2403001 	sub	r3, r0, #1
    1010:	e15b0003 	cmp	fp, r3
    1014:	2a00000c 	bcs	104c <RTS_STACK+0x4c>
    1018:	e59d9008 	ldr	r9, [sp, #8]
    101c:	e3590000 	cmp	r9, #0
    1020:	1a00003c 	bne	1118 <RTS_STACK+0x118>
    1024:	e0813008 	add	r3, r1, r8
    1028:	e7923103 	ldr	r3, [r2, r3, lsl #2]
    102c:	e3d3c001 	bics	ip, r3, #1
    1030:	13855001 	orrne	r5, r5, #1
    1034:	ea000037 	b	1118 <RTS_STACK+0x118>
    1038:	e0883001 	add	r3, r8, r1
    103c:	e2833001 	add	r3, r3, #1
    1040:	e7923103 	ldr	r3, [r2, r3, lsl #2]
    1044:	e3d36001 	bics	r6, r3, #1
    1048:	13855002 	orrne	r5, r5, #2
    104c:	e59d9004 	ldr	r9, [sp, #4]
    1050:	e3590000 	cmp	r9, #0
    1054:	0a000014 	beq	10ac <RTS_STACK+0xac>
    1058:	e0110190 	muls	r1, r0, r1
    105c:	0a00000b 	beq	1090 <RTS_STACK+0x90>
    1060:	e3a03000 	mov	r3, #0
    1064:	e59f00d8 	ldr	r0, [pc, #216]	; 1144 <RTS_STACK+0x144>
    1068:	e1530008 	cmp	r3, r8
    106c:	0a000004 	beq	1084 <RTS_STACK+0x84>
    1070:	e792c103 	ldr	ip, [r2, r3, lsl #2]
    1074:	e3dc6001 	bics	r6, ip, #1
    1078:	1590c000 	ldrne	ip, [r0]
    107c:	128cc001 	addne	ip, ip, #1
    1080:	1580c000 	strne	ip, [r0]
    1084:	e2833001 	add	r3, r3, #1
    1088:	e1530001 	cmp	r3, r1
    108c:	1afffff5 	bne	1068 <RTS_STACK+0x68>
    1090:	e59f30b0 	ldr	r3, [pc, #176]	; 1148 <RTS_STACK+0x148>
    1094:	e5933000 	ldr	r3, [r3]
    1098:	e2833006 	add	r3, r3, #6
    109c:	e3a06001 	mov	r6, #1
    10a0:	e1a06316 	lsl	r6, r6, r3
    10a4:	e1a0c005 	mov	ip, r5
    10a8:	ea000008 	b	10d0 <RTS_STACK+0xd0>
    10ac:	e59f3094 	ldr	r3, [pc, #148]	; 1148 <RTS_STACK+0x148>
    10b0:	e593c000 	ldr	ip, [r3]
    10b4:	e28cc006 	add	ip, ip, #6
    10b8:	e3a03001 	mov	r3, #1
    10bc:	e185cc13 	orr	ip, r5, r3, lsl ip
    10c0:	e59f2084 	ldr	r2, [pc, #132]	; 114c <RTS_STACK+0x14c>
    10c4:	e5926000 	ldr	r6, [r2]
    10c8:	e2066007 	and	r6, r6, #7
    10cc:	e1a06613 	lsl	r6, r3, r6
    10d0:	e59f0078 	ldr	r0, [pc, #120]	; 1150 <RTS_STACK+0x150>
    10d4:	e59f3078 	ldr	r3, [pc, #120]	; 1154 <RTS_STACK+0x154>
    10d8:	e5803004 	str	r3, [r0, #4]
    10dc:	e59f2074 	ldr	r2, [pc, #116]	; 1158 <RTS_STACK+0x158>
    10e0:	e3e01000 	mvn	r1, #0
    10e4:	e5821004 	str	r1, [r2, #4]
    10e8:	e59f306c 	ldr	r3, [pc, #108]	; 115c <RTS_STACK+0x15c>
    10ec:	e583c004 	str	ip, [r3, #4]
    10f0:	e59fc068 	ldr	ip, [pc, #104]	; 1160 <RTS_STACK+0x160>
    10f4:	e580c00c 	str	ip, [r0, #12]
    10f8:	e582100c 	str	r1, [r2, #12]
    10fc:	e583600c 	str	r6, [r3, #12]
    1100:	e24cc003 	sub	ip, ip, #3
    1104:	e580c000 	str	ip, [r0]
    1108:	e5821000 	str	r1, [r2]
    110c:	e1854004 	orr	r4, r5, r4
    1110:	e5834000 	str	r4, [r3]
    1114:	ea000004 	b	112c <RTS_STACK+0x12c>
    1118:	e2413001 	sub	r3, r1, #1
    111c:	e59d9008 	ldr	r9, [sp, #8]
    1120:	e1590003 	cmp	r9, r3
    1124:	3affffc3 	bcc	1038 <RTS_STACK+0x38>
    1128:	eaffffc7 	b	104c <RTS_STACK+0x4c>
    112c:	e28dd010 	add	sp, sp, #16
    1130:	e8bd0ff0 	pop	{r4, r5, r6, r7, r8, r9, sl, fp}
    1134:	e12fff1e 	bx	lr
    1138:	f5007000 	.word	0xf5007000
    113c:	004008c0 	.word	0x004008c0
    1140:	f5007fa8 	.word	0xf5007fa8
    1144:	00400030 	.word	0x00400030
    1148:	004001cc 	.word	0x004001cc
    114c:	f1010000 	.word	0xf1010000
    1150:	f1008000 	.word	0xf1008000
    1154:	0ffff801 	.word	0x0ffff801
    1158:	f100c000 	.word	0xf100c000
    115c:	f1004000 	.word	0xf1004000
    1160:	0ffff803 	.word	0x0ffff803

00001164 <spin1_callback_on>:
    1164:	e92d4008 	push	{r3, lr}
    1168:	e59f3060 	ldr	r3, [pc, #96]	; 11d0 <spin1_callback_on+0x6c>
    116c:	e7831180 	str	r1, [r3, r0, lsl #3]
    1170:	e3520000 	cmp	r2, #0
    1174:	aa000011 	bge	11c0 <spin1_callback_on+0x5c>
    1178:	e59f3054 	ldr	r3, [pc, #84]	; 11d4 <spin1_callback_on+0x70>
    117c:	e5933004 	ldr	r3, [r3, #4]
    1180:	e3730001 	cmn	r3, #1
    1184:	11530000 	cmpne	r3, r0
    1188:	1a000005 	bne	11a4 <spin1_callback_on+0x40>
    118c:	e59f303c 	ldr	r3, [pc, #60]	; 11d0 <spin1_callback_on+0x6c>
    1190:	e0833180 	add	r3, r3, r0, lsl #3
    1194:	e5832004 	str	r2, [r3, #4]
    1198:	e59f3034 	ldr	r3, [pc, #52]	; 11d4 <spin1_callback_on+0x70>
    119c:	e5830004 	str	r0, [r3, #4]
    11a0:	e8bd8008 	pop	{r3, pc}
    11a4:	e59f3024 	ldr	r3, [pc, #36]	; 11d0 <spin1_callback_on+0x6c>
    11a8:	e0833180 	add	r3, r3, r0, lsl #3
    11ac:	e3a00000 	mov	r0, #0
    11b0:	e5830004 	str	r0, [r3, #4]
    11b4:	e59f101c 	ldr	r1, [pc, #28]	; 11d8 <spin1_callback_on+0x74>
    11b8:	eb000624 	bl	2a50 <io_printf>
    11bc:	e8bd8008 	pop	{r3, pc}
    11c0:	e59f3008 	ldr	r3, [pc, #8]	; 11d0 <spin1_callback_on+0x6c>
    11c4:	e0830180 	add	r0, r3, r0, lsl #3
    11c8:	e5802004 	str	r2, [r0, #4]
    11cc:	e8bd8008 	pop	{r3, pc}
    11d0:	0040032c 	.word	0x0040032c
    11d4:	00400030 	.word	0x00400030
    11d8:	00002ce4 	.word	0x00002ce4

000011dc <spin1_callback_off>:
    11dc:	e59f3020 	ldr	r3, [pc, #32]	; 1204 <spin1_callback_off+0x28>
    11e0:	e3a02000 	mov	r2, #0
    11e4:	e7832180 	str	r2, [r3, r0, lsl #3]
    11e8:	e0833180 	add	r3, r3, r0, lsl #3
    11ec:	e5933004 	ldr	r3, [r3, #4]
    11f0:	e1530002 	cmp	r3, r2
    11f4:	b3e02000 	mvnlt	r2, #0
    11f8:	b59f3008 	ldrlt	r3, [pc, #8]	; 1208 <spin1_callback_off+0x2c>
    11fc:	b5832004 	strlt	r2, [r3, #4]
    1200:	e12fff1e 	bx	lr
    1204:	0040032c 	.word	0x0040032c
    1208:	00400030 	.word	0x00400030

0000120c <spin1_get_simulation_time>:
    120c:	e59f3004 	ldr	r3, [pc, #4]	; 1218 <spin1_get_simulation_time+0xc>
    1210:	e593000c 	ldr	r0, [r3, #12]
    1214:	e12fff1e 	bx	lr
    1218:	004008c0 	.word	0x004008c0

0000121c <spin1_set_timer_tick>:
    121c:	e59f3004 	ldr	r3, [pc, #4]	; 1228 <spin1_set_timer_tick+0xc>
    1220:	e5830010 	str	r0, [r3, #16]
    1224:	e12fff1e 	bx	lr
    1228:	004008c0 	.word	0x004008c0

0000122c <spin1_set_core_map>:
    122c:	e92d41f0 	push	{r4, r5, r6, r7, r8, lr}
    1230:	e1a02001 	mov	r2, r1
    1234:	e3500000 	cmp	r0, #0
    1238:	0a000011 	beq	1284 <spin1_set_core_map+0x58>
    123c:	e59f30dc 	ldr	r3, [pc, #220]	; 1320 <spin1_set_core_map+0xf4>
    1240:	e5d3cfbd 	ldrb	ip, [r3, #4029]	; 0xfbd
    1244:	e1a07001 	mov	r7, r1
    1248:	e0818100 	add	r8, r1, r0, lsl #2
    124c:	e3a06000 	mov	r6, #0
    1250:	e3a05001 	mov	r5, #1
    1254:	e4974004 	ldr	r4, [r7], #4
    1258:	e35c0001 	cmp	ip, #1
    125c:	9a000005 	bls	1278 <spin1_set_core_map+0x4c>
    1260:	e1a03005 	mov	r3, r5
    1264:	e0141315 	ands	r1, r4, r5, lsl r3
    1268:	12866001 	addne	r6, r6, #1
    126c:	e2833001 	add	r3, r3, #1
    1270:	e153000c 	cmp	r3, ip
    1274:	3afffffa 	bcc	1264 <spin1_set_core_map+0x38>
    1278:	e1570008 	cmp	r7, r8
    127c:	1afffff4 	bne	1254 <spin1_set_core_map+0x28>
    1280:	ea000000 	b	1288 <spin1_set_core_map+0x5c>
    1284:	e3a06000 	mov	r6, #0
    1288:	e59f3094 	ldr	r3, [pc, #148]	; 1324 <spin1_set_core_map+0xf8>
    128c:	e5836008 	str	r6, [r3, #8]
    1290:	e5933008 	ldr	r3, [r3, #8]
    1294:	e3530001 	cmp	r3, #1
    1298:	98bd81f0 	popls	{r4, r5, r6, r7, r8, pc}
    129c:	e59f3084 	ldr	r3, [pc, #132]	; 1328 <spin1_set_core_map+0xfc>
    12a0:	e5d33000 	ldrb	r3, [r3]
    12a4:	e3530000 	cmp	r3, #0
    12a8:	08bd81f0 	popeq	{r4, r5, r6, r7, r8, pc}
    12ac:	e3500000 	cmp	r0, #0
    12b0:	ba000004 	blt	12c8 <spin1_set_core_map+0x9c>
    12b4:	e3a03001 	mov	r3, #1
    12b8:	e3a0c102 	mov	ip, #-2147483648	; 0x80000000
    12bc:	e010133c 	ands	r1, r0, ip, lsr r3
    12c0:	0a000006 	beq	12e0 <spin1_set_core_map+0xb4>
    12c4:	ea000000 	b	12cc <spin1_set_core_map+0xa0>
    12c8:	e3a03000 	mov	r3, #0
    12cc:	e263301f 	rsb	r3, r3, #31
    12d0:	e1a000a3 	lsr	r0, r3, #1
    12d4:	e3a01001 	mov	r1, #1
    12d8:	e1a01011 	lsl	r1, r1, r0
    12dc:	ea000004 	b	12f4 <spin1_set_core_map+0xc8>
    12e0:	e2833001 	add	r3, r3, #1
    12e4:	e3530020 	cmp	r3, #32
    12e8:	1afffff3 	bne	12bc <spin1_set_core_map+0x90>
    12ec:	e3a01001 	mov	r1, #1
    12f0:	e3a00000 	mov	r0, #0
    12f4:	e3a03c0f 	mov	r3, #3840	; 0xf00
    12f8:	e59fc020 	ldr	ip, [pc, #32]	; 1320 <spin1_set_core_map+0xf4>
    12fc:	e19c30b3 	ldrh	r3, [ip, r3]
    1300:	e1a0c423 	lsr	ip, r3, #8
    1304:	e20330ff 	and	r3, r3, #255	; 0xff
    1308:	e183001c 	orr	r0, r3, ip, lsl r0
    130c:	e59f3018 	ldr	r3, [pc, #24]	; 132c <spin1_set_core_map+0x100>
    1310:	e5830004 	str	r0, [r3, #4]
    1314:	e1a00001 	mov	r0, r1
    1318:	ebffff02 	bl	f28 <barrier_setup>
    131c:	e8bd81f0 	pop	{r4, r5, r6, r7, r8, pc}
    1320:	f5007000 	.word	0xf5007000
    1324:	00400030 	.word	0x00400030
    1328:	004001d8 	.word	0x004001d8
    132c:	004008c0 	.word	0x004008c0

00001330 <spin1_application_core_map>:
    1330:	e92d43f8 	push	{r3, r4, r5, r6, r7, r8, r9, lr}
    1334:	e0180190 	muls	r8, r0, r1
    1338:	0a000011 	beq	1384 <spin1_application_core_map+0x54>
    133c:	e59f3090 	ldr	r3, [pc, #144]	; 13d4 <spin1_application_core_map+0xa4>
    1340:	e5d3cfbd 	ldrb	ip, [r3, #4029]	; 0xfbd
    1344:	e1a07002 	mov	r7, r2
    1348:	e0828108 	add	r8, r2, r8, lsl #2
    134c:	e3a06000 	mov	r6, #0
    1350:	e3a05001 	mov	r5, #1
    1354:	e4974004 	ldr	r4, [r7], #4
    1358:	e35c0001 	cmp	ip, #1
    135c:	9a000005 	bls	1378 <spin1_application_core_map+0x48>
    1360:	e1a03005 	mov	r3, r5
    1364:	e0149315 	ands	r9, r4, r5, lsl r3
    1368:	12866001 	addne	r6, r6, #1
    136c:	e2833001 	add	r3, r3, #1
    1370:	e153000c 	cmp	r3, ip
    1374:	3afffffa 	bcc	1364 <spin1_application_core_map+0x34>
    1378:	e1570008 	cmp	r7, r8
    137c:	1afffff4 	bne	1354 <spin1_application_core_map+0x24>
    1380:	ea000000 	b	1388 <spin1_application_core_map+0x58>
    1384:	e3a06000 	mov	r6, #0
    1388:	e59f3048 	ldr	r3, [pc, #72]	; 13d8 <spin1_application_core_map+0xa8>
    138c:	e5836008 	str	r6, [r3, #8]
    1390:	e5933008 	ldr	r3, [r3, #8]
    1394:	e3530001 	cmp	r3, #1
    1398:	98bd83f8 	popls	{r3, r4, r5, r6, r7, r8, r9, pc}
    139c:	e59f3038 	ldr	r3, [pc, #56]	; 13dc <spin1_application_core_map+0xac>
    13a0:	e5d33000 	ldrb	r3, [r3]
    13a4:	e3530000 	cmp	r3, #0
    13a8:	08bd83f8 	popeq	{r3, r4, r5, r6, r7, r8, r9, pc}
    13ac:	e3a03c0f 	mov	r3, #3840	; 0xf00
    13b0:	e59fc01c 	ldr	ip, [pc, #28]	; 13d4 <spin1_application_core_map+0xa4>
    13b4:	e19c30b3 	ldrh	r3, [ip, r3]
    13b8:	e1a0c423 	lsr	ip, r3, #8
    13bc:	e20330ff 	and	r3, r3, #255	; 0xff
    13c0:	e02c3c91 	mla	ip, r1, ip, r3
    13c4:	e59f3014 	ldr	r3, [pc, #20]	; 13e0 <spin1_application_core_map+0xb0>
    13c8:	e583c004 	str	ip, [r3, #4]
    13cc:	ebfffed5 	bl	f28 <barrier_setup>
    13d0:	e8bd83f8 	pop	{r3, r4, r5, r6, r7, r8, r9, pc}
    13d4:	f5007000 	.word	0xf5007000
    13d8:	00400030 	.word	0x00400030
    13dc:	004001d8 	.word	0x004001d8
    13e0:	004008c0 	.word	0x004008c0

000013e4 <clean_up>:
    13e4:	e10f1000 	mrs	r1, CPSR
    13e8:	e38130c0 	orr	r3, r1, #192	; 0xc0
    13ec:	e121f003 	msr	CPSR_c, r3
    13f0:	e3a0241f 	mov	r2, #520093696	; 0x1f000000
    13f4:	e592300c 	ldr	r3, [r2, #12]
    13f8:	e3c33dc1 	bic	r3, r3, #12352	; 0x3040
    13fc:	e3c33012 	bic	r3, r3, #18
    1400:	e582300c 	str	r3, [r2, #12]
    1404:	e59f3054 	ldr	r3, [pc, #84]	; 1460 <clean_up+0x7c>
    1408:	e5930000 	ldr	r0, [r3]
    140c:	e3a03000 	mov	r3, #0
    1410:	e583003c 	str	r0, [r3, #60]	; 0x3c
    1414:	e59f0048 	ldr	r0, [pc, #72]	; 1464 <clean_up+0x80>
    1418:	e582010c 	str	r0, [r2, #268]	; 0x10c
    141c:	e59f2044 	ldr	r2, [pc, #68]	; 1468 <clean_up+0x84>
    1420:	e5823000 	str	r3, [r2]
    1424:	e5823008 	str	r3, [r2, #8]
    1428:	e5823010 	str	r3, [r2, #16]
    142c:	e5823018 	str	r3, [r2, #24]
    1430:	e5823020 	str	r3, [r2, #32]
    1434:	e3a00001 	mov	r0, #1
    1438:	e3a02411 	mov	r2, #285212672	; 0x11000000
    143c:	e582000c 	str	r0, [r2, #12]
    1440:	e3a02203 	mov	r2, #805306368	; 0x30000000
    1444:	e5823018 	str	r3, [r2, #24]
    1448:	e3a0303f 	mov	r3, #63	; 0x3f
    144c:	e5823010 	str	r3, [r2, #16]
    1450:	e3a0300d 	mov	r3, #13
    1454:	e5823010 	str	r3, [r2, #16]
    1458:	e121f001 	msr	CPSR_c, r1
    145c:	e12fff1e 	bx	lr
    1460:	0040019c 	.word	0x0040019c
    1464:	00000a14 	.word	0x00000a14
    1468:	0040032c 	.word	0x0040032c

0000146c <report_debug>:
    146c:	e12fff1e 	bx	lr

00001470 <report_warns>:
    1470:	e92d4008 	push	{r3, lr}
    1474:	e59f3068 	ldr	r3, [pc, #104]	; 14e4 <report_warns+0x74>
    1478:	e5933014 	ldr	r3, [r3, #20]
    147c:	e3130001 	tst	r3, #1
    1480:	0a000004 	beq	1498 <report_warns+0x28>
    1484:	e3a00000 	mov	r0, #0
    1488:	e59f1058 	ldr	r1, [pc, #88]	; 14e8 <report_warns+0x78>
    148c:	e59f3050 	ldr	r3, [pc, #80]	; 14e4 <report_warns+0x74>
    1490:	e5932018 	ldr	r2, [r3, #24]
    1494:	eb00056d 	bl	2a50 <io_printf>
    1498:	e59f3044 	ldr	r3, [pc, #68]	; 14e4 <report_warns+0x74>
    149c:	e5933014 	ldr	r3, [r3, #20]
    14a0:	e3130002 	tst	r3, #2
    14a4:	0a000004 	beq	14bc <report_warns+0x4c>
    14a8:	e3a00000 	mov	r0, #0
    14ac:	e59f1038 	ldr	r1, [pc, #56]	; 14ec <report_warns+0x7c>
    14b0:	e59f302c 	ldr	r3, [pc, #44]	; 14e4 <report_warns+0x74>
    14b4:	e593201c 	ldr	r2, [r3, #28]
    14b8:	eb000564 	bl	2a50 <io_printf>
    14bc:	e59f3020 	ldr	r3, [pc, #32]	; 14e4 <report_warns+0x74>
    14c0:	e5933014 	ldr	r3, [r3, #20]
    14c4:	e3130004 	tst	r3, #4
    14c8:	08bd8008 	popeq	{r3, pc}
    14cc:	e3a00000 	mov	r0, #0
    14d0:	e59f1018 	ldr	r1, [pc, #24]	; 14f0 <report_warns+0x80>
    14d4:	e59f3008 	ldr	r3, [pc, #8]	; 14e4 <report_warns+0x74>
    14d8:	e5932020 	ldr	r2, [r3, #32]
    14dc:	eb00055b 	bl	2a50 <io_printf>
    14e0:	e8bd8008 	pop	{r3, pc}
    14e4:	004008c0 	.word	0x004008c0
    14e8:	00002d10 	.word	0x00002d10
    14ec:	00002d3c 	.word	0x00002d3c
    14f0:	00002d68 	.word	0x00002d68

000014f4 <spin1_stop>:
    14f4:	e59f2018 	ldr	r2, [pc, #24]	; 1514 <spin1_stop+0x20>
    14f8:	e3a0341f 	mov	r3, #520093696	; 0x1f000000
    14fc:	e5832014 	str	r2, [r3, #20]
    1500:	e59f3010 	ldr	r3, [pc, #16]	; 1518 <spin1_stop+0x24>
    1504:	e3a02000 	mov	r2, #0
    1508:	e5832024 	str	r2, [r3, #36]	; 0x24
    150c:	e5832028 	str	r2, [r3, #40]	; 0x28
    1510:	e12fff1e 	bx	lr
    1514:	00003052 	.word	0x00003052
    1518:	004008c0 	.word	0x004008c0

0000151c <spin1_delay_us>:
    151c:	e3a03ef2 	mov	r3, #3872	; 0xf20
    1520:	e59f2018 	ldr	r2, [pc, #24]	; 1540 <spin1_delay_us+0x24>
    1524:	e19230b3 	ldrh	r3, [r2, r3]
    1528:	e0000093 	mul	r0, r3, r0
    152c:	e1a00120 	lsr	r0, r0, #2
    1530:	e2400001 	sub	r0, r0, #1
    1534:	e3700001 	cmn	r0, #1
    1538:	1afffffc 	bne	1530 <spin1_delay_us+0x14>
    153c:	e12fff1e 	bx	lr
    1540:	f5007000 	.word	0xf5007000

00001544 <spin1_dma_transfer>:
    1544:	e92d03f0 	push	{r4, r5, r6, r7, r8, r9}
    1548:	e1a08000 	mov	r8, r0
    154c:	e10f7000 	mrs	r7, CPSR
    1550:	e38700c0 	orr	r0, r7, #192	; 0xc0
    1554:	e121f000 	msr	CPSR_c, r0
    1558:	e59fc0ac 	ldr	ip, [pc, #172]	; 160c <spin1_dma_transfer+0xc8>
    155c:	e59c4004 	ldr	r4, [ip, #4]
    1560:	e2845001 	add	r5, r4, #1
    1564:	e205500f 	and	r5, r5, #15
    1568:	e59c6000 	ldr	r6, [ip]
    156c:	e1560005 	cmp	r6, r5
    1570:	0a00001a 	beq	15e0 <spin1_dma_transfer+0x9c>
    1574:	e59fc094 	ldr	ip, [pc, #148]	; 1610 <spin1_dma_transfer+0xcc>
    1578:	e59c000c 	ldr	r0, [ip, #12]
    157c:	e2809001 	add	r9, r0, #1
    1580:	e58c900c 	str	r9, [ip, #12]
    1584:	e59dc018 	ldr	ip, [sp, #24]
    1588:	e38cc506 	orr	ip, ip, #25165824	; 0x1800000
    158c:	e18c3983 	orr	r3, ip, r3, lsl #19
    1590:	e084c104 	add	ip, r4, r4, lsl #2
    1594:	e59f9070 	ldr	r9, [pc, #112]	; 160c <spin1_dma_transfer+0xc8>
    1598:	e089c10c 	add	ip, r9, ip, lsl #2
    159c:	e58c0008 	str	r0, [ip, #8]
    15a0:	e58c800c 	str	r8, [ip, #12]
    15a4:	e58c1010 	str	r1, [ip, #16]
    15a8:	e58c2014 	str	r2, [ip, #20]
    15ac:	e58c3018 	str	r3, [ip, #24]
    15b0:	e3a0c203 	mov	ip, #805306368	; 0x30000000
    15b4:	e59cc014 	ldr	ip, [ip, #20]
    15b8:	e31c0004 	tst	ip, #4
    15bc:	1a000004 	bne	15d4 <spin1_dma_transfer+0x90>
    15c0:	e1540006 	cmp	r4, r6
    15c4:	03a0c203 	moveq	ip, #805306368	; 0x30000000
    15c8:	058c1004 	streq	r1, [ip, #4]
    15cc:	058c2008 	streq	r2, [ip, #8]
    15d0:	058c300c 	streq	r3, [ip, #12]
    15d4:	e59f3030 	ldr	r3, [pc, #48]	; 160c <spin1_dma_transfer+0xc8>
    15d8:	e5835004 	str	r5, [r3, #4]
    15dc:	ea000007 	b	1600 <spin1_dma_transfer+0xbc>
    15e0:	e59f302c 	ldr	r3, [pc, #44]	; 1614 <spin1_dma_transfer+0xd0>
    15e4:	e5932014 	ldr	r2, [r3, #20]
    15e8:	e3822002 	orr	r2, r2, #2
    15ec:	e5832014 	str	r2, [r3, #20]
    15f0:	e593201c 	ldr	r2, [r3, #28]
    15f4:	e2822001 	add	r2, r2, #1
    15f8:	e583201c 	str	r2, [r3, #28]
    15fc:	e3a00000 	mov	r0, #0
    1600:	e121f007 	msr	CPSR_c, r7
    1604:	e8bd03f0 	pop	{r4, r5, r6, r7, r8, r9}
    1608:	e12fff1e 	bx	lr
    160c:	004001e0 	.word	0x004001e0
    1610:	00400030 	.word	0x00400030
    1614:	004008c0 	.word	0x004008c0

00001618 <spin1_memcpy>:
    1618:	e3520000 	cmp	r2, #0
    161c:	012fff1e 	bxeq	lr
    1620:	e0802002 	add	r2, r0, r2
    1624:	e4d13001 	ldrb	r3, [r1], #1
    1628:	e4c03001 	strb	r3, [r0], #1
    162c:	e1500002 	cmp	r0, r2
    1630:	1afffffb 	bne	1624 <spin1_memcpy+0xc>
    1634:	e12fff1e 	bx	lr

00001638 <spin1_flush_rx_packet_queue>:
    1638:	e52d4004 	push	{r4}		; (str r4, [sp, #-4]!)
    163c:	e10f4000 	mrs	r4, CPSR
    1640:	e3843080 	orr	r3, r4, #128	; 0x80
    1644:	e121f003 	msr	CPSR_c, r3
    1648:	e59f3044 	ldr	r3, [pc, #68]	; 1694 <spin1_flush_rx_packet_queue+0x5c>
    164c:	e5930000 	ldr	r0, [r3]
    1650:	e5933004 	ldr	r3, [r3, #4]
    1654:	e2433001 	sub	r3, r3, #1
    1658:	e3a010c8 	mov	r1, #200	; 0xc8
    165c:	e59f2034 	ldr	r2, [pc, #52]	; 1698 <spin1_flush_rx_packet_queue+0x60>
    1660:	e0232391 	mla	r3, r1, r3, r2
    1664:	e3a02000 	mov	r2, #0
    1668:	e1a0c002 	mov	ip, r2
    166c:	e5931008 	ldr	r1, [r3, #8]
    1670:	e1510000 	cmp	r1, r0
    1674:	0583c008 	streq	ip, [r3, #8]
    1678:	e2822001 	add	r2, r2, #1
    167c:	e283300c 	add	r3, r3, #12
    1680:	e3520010 	cmp	r2, #16
    1684:	1afffff8 	bne	166c <spin1_flush_rx_packet_queue+0x34>
    1688:	e121f004 	msr	CPSR_c, r4
    168c:	e49d4004 	pop	{r4}		; (ldr r4, [sp], #4)
    1690:	e12fff1e 	bx	lr
    1694:	0040032c 	.word	0x0040032c
    1698:	004008ec 	.word	0x004008ec

0000169c <spin1_flush_tx_packet_queue>:
    169c:	e10f2000 	mrs	r2, CPSR
    16a0:	e3823080 	orr	r3, r2, #128	; 0x80
    16a4:	e121f003 	msr	CPSR_c, r3
    16a8:	e59f300c 	ldr	r3, [pc, #12]	; 16bc <spin1_flush_tx_packet_queue+0x20>
    16ac:	e5931004 	ldr	r1, [r3, #4]
    16b0:	e5831000 	str	r1, [r3]
    16b4:	e121f002 	msr	CPSR_c, r2
    16b8:	e12fff1e 	bx	lr
    16bc:	00400354 	.word	0x00400354

000016c0 <spin1_send_mc_packet>:
    16c0:	e92d00f0 	push	{r4, r5, r6, r7}
    16c4:	e10fc000 	mrs	ip, CPSR
    16c8:	e38c3080 	orr	r3, ip, #128	; 0x80
    16cc:	e121f003 	msr	CPSR_c, r3
    16d0:	e3a03201 	mov	r3, #268435456	; 0x10000000
    16d4:	e3a04000 	mov	r4, #0
    16d8:	e5834000 	str	r4, [r3]
    16dc:	e5933000 	ldr	r3, [r3]
    16e0:	e3130101 	tst	r3, #1073741824	; 0x40000000
    16e4:	0a00001c 	beq	175c <spin1_send_mc_packet+0x9c>
    16e8:	e59f4130 	ldr	r4, [pc, #304]	; 1820 <spin1_send_mc_packet+0x160>
    16ec:	e5943004 	ldr	r3, [r4, #4]
    16f0:	e2835001 	add	r5, r3, #1
    16f4:	e205500f 	and	r5, r5, #15
    16f8:	e5944000 	ldr	r4, [r4]
    16fc:	e1550004 	cmp	r5, r4
    1700:	1a000008 	bne	1728 <spin1_send_mc_packet+0x68>
    1704:	e59f3118 	ldr	r3, [pc, #280]	; 1824 <spin1_send_mc_packet+0x164>
    1708:	e5932014 	ldr	r2, [r3, #20]
    170c:	e3822004 	orr	r2, r2, #4
    1710:	e5832014 	str	r2, [r3, #20]
    1714:	e5932020 	ldr	r2, [r3, #32]
    1718:	e2822001 	add	r2, r2, #1
    171c:	e5832020 	str	r2, [r3, #32]
    1720:	e3a00000 	mov	r0, #0
    1724:	ea00003a 	b	1814 <spin1_send_mc_packet+0x154>
    1728:	e59f40f0 	ldr	r4, [pc, #240]	; 1820 <spin1_send_mc_packet+0x160>
    172c:	e1a06083 	lsl	r6, r3, #1
    1730:	e0867003 	add	r7, r6, r3
    1734:	e0847107 	add	r7, r4, r7, lsl #2
    1738:	e5870008 	str	r0, [r7, #8]
    173c:	e587100c 	str	r1, [r7, #12]
    1740:	e5872010 	str	r2, [r7, #16]
    1744:	e5845004 	str	r5, [r4, #4]
    1748:	e3a02b02 	mov	r2, #2048	; 0x800
    174c:	e3a0341f 	mov	r3, #520093696	; 0x1f000000
    1750:	e5832010 	str	r2, [r3, #16]
    1754:	e3a00001 	mov	r0, #1
    1758:	ea00002d 	b	1814 <spin1_send_mc_packet+0x154>
    175c:	e59f30bc 	ldr	r3, [pc, #188]	; 1820 <spin1_send_mc_packet+0x160>
    1760:	e5934004 	ldr	r4, [r3, #4]
    1764:	e2844001 	add	r4, r4, #1
    1768:	e204400f 	and	r4, r4, #15
    176c:	e5933000 	ldr	r3, [r3]
    1770:	e1540003 	cmp	r4, r3
    1774:	1a00000d 	bne	17b0 <spin1_send_mc_packet+0xf0>
    1778:	e59f50a0 	ldr	r5, [pc, #160]	; 1820 <spin1_send_mc_packet+0x160>
    177c:	e0843084 	add	r3, r4, r4, lsl #1
    1780:	e0853103 	add	r3, r5, r3, lsl #2
    1784:	e5936008 	ldr	r6, [r3, #8]
    1788:	e593700c 	ldr	r7, [r3, #12]
    178c:	e5933010 	ldr	r3, [r3, #16]
    1790:	e2844001 	add	r4, r4, #1
    1794:	e204400f 	and	r4, r4, #15
    1798:	e5854000 	str	r4, [r5]
    179c:	e3530000 	cmp	r3, #0
    17a0:	13a03201 	movne	r3, #268435456	; 0x10000000
    17a4:	15837004 	strne	r7, [r3, #4]
    17a8:	e3a03201 	mov	r3, #268435456	; 0x10000000
    17ac:	e5836008 	str	r6, [r3, #8]
    17b0:	e59f4068 	ldr	r4, [pc, #104]	; 1820 <spin1_send_mc_packet+0x160>
    17b4:	e5943004 	ldr	r3, [r4, #4]
    17b8:	e5944000 	ldr	r4, [r4]
    17bc:	e1540003 	cmp	r4, r3
    17c0:	1a000009 	bne	17ec <spin1_send_mc_packet+0x12c>
    17c4:	e3520000 	cmp	r2, #0
    17c8:	13a03201 	movne	r3, #268435456	; 0x10000000
    17cc:	15831004 	strne	r1, [r3, #4]
    17d0:	e3a03201 	mov	r3, #268435456	; 0x10000000
    17d4:	e5830008 	str	r0, [r3, #8]
    17d8:	e3a02b02 	mov	r2, #2048	; 0x800
    17dc:	e3a0341f 	mov	r3, #520093696	; 0x1f000000
    17e0:	e5832014 	str	r2, [r3, #20]
    17e4:	e3a00001 	mov	r0, #1
    17e8:	ea000009 	b	1814 <spin1_send_mc_packet+0x154>
    17ec:	e59f502c 	ldr	r5, [pc, #44]	; 1820 <spin1_send_mc_packet+0x160>
    17f0:	e0834083 	add	r4, r3, r3, lsl #1
    17f4:	e0854104 	add	r4, r5, r4, lsl #2
    17f8:	e5840008 	str	r0, [r4, #8]
    17fc:	e584100c 	str	r1, [r4, #12]
    1800:	e5842010 	str	r2, [r4, #16]
    1804:	e2833001 	add	r3, r3, #1
    1808:	e203300f 	and	r3, r3, #15
    180c:	e5853004 	str	r3, [r5, #4]
    1810:	e3a00001 	mov	r0, #1
    1814:	e121f00c 	msr	CPSR_c, ip
    1818:	e8bd00f0 	pop	{r4, r5, r6, r7}
    181c:	e12fff1e 	bx	lr
    1820:	00400354 	.word	0x00400354
    1824:	004008c0 	.word	0x004008c0

00001828 <spin1_start>:
    1828:	e92d47f0 	push	{r4, r5, r6, r7, r8, r9, sl, lr}
    182c:	e24dd010 	sub	sp, sp, #16
    1830:	e3a01000 	mov	r1, #0
    1834:	e3a03201 	mov	r3, #268435456	; 0x10000000
    1838:	e5831000 	str	r1, [r3]
    183c:	e3a03203 	mov	r3, #805306368	; 0x30000000
    1840:	e3a0203f 	mov	r2, #63	; 0x3f
    1844:	e5832010 	str	r2, [r3, #16]
    1848:	e3a0200d 	mov	r2, #13
    184c:	e5832010 	str	r2, [r3, #16]
    1850:	e3a02b03 	mov	r2, #3072	; 0xc00
    1854:	e5832018 	str	r2, [r3, #24]
    1858:	e59f359c 	ldr	r3, [pc, #1436]	; 1dfc <spin1_start+0x5d4>
    185c:	e5930010 	ldr	r0, [r3, #16]
    1860:	e3a03411 	mov	r3, #285212672	; 0x11000000
    1864:	e5831008 	str	r1, [r3, #8]
    1868:	e3a02001 	mov	r2, #1
    186c:	e583200c 	str	r2, [r3, #12]
    1870:	e3a02ef2 	mov	r2, #3872	; 0xf20
    1874:	e59f1584 	ldr	r1, [pc, #1412]	; 1e00 <spin1_start+0x5d8>
    1878:	e19120b2 	ldrh	r2, [r1, r2]
    187c:	e0020290 	mul	r2, r0, r2
    1880:	e5832000 	str	r2, [r3]
    1884:	e5832018 	str	r2, [r3, #24]
    1888:	e59f2574 	ldr	r2, [pc, #1396]	; 1e04 <spin1_start+0x5dc>
    188c:	e3a0341f 	mov	r3, #520093696	; 0x1f000000
    1890:	e5832014 	str	r2, [r3, #20]
    1894:	e59f356c 	ldr	r3, [pc, #1388]	; 1e08 <spin1_start+0x5e0>
    1898:	e5933004 	ldr	r3, [r3, #4]
    189c:	e3530004 	cmp	r3, #4
    18a0:	979ff103 	ldrls	pc, [pc, r3, lsl #2]
    18a4:	ea000017 	b	1908 <spin1_start+0xe0>
    18a8:	000018bc 	.word	0x000018bc
    18ac:	000018cc 	.word	0x000018cc
    18b0:	000018e0 	.word	0x000018e0
    18b4:	00001908 	.word	0x00001908
    18b8:	000018f4 	.word	0x000018f4
    18bc:	e3a00000 	mov	r0, #0
    18c0:	e59f3544 	ldr	r3, [pc, #1348]	; 1e0c <spin1_start+0x5e4>
    18c4:	e580303c 	str	r3, [r0, #60]	; 0x3c
    18c8:	ea00000f 	b	190c <spin1_start+0xe4>
    18cc:	e59f253c 	ldr	r2, [pc, #1340]	; 1e10 <spin1_start+0x5e8>
    18d0:	e3a03000 	mov	r3, #0
    18d4:	e583203c 	str	r2, [r3, #60]	; 0x3c
    18d8:	e3a00a01 	mov	r0, #4096	; 0x1000
    18dc:	ea00000a 	b	190c <spin1_start+0xe4>
    18e0:	e59f252c 	ldr	r2, [pc, #1324]	; 1e14 <spin1_start+0x5ec>
    18e4:	e3a03000 	mov	r3, #0
    18e8:	e583203c 	str	r2, [r3, #60]	; 0x3c
    18ec:	e3a00010 	mov	r0, #16
    18f0:	ea000005 	b	190c <spin1_start+0xe4>
    18f4:	e59f251c 	ldr	r2, [pc, #1308]	; 1e18 <spin1_start+0x5f0>
    18f8:	e3a03000 	mov	r3, #0
    18fc:	e583203c 	str	r2, [r3, #60]	; 0x3c
    1900:	e3a00002 	mov	r0, #2
    1904:	ea000000 	b	190c <spin1_start+0xe4>
    1908:	e3a00000 	mov	r0, #0
    190c:	e3a0341f 	mov	r3, #520093696	; 0x1f000000
    1910:	e59f1504 	ldr	r1, [pc, #1284]	; 1e1c <spin1_start+0x5f4>
    1914:	e5831108 	str	r1, [r3, #264]	; 0x108
    1918:	e3a0102c 	mov	r1, #44	; 0x2c
    191c:	e5831208 	str	r1, [r3, #520]	; 0x208
    1920:	e59f14f8 	ldr	r1, [pc, #1272]	; 1e20 <spin1_start+0x5f8>
    1924:	e5831104 	str	r1, [r3, #260]	; 0x104
    1928:	e3a01024 	mov	r1, #36	; 0x24
    192c:	e5831204 	str	r1, [r3, #516]	; 0x204
    1930:	e59f14ec 	ldr	r1, [pc, #1260]	; 1e24 <spin1_start+0x5fc>
    1934:	e5831110 	str	r1, [r3, #272]	; 0x110
    1938:	e3a0102b 	mov	r1, #43	; 0x2b
    193c:	e5831210 	str	r1, [r3, #528]	; 0x210
    1940:	e59f14e0 	ldr	r1, [pc, #1248]	; 1e28 <spin1_start+0x600>
    1944:	e5831114 	str	r1, [r3, #276]	; 0x114
    1948:	e3a01021 	mov	r1, #33	; 0x21
    194c:	e5831214 	str	r1, [r3, #532]	; 0x214
    1950:	e593200c 	ldr	r2, [r3, #12]
    1954:	e3c22a03 	bic	r2, r2, #12288	; 0x3000
    1958:	e3c22012 	bic	r2, r2, #18
    195c:	e1802002 	orr	r2, r0, r2
    1960:	e583200c 	str	r2, [r3, #12]
    1964:	e59f24c0 	ldr	r2, [pc, #1216]	; 1e2c <spin1_start+0x604>
    1968:	e5832010 	str	r2, [r3, #16]
    196c:	e59f3488 	ldr	r3, [pc, #1160]	; 1dfc <spin1_start+0x5d4>
    1970:	e3a02000 	mov	r2, #0
    1974:	e5832014 	str	r2, [r3, #20]
    1978:	e583201c 	str	r2, [r3, #28]
    197c:	e5832018 	str	r2, [r3, #24]
    1980:	e5832020 	str	r2, [r3, #32]
    1984:	e59f347c 	ldr	r3, [pc, #1148]	; 1e08 <spin1_start+0x5e0>
    1988:	e5933008 	ldr	r3, [r3, #8]
    198c:	e3530001 	cmp	r3, #1
    1990:	9a0000b0 	bls	1c58 <spin1_start+0x430>
    1994:	e59f3494 	ldr	r3, [pc, #1172]	; 1e30 <spin1_start+0x608>
    1998:	e5d33000 	ldrb	r3, [r3]
    199c:	e1530002 	cmp	r3, r2
    19a0:	0a00007a 	beq	1b90 <spin1_start+0x368>
    19a4:	e3e02041 	mvn	r2, #65	; 0x41
    19a8:	e59f3450 	ldr	r3, [pc, #1104]	; 1e00 <spin1_start+0x5d8>
    19ac:	e5c32fbc 	strb	r2, [r3, #4028]	; 0xfbc
    19b0:	e59f3444 	ldr	r3, [pc, #1092]	; 1dfc <spin1_start+0x5d4>
    19b4:	e5d33000 	ldrb	r3, [r3]
    19b8:	e3530000 	cmp	r3, #0
    19bc:	0a000043 	beq	1ad0 <spin1_start+0x2a8>
    19c0:	e59f046c 	ldr	r0, [pc, #1132]	; 1e34 <spin1_start+0x60c>
    19c4:	e3a01000 	mov	r1, #0
    19c8:	e1a02001 	mov	r2, r1
    19cc:	ebffff3b 	bl	16c0 <spin1_send_mc_packet>
    19d0:	e59f3428 	ldr	r3, [pc, #1064]	; 1e00 <spin1_start+0x5d8>
    19d4:	e5935f10 	ldr	r5, [r3, #3856]	; 0xf10
    19d8:	e1a01005 	mov	r1, r5
    19dc:	e1a04003 	mov	r4, r3
    19e0:	e59f8450 	ldr	r8, [pc, #1104]	; 1e38 <spin1_start+0x610>
    19e4:	e59f7450 	ldr	r7, [pc, #1104]	; 1e3c <spin1_start+0x614>
    19e8:	e59f640c 	ldr	r6, [pc, #1036]	; 1dfc <spin1_start+0x5d4>
    19ec:	e59fa44c 	ldr	sl, [pc, #1100]	; 1e40 <spin1_start+0x618>
    19f0:	e59f9410 	ldr	r9, [pc, #1040]	; 1e08 <spin1_start+0x5e0>
    19f4:	ea000008 	b	1a1c <spin1_start+0x1f4>
    19f8:	e5943f10 	ldr	r3, [r4, #3856]	; 0xf10
    19fc:	e0613003 	rsb	r3, r1, r3
    1a00:	e3530064 	cmp	r3, #100	; 0x64
    1a04:	9a000004 	bls	1a1c <spin1_start+0x1f4>
    1a08:	e59f0424 	ldr	r0, [pc, #1060]	; 1e34 <spin1_start+0x60c>
    1a0c:	e3a01000 	mov	r1, #0
    1a10:	e1a02001 	mov	r2, r1
    1a14:	ebffff29 	bl	16c0 <spin1_send_mc_packet>
    1a18:	e5941f10 	ldr	r1, [r4, #3856]	; 0xf10
    1a1c:	e5943f10 	ldr	r3, [r4, #3856]	; 0xf10
    1a20:	e0653003 	rsb	r3, r5, r3
    1a24:	e1530008 	cmp	r3, r8
    1a28:	8a000007 	bhi	1a4c <spin1_start+0x224>
    1a2c:	e5972000 	ldr	r2, [r7]
    1a30:	e5963008 	ldr	r3, [r6, #8]
    1a34:	e1520003 	cmp	r2, r3
    1a38:	3affffee 	bcc	19f8 <spin1_start+0x1d0>
    1a3c:	e59a2000 	ldr	r2, [sl]
    1a40:	e5993000 	ldr	r3, [r9]
    1a44:	e1520003 	cmp	r2, r3
    1a48:	3affffea 	bcc	19f8 <spin1_start+0x1d0>
    1a4c:	e59f33e8 	ldr	r3, [pc, #1000]	; 1e3c <spin1_start+0x614>
    1a50:	e5932000 	ldr	r2, [r3]
    1a54:	e59f33a0 	ldr	r3, [pc, #928]	; 1dfc <spin1_start+0x5d4>
    1a58:	e5933008 	ldr	r3, [r3, #8]
    1a5c:	e1520003 	cmp	r2, r3
    1a60:	1a000005 	bne	1a7c <spin1_start+0x254>
    1a64:	e59f33d4 	ldr	r3, [pc, #980]	; 1e40 <spin1_start+0x618>
    1a68:	e5932000 	ldr	r2, [r3]
    1a6c:	e59f3394 	ldr	r3, [pc, #916]	; 1e08 <spin1_start+0x5e0>
    1a70:	e5933000 	ldr	r3, [r3]
    1a74:	e1520003 	cmp	r2, r3
    1a78:	0a00000f 	beq	1abc <spin1_start+0x294>
    1a7c:	e59f3378 	ldr	r3, [pc, #888]	; 1dfc <spin1_start+0x5d4>
    1a80:	e5932014 	ldr	r2, [r3, #20]
    1a84:	e3822010 	orr	r2, r2, #16
    1a88:	e5832014 	str	r2, [r3, #20]
    1a8c:	e59f23a8 	ldr	r2, [pc, #936]	; 1e3c <spin1_start+0x614>
    1a90:	e5922000 	ldr	r2, [r2]
    1a94:	e5933008 	ldr	r3, [r3, #8]
    1a98:	e59f13a0 	ldr	r1, [pc, #928]	; 1e40 <spin1_start+0x618>
    1a9c:	e5910000 	ldr	r0, [r1]
    1aa0:	e59f1360 	ldr	r1, [pc, #864]	; 1e08 <spin1_start+0x5e0>
    1aa4:	e5911000 	ldr	r1, [r1]
    1aa8:	e58d0000 	str	r0, [sp]
    1aac:	e58d1004 	str	r1, [sp, #4]
    1ab0:	e3a00000 	mov	r0, #0
    1ab4:	e59f1388 	ldr	r1, [pc, #904]	; 1e44 <spin1_start+0x61c>
    1ab8:	eb0003e4 	bl	2a50 <io_printf>
    1abc:	e59f0384 	ldr	r0, [pc, #900]	; 1e48 <spin1_start+0x620>
    1ac0:	e3a01000 	mov	r1, #0
    1ac4:	e1a02001 	mov	r2, r1
    1ac8:	ebfffefc 	bl	16c0 <spin1_send_mc_packet>
    1acc:	ea000049 	b	1bf8 <spin1_start+0x3d0>
    1ad0:	e59f3328 	ldr	r3, [pc, #808]	; 1e00 <spin1_start+0x5d8>
    1ad4:	e5934f10 	ldr	r4, [r3, #3856]	; 0xf10
    1ad8:	e1a0e003 	mov	lr, r3
    1adc:	e59fc354 	ldr	ip, [pc, #852]	; 1e38 <spin1_start+0x610>
    1ae0:	e59f0354 	ldr	r0, [pc, #852]	; 1e3c <spin1_start+0x614>
    1ae4:	e59f1310 	ldr	r1, [pc, #784]	; 1dfc <spin1_start+0x5d4>
    1ae8:	e59e3f10 	ldr	r3, [lr, #3856]	; 0xf10
    1aec:	e0643003 	rsb	r3, r4, r3
    1af0:	e153000c 	cmp	r3, ip
    1af4:	8a000006 	bhi	1b14 <spin1_start+0x2ec>
    1af8:	e5902000 	ldr	r2, [r0]
    1afc:	e5913008 	ldr	r3, [r1, #8]
    1b00:	e1520003 	cmp	r2, r3
    1b04:	3afffff7 	bcc	1ae8 <spin1_start+0x2c0>
    1b08:	e591334c 	ldr	r3, [r1, #844]	; 0x34c
    1b0c:	e3530000 	cmp	r3, #0
    1b10:	0afffff4 	beq	1ae8 <spin1_start+0x2c0>
    1b14:	e59f3320 	ldr	r3, [pc, #800]	; 1e3c <spin1_start+0x614>
    1b18:	e5932000 	ldr	r2, [r3]
    1b1c:	e59f32d8 	ldr	r3, [pc, #728]	; 1dfc <spin1_start+0x5d4>
    1b20:	e5933008 	ldr	r3, [r3, #8]
    1b24:	e1520003 	cmp	r2, r3
    1b28:	0a000009 	beq	1b54 <spin1_start+0x32c>
    1b2c:	e59f32c8 	ldr	r3, [pc, #712]	; 1dfc <spin1_start+0x5d4>
    1b30:	e3a02010 	mov	r2, #16
    1b34:	e5832014 	str	r2, [r3, #20]
    1b38:	e59f22fc 	ldr	r2, [pc, #764]	; 1e3c <spin1_start+0x614>
    1b3c:	e5922000 	ldr	r2, [r2]
    1b40:	e5933008 	ldr	r3, [r3, #8]
    1b44:	e3a00000 	mov	r0, #0
    1b48:	e59f12fc 	ldr	r1, [pc, #764]	; 1e4c <spin1_start+0x624>
    1b4c:	eb0003bf 	bl	2a50 <io_printf>
    1b50:	ea000009 	b	1b7c <spin1_start+0x354>
    1b54:	e59f32a0 	ldr	r3, [pc, #672]	; 1dfc <spin1_start+0x5d4>
    1b58:	e593334c 	ldr	r3, [r3, #844]	; 0x34c
    1b5c:	e3530000 	cmp	r3, #0
    1b60:	1a000005 	bne	1b7c <spin1_start+0x354>
    1b64:	e3a02010 	mov	r2, #16
    1b68:	e59f328c 	ldr	r3, [pc, #652]	; 1dfc <spin1_start+0x5d4>
    1b6c:	e5832014 	str	r2, [r3, #20]
    1b70:	e3a00000 	mov	r0, #0
    1b74:	e59f12d4 	ldr	r1, [pc, #724]	; 1e50 <spin1_start+0x628>
    1b78:	eb0003b4 	bl	2a50 <io_printf>
    1b7c:	e59f02d0 	ldr	r0, [pc, #720]	; 1e54 <spin1_start+0x62c>
    1b80:	e3a01000 	mov	r1, #0
    1b84:	e1a02001 	mov	r2, r1
    1b88:	ebfffecc 	bl	16c0 <spin1_send_mc_packet>
    1b8c:	ea000019 	b	1bf8 <spin1_start+0x3d0>
    1b90:	e59f3268 	ldr	r3, [pc, #616]	; 1e00 <spin1_start+0x5d8>
    1b94:	e5930f10 	ldr	r0, [r3, #3856]	; 0xf10
    1b98:	e59f12b8 	ldr	r1, [pc, #696]	; 1e58 <spin1_start+0x630>
    1b9c:	e5932f10 	ldr	r2, [r3, #3856]	; 0xf10
    1ba0:	e0602002 	rsb	r2, r0, r2
    1ba4:	e1520001 	cmp	r2, r1
    1ba8:	8a000003 	bhi	1bbc <spin1_start+0x394>
    1bac:	e5d32fbc 	ldrb	r2, [r3, #4028]	; 0xfbc
    1bb0:	e20220ff 	and	r2, r2, #255	; 0xff
    1bb4:	e35200bd 	cmp	r2, #189	; 0xbd
    1bb8:	9afffff7 	bls	1b9c <spin1_start+0x374>
    1bbc:	e59f323c 	ldr	r3, [pc, #572]	; 1e00 <spin1_start+0x5d8>
    1bc0:	e5d33fbc 	ldrb	r3, [r3, #4028]	; 0xfbc
    1bc4:	e20330ff 	and	r3, r3, #255	; 0xff
    1bc8:	e35300bd 	cmp	r3, #189	; 0xbd
    1bcc:	8a000005 	bhi	1be8 <spin1_start+0x3c0>
    1bd0:	e3a02010 	mov	r2, #16
    1bd4:	e59f3220 	ldr	r3, [pc, #544]	; 1dfc <spin1_start+0x5d4>
    1bd8:	e5832014 	str	r2, [r3, #20]
    1bdc:	e3a00000 	mov	r0, #0
    1be0:	e59f1274 	ldr	r1, [pc, #628]	; 1e5c <spin1_start+0x634>
    1be4:	eb000399 	bl	2a50 <io_printf>
    1be8:	e59f0270 	ldr	r0, [pc, #624]	; 1e60 <spin1_start+0x638>
    1bec:	e3a01000 	mov	r1, #0
    1bf0:	e1a02001 	mov	r2, r1
    1bf4:	ebfffeb1 	bl	16c0 <spin1_send_mc_packet>
    1bf8:	e59f3200 	ldr	r3, [pc, #512]	; 1e00 <spin1_start+0x5d8>
    1bfc:	e593cf10 	ldr	ip, [r3, #3856]	; 0xf10
    1c00:	e1a00003 	mov	r0, r3
    1c04:	e59f124c 	ldr	r1, [pc, #588]	; 1e58 <spin1_start+0x630>
    1c08:	e59f21ec 	ldr	r2, [pc, #492]	; 1dfc <spin1_start+0x5d4>
    1c0c:	e5903f10 	ldr	r3, [r0, #3856]	; 0xf10
    1c10:	e06c3003 	rsb	r3, ip, r3
    1c14:	e1530001 	cmp	r3, r1
    1c18:	8a000002 	bhi	1c28 <spin1_start+0x400>
    1c1c:	e5923350 	ldr	r3, [r2, #848]	; 0x350
    1c20:	e3530000 	cmp	r3, #0
    1c24:	0afffff8 	beq	1c0c <spin1_start+0x3e4>
    1c28:	e59f31cc 	ldr	r3, [pc, #460]	; 1dfc <spin1_start+0x5d4>
    1c2c:	e5933350 	ldr	r3, [r3, #848]	; 0x350
    1c30:	e3530000 	cmp	r3, #0
    1c34:	1a000011 	bne	1c80 <spin1_start+0x458>
    1c38:	e59f31bc 	ldr	r3, [pc, #444]	; 1dfc <spin1_start+0x5d4>
    1c3c:	e5932014 	ldr	r2, [r3, #20]
    1c40:	e3822010 	orr	r2, r2, #16
    1c44:	e5832014 	str	r2, [r3, #20]
    1c48:	e3a00000 	mov	r0, #0
    1c4c:	e59f1210 	ldr	r1, [pc, #528]	; 1e64 <spin1_start+0x63c>
    1c50:	eb00037e 	bl	2a50 <io_printf>
    1c54:	ea000009 	b	1c80 <spin1_start+0x458>
    1c58:	e59f3208 	ldr	r3, [pc, #520]	; 1e68 <spin1_start+0x640>
    1c5c:	e5933004 	ldr	r3, [r3, #4]
    1c60:	e3530000 	cmp	r3, #0
    1c64:	b3a0341f 	movlt	r3, #520093696	; 0x1f000000
    1c68:	b593200c 	ldrlt	r2, [r3, #12]
    1c6c:	b3822040 	orrlt	r2, r2, #64	; 0x40
    1c70:	b583200c 	strlt	r2, [r3, #12]
    1c74:	a59f21f0 	ldrge	r2, [pc, #496]	; 1e6c <spin1_start+0x644>
    1c78:	a3a0341f 	movge	r3, #520093696	; 0x1f000000
    1c7c:	a583210c 	strge	r2, [r3, #268]	; 0x10c
    1c80:	e59f3174 	ldr	r3, [pc, #372]	; 1dfc <spin1_start+0x5d4>
    1c84:	e5933010 	ldr	r3, [r3, #16]
    1c88:	e3530000 	cmp	r3, #0
    1c8c:	13a020e2 	movne	r2, #226	; 0xe2
    1c90:	13a03411 	movne	r3, #285212672	; 0x11000000
    1c94:	15832008 	strne	r2, [r3, #8]
    1c98:	e59f315c 	ldr	r3, [pc, #348]	; 1dfc <spin1_start+0x5d4>
    1c9c:	e3a02000 	mov	r2, #0
    1ca0:	e583200c 	str	r2, [r3, #12]
    1ca4:	e3a02001 	mov	r2, #1
    1ca8:	e5832028 	str	r2, [r3, #40]	; 0x28
    1cac:	e1a05003 	mov	r5, r3
    1cb0:	e3a07000 	mov	r7, #0
    1cb4:	e283402c 	add	r4, r3, #44	; 0x2c
    1cb8:	e3a060c8 	mov	r6, #200	; 0xc8
    1cbc:	ea000028 	b	1d64 <spin1_start+0x53c>
    1cc0:	e10fe000 	mrs	lr, CPSR
    1cc4:	e38e30c0 	orr	r3, lr, #192	; 0xc0
    1cc8:	e121f003 	msr	CPSR_c, r3
    1ccc:	e1a03007 	mov	r3, r7
    1cd0:	ea000019 	b	1d3c <spin1_start+0x514>
    1cd4:	e00c0396 	mul	ip, r6, r3
    1cd8:	e084100c 	add	r1, r4, ip
    1cdc:	e2833001 	add	r3, r3, #1
    1ce0:	e794200c 	ldr	r2, [r4, ip]
    1ce4:	e5910004 	ldr	r0, [r1, #4]
    1ce8:	e1520000 	cmp	r2, r0
    1cec:	0a000012 	beq	1d3c <spin1_start+0x514>
    1cf0:	e0820082 	add	r0, r2, r2, lsl #1
    1cf4:	e0811100 	add	r1, r1, r0, lsl #2
    1cf8:	e5910008 	ldr	r0, [r1, #8]
    1cfc:	e58d000c 	str	r0, [sp, #12]
    1d00:	e591000c 	ldr	r0, [r1, #12]
    1d04:	e5911010 	ldr	r1, [r1, #16]
    1d08:	e2822001 	add	r2, r2, #1
    1d0c:	e202200f 	and	r2, r2, #15
    1d10:	e784200c 	str	r2, [r4, ip]
    1d14:	e59d200c 	ldr	r2, [sp, #12]
    1d18:	e3520000 	cmp	r2, #0
    1d1c:	0a000006 	beq	1d3c <spin1_start+0x514>
    1d20:	e121f00e 	msr	CPSR_c, lr
    1d24:	e59d300c 	ldr	r3, [sp, #12]
    1d28:	e12fff33 	blx	r3
    1d2c:	e10fe000 	mrs	lr, CPSR
    1d30:	e38e30c0 	orr	r3, lr, #192	; 0xc0
    1d34:	e121f003 	msr	CPSR_c, r3
    1d38:	e1a03007 	mov	r3, r7
    1d3c:	e5952028 	ldr	r2, [r5, #40]	; 0x28
    1d40:	e3520000 	cmp	r2, #0
    1d44:	0a000001 	beq	1d50 <spin1_start+0x528>
    1d48:	e3530003 	cmp	r3, #3
    1d4c:	9affffe0 	bls	1cd4 <spin1_start+0x4ac>
    1d50:	e5953028 	ldr	r3, [r5, #40]	; 0x28
    1d54:	e3530000 	cmp	r3, #0
    1d58:	0a000001 	beq	1d64 <spin1_start+0x53c>
    1d5c:	ee070f90 	mcr	15, 0, r0, cr7, cr0, {4}
    1d60:	e121f00e 	msr	CPSR_c, lr
    1d64:	e5953028 	ldr	r3, [r5, #40]	; 0x28
    1d68:	e3530000 	cmp	r3, #0
    1d6c:	1affffd3 	bne	1cc0 <spin1_start+0x498>
    1d70:	ebfffd9b 	bl	13e4 <clean_up>
    1d74:	e10f3000 	mrs	r3, CPSR
    1d78:	e3c32080 	bic	r2, r3, #128	; 0x80
    1d7c:	e121f002 	msr	CPSR_c, r2
    1d80:	e59f4074 	ldr	r4, [pc, #116]	; 1dfc <spin1_start+0x5d4>
    1d84:	e5942024 	ldr	r2, [r4, #36]	; 0x24
    1d88:	e59f30e0 	ldr	r3, [pc, #224]	; 1e70 <spin1_start+0x648>
    1d8c:	e5832000 	str	r2, [r3]
    1d90:	e5942014 	ldr	r2, [r4, #20]
    1d94:	e5832004 	str	r2, [r3, #4]
    1d98:	e3a024f1 	mov	r2, #-251658240	; 0xf1000000
    1d9c:	e5921304 	ldr	r1, [r2, #772]	; 0x304
    1da0:	e5831008 	str	r1, [r3, #8]
    1da4:	e5922314 	ldr	r2, [r2, #788]	; 0x314
    1da8:	e583200c 	str	r2, [r3, #12]
    1dac:	e59f20c0 	ldr	r2, [pc, #192]	; 1e74 <spin1_start+0x64c>
    1db0:	e5922000 	ldr	r2, [r2]
    1db4:	e5832010 	str	r2, [r3, #16]
    1db8:	e59f2048 	ldr	r2, [pc, #72]	; 1e08 <spin1_start+0x5e0>
    1dbc:	e592200c 	ldr	r2, [r2, #12]
    1dc0:	e2422001 	sub	r2, r2, #1
    1dc4:	e5832014 	str	r2, [r3, #20]
    1dc8:	e3a02203 	mov	r2, #805306368	; 0x30000000
    1dcc:	e5922040 	ldr	r2, [r2, #64]	; 0x40
    1dd0:	e5832018 	str	r2, [r3, #24]
    1dd4:	e594201c 	ldr	r2, [r4, #28]
    1dd8:	e583201c 	str	r2, [r3, #28]
    1ddc:	e5942018 	ldr	r2, [r4, #24]
    1de0:	e5832020 	str	r2, [r3, #32]
    1de4:	e5942020 	ldr	r2, [r4, #32]
    1de8:	e5832024 	str	r2, [r3, #36]	; 0x24
    1dec:	ebfffd9f 	bl	1470 <report_warns>
    1df0:	e5940024 	ldr	r0, [r4, #36]	; 0x24
    1df4:	e28dd010 	add	sp, sp, #16
    1df8:	e8bd87f0 	pop	{r4, r5, r6, r7, r8, r9, sl, pc}
    1dfc:	004008c0 	.word	0x004008c0
    1e00:	f5007000 	.word	0xf5007000
    1e04:	00003012 	.word	0x00003012
    1e08:	00400030 	.word	0x00400030
    1e0c:	00000d7c 	.word	0x00000d7c
    1e10:	00000da4 	.word	0x00000da4
    1e14:	00000e34 	.word	0x00000e34
    1e18:	00000e78 	.word	0x00000e78
    1e1c:	00000c0c 	.word	0x00000c0c
    1e20:	00000cb4 	.word	0x00000cb4
    1e24:	00000b44 	.word	0x00000b44
    1e28:	00000d14 	.word	0x00000d14
    1e2c:	00001012 	.word	0x00001012
    1e30:	004001d8 	.word	0x004001d8
    1e34:	0ffff801 	.word	0x0ffff801
    1e38:	000061a7 	.word	0x000061a7
    1e3c:	00400194 	.word	0x00400194
    1e40:	00400198 	.word	0x00400198
    1e44:	00002d98 	.word	0x00002d98
    1e48:	0ffff800 	.word	0x0ffff800
    1e4c:	00002dd8 	.word	0x00002dd8
    1e50:	00002e10 	.word	0x00002e10
    1e54:	0ffff803 	.word	0x0ffff803
    1e58:	0000c34f 	.word	0x0000c34f
    1e5c:	00002e48 	.word	0x00002e48
    1e60:	0ffff802 	.word	0x0ffff802
    1e64:	00002e80 	.word	0x00002e80
    1e68:	0040032c 	.word	0x0040032c
    1e6c:	00000a14 	.word	0x00000a14
    1e70:	004001a0 	.word	0x004001a0
    1e74:	004001dc 	.word	0x004001dc

00001e78 <send_mc_packet_fulfil>:
    1e78:	e3520000 	cmp	r2, #0
    1e7c:	13a03201 	movne	r3, #268435456	; 0x10000000
    1e80:	15831004 	strne	r1, [r3, #4]
    1e84:	e3a03201 	mov	r3, #268435456	; 0x10000000
    1e88:	e5830008 	str	r0, [r3, #8]
    1e8c:	e12fff1e 	bx	lr

00001e90 <spin1_irq_disable>:
    1e90:	e10f0000 	mrs	r0, CPSR
    1e94:	e3803080 	orr	r3, r0, #128	; 0x80
    1e98:	e121f003 	msr	CPSR_c, r3
    1e9c:	e12fff1e 	bx	lr

00001ea0 <spin1_mode_restore>:
    1ea0:	e121f000 	msr	CPSR_c, r0
    1ea4:	e12fff1e 	bx	lr

00001ea8 <irq_enable>:
    1ea8:	e10f0000 	mrs	r0, CPSR
    1eac:	e3c03080 	bic	r3, r0, #128	; 0x80
    1eb0:	e121f003 	msr	CPSR_c, r3
    1eb4:	e12fff1e 	bx	lr

00001eb8 <wait_for_irq>:
    1eb8:	ee070f90 	mcr	15, 0, r0, cr7, cr0, {4}
    1ebc:	e12fff1e 	bx	lr

00001ec0 <spin1_fiq_disable>:
    1ec0:	e10f0000 	mrs	r0, CPSR
    1ec4:	e3803040 	orr	r3, r0, #64	; 0x40
    1ec8:	e121f003 	msr	CPSR_c, r3
    1ecc:	e12fff1e 	bx	lr

00001ed0 <spin1_int_disable>:
    1ed0:	e10f0000 	mrs	r0, CPSR
    1ed4:	e38030c0 	orr	r3, r0, #192	; 0xc0
    1ed8:	e121f003 	msr	CPSR_c, r3
    1edc:	e12fff1e 	bx	lr

00001ee0 <spin1_get_id>:
    1ee0:	e3a03c0f 	mov	r3, #3840	; 0xf00
    1ee4:	e59f2010 	ldr	r2, [pc, #16]	; 1efc <spin1_get_id+0x1c>
    1ee8:	e19200b3 	ldrh	r0, [r2, r3]
    1eec:	e59f300c 	ldr	r3, [pc, #12]	; 1f00 <spin1_get_id+0x20>
    1ef0:	e5933000 	ldr	r3, [r3]
    1ef4:	e1830280 	orr	r0, r3, r0, lsl #5
    1ef8:	e12fff1e 	bx	lr
    1efc:	f5007000 	.word	0xf5007000
    1f00:	004001d4 	.word	0x004001d4

00001f04 <spin1_get_core_id>:
    1f04:	e59f3004 	ldr	r3, [pc, #4]	; 1f10 <spin1_get_core_id+0xc>
    1f08:	e5930000 	ldr	r0, [r3]
    1f0c:	e12fff1e 	bx	lr
    1f10:	004001d4 	.word	0x004001d4

00001f14 <spin1_get_chip_id>:
    1f14:	e3a03c0f 	mov	r3, #3840	; 0xf00
    1f18:	e59f2004 	ldr	r2, [pc, #4]	; 1f24 <spin1_get_chip_id+0x10>
    1f1c:	e19200b3 	ldrh	r0, [r2, r3]
    1f20:	e12fff1e 	bx	lr
    1f24:	f5007000 	.word	0xf5007000

00001f28 <spin1_set_mc_table_entry>:
    1f28:	e92d01f0 	push	{r4, r5, r6, r7, r8}
    1f2c:	e3500ffa 	cmp	r0, #1000	; 0x3e8
    1f30:	23a00000 	movcs	r0, #0
    1f34:	2a00001a 	bcs	1fa4 <spin1_set_mc_table_entry+0x7c>
    1f38:	e203503f 	and	r5, r3, #63	; 0x3f
    1f3c:	e59fc068 	ldr	ip, [pc, #104]	; 1fac <spin1_set_mc_table_entry+0x84>
    1f40:	e5dc6fbd 	ldrb	r6, [ip, #4029]	; 0xfbd
    1f44:	e3560000 	cmp	r6, #0
    1f48:	0a00000a 	beq	1f78 <spin1_set_mc_table_entry+0x50>
    1f4c:	e2866006 	add	r6, r6, #6
    1f50:	e3a0c006 	mov	ip, #6
    1f54:	e3a04001 	mov	r4, #1
    1f58:	e59f8050 	ldr	r8, [pc, #80]	; 1fb0 <spin1_set_mc_table_entry+0x88>
    1f5c:	e0137c14 	ands	r7, r3, r4, lsl ip
    1f60:	17dc7008 	ldrbne	r7, [ip, r8]
    1f64:	12877006 	addne	r7, r7, #6
    1f68:	11855714 	orrne	r5, r5, r4, lsl r7
    1f6c:	e28cc001 	add	ip, ip, #1
    1f70:	e15c0006 	cmp	ip, r6
    1f74:	1afffff8 	bne	1f5c <spin1_set_mc_table_entry+0x34>
    1f78:	e2800018 	add	r0, r0, #24
    1f7c:	e1a00100 	lsl	r0, r0, #2
    1f80:	e28004f1 	add	r0, r0, #-251658240	; 0xf1000000
    1f84:	e2803902 	add	r3, r0, #32768	; 0x8000
    1f88:	e5831000 	str	r1, [r3]
    1f8c:	e2803903 	add	r3, r0, #49152	; 0xc000
    1f90:	e5832000 	str	r2, [r3]
    1f94:	e2800901 	add	r0, r0, #16384	; 0x4000
    1f98:	e5805000 	str	r5, [r0]
    1f9c:	e3a00001 	mov	r0, #1
    1fa0:	eaffffff 	b	1fa4 <spin1_set_mc_table_entry+0x7c>
    1fa4:	e8bd01f0 	pop	{r4, r5, r6, r7, r8}
    1fa8:	e12fff1e 	bx	lr
    1fac:	f5007000 	.word	0xf5007000
    1fb0:	f5007fa2 	.word	0xf5007fa2

00001fb4 <spin1_led_control>:
    1fb4:	e92d0070 	push	{r4, r5, r6}
    1fb8:	e59f3068 	ldr	r3, [pc, #104]	; 2028 <IPTAG_ARP+0x28>
    1fbc:	e5d33f0a 	ldrb	r3, [r3, #3850]	; 0xf0a
    1fc0:	e3530000 	cmp	r3, #0
    1fc4:	03a05003 	moveq	r5, #3
    1fc8:	13a05002 	movne	r5, #2
    1fcc:	e59f3058 	ldr	r3, [pc, #88]	; 202c <IPTAG_ARP+0x2c>
    1fd0:	e2831008 	add	r1, r3, #8
    1fd4:	11a01003 	movne	r1, r3
    1fd8:	e3a03001 	mov	r3, #1
    1fdc:	e3a064f2 	mov	r6, #-234881024	; 0xf2000000
    1fe0:	e1f140b2 	ldrh	r4, [r1, #2]!
    1fe4:	e2002001 	and	r2, r0, #1
    1fe8:	e200c002 	and	ip, r0, #2
    1fec:	e35c0000 	cmp	ip, #0
    1ff0:	e1a00120 	lsr	r0, r0, #2
    1ff4:	1a000003 	bne	2008 <IPTAG_ARP+0x8>
    1ff8:	e3520000 	cmp	r2, #0
    1ffc:	0a000004 	beq	2014 <IPTAG_ARP+0x14>
    2000:	e5962040 	ldr	r2, [r6, #64]	; 0x40
    2004:	e0042002 	and	r2, r4, r2
    2008:	e3520000 	cmp	r2, #0
    200c:	1586404c 	strne	r4, [r6, #76]	; 0x4c
    2010:	05864048 	streq	r4, [r6, #72]	; 0x48
    2014:	e2833001 	add	r3, r3, #1
    2018:	e1550003 	cmp	r5, r3
    201c:	2affffef 	bcs	1fe0 <spin1_led_control+0x2c>
    2020:	e8bd0070 	pop	{r4, r5, r6}
    2024:	e12fff1e 	bx	lr
    2028:	f5007000 	.word	0xf5007000
    202c:	00002cd4 	.word	0x00002cd4

00002030 <spin1_kill>:
    2030:	e92d4010 	push	{r4, lr}
    2034:	e1a04000 	mov	r4, r0
    2038:	e59f2020 	ldr	r2, [pc, #32]	; 2060 <spin1_kill+0x30>
    203c:	e3a0341f 	mov	r3, #520093696	; 0x1f000000
    2040:	e5832014 	str	r2, [r3, #20]
    2044:	e3a0000c 	mov	r0, #12
    2048:	ebffffd9 	bl	1fb4 <spin1_led_control>
    204c:	e59f3010 	ldr	r3, [pc, #16]	; 2064 <spin1_kill+0x34>
    2050:	e5834024 	str	r4, [r3, #36]	; 0x24
    2054:	e3a02000 	mov	r2, #0
    2058:	e5832028 	str	r2, [r3, #40]	; 0x28
    205c:	e8bd8010 	pop	{r4, pc}
    2060:	00003052 	.word	0x00003052
    2064:	004008c0 	.word	0x004008c0

00002068 <spin1_malloc>:
    2068:	e59f3028 	ldr	r3, [pc, #40]	; 2098 <spin1_malloc+0x30>
    206c:	e5933010 	ldr	r3, [r3, #16]
    2070:	e0830000 	add	r0, r3, r0
    2074:	e59f2020 	ldr	r2, [pc, #32]	; 209c <spin1_malloc+0x34>
    2078:	e1500002 	cmp	r0, r2
    207c:	92800003 	addls	r0, r0, #3
    2080:	93c00003 	bicls	r0, r0, #3
    2084:	959f200c 	ldrls	r2, [pc, #12]	; 2098 <spin1_malloc+0x30>
    2088:	95820010 	strls	r0, [r2, #16]
    208c:	83a03000 	movhi	r3, #0
    2090:	e1a00003 	mov	r0, r3
    2094:	e12fff1e 	bx	lr
    2098:	00400030 	.word	0x00400030
    209c:	0040f000 	.word	0x0040f000

000020a0 <schedule_sysmode>:
    20a0:	e92d40f8 	push	{r3, r4, r5, r6, r7, lr}
    20a4:	e59f3098 	ldr	r3, [pc, #152]	; 2144 <schedule_sysmode+0xa4>
    20a8:	e0833180 	add	r3, r3, r0, lsl #3
    20ac:	e5933004 	ldr	r3, [r3, #4]
    20b0:	e3530000 	cmp	r3, #0
    20b4:	ca000005 	bgt	20d0 <schedule_sysmode+0x30>
    20b8:	e59f3084 	ldr	r3, [pc, #132]	; 2144 <schedule_sysmode+0xa4>
    20bc:	e7933180 	ldr	r3, [r3, r0, lsl #3]
    20c0:	e1a00001 	mov	r0, r1
    20c4:	e1a01002 	mov	r1, r2
    20c8:	e12fff33 	blx	r3
    20cc:	e8bd80f8 	pop	{r3, r4, r5, r6, r7, pc}
    20d0:	e59f5070 	ldr	r5, [pc, #112]	; 2148 <schedule_sysmode+0xa8>
    20d4:	e2433001 	sub	r3, r3, #1
    20d8:	e3a040c8 	mov	r4, #200	; 0xc8
    20dc:	e0040493 	mul	r4, r3, r4
    20e0:	e0853004 	add	r3, r5, r4
    20e4:	e593c004 	ldr	ip, [r3, #4]
    20e8:	e28c6001 	add	r6, ip, #1
    20ec:	e206600f 	and	r6, r6, #15
    20f0:	e7954004 	ldr	r4, [r5, r4]
    20f4:	e1560004 	cmp	r6, r4
    20f8:	0a000009 	beq	2124 <schedule_sysmode+0x84>
    20fc:	e1a0408c 	lsl	r4, ip, #1
    2100:	e084500c 	add	r5, r4, ip
    2104:	e0835105 	add	r5, r3, r5, lsl #2
    2108:	e59f7034 	ldr	r7, [pc, #52]	; 2144 <schedule_sysmode+0xa4>
    210c:	e7970180 	ldr	r0, [r7, r0, lsl #3]
    2110:	e5850008 	str	r0, [r5, #8]
    2114:	e585100c 	str	r1, [r5, #12]
    2118:	e5852010 	str	r2, [r5, #16]
    211c:	e5836004 	str	r6, [r3, #4]
    2120:	e8bd80f8 	pop	{r3, r4, r5, r6, r7, pc}
    2124:	e59f3020 	ldr	r3, [pc, #32]	; 214c <schedule_sysmode+0xac>
    2128:	e5932014 	ldr	r2, [r3, #20]
    212c:	e3822001 	orr	r2, r2, #1
    2130:	e5832014 	str	r2, [r3, #20]
    2134:	e5932018 	ldr	r2, [r3, #24]
    2138:	e2822001 	add	r2, r2, #1
    213c:	e5832018 	str	r2, [r3, #24]
    2140:	e8bd80f8 	pop	{r3, r4, r5, r6, r7, pc}
    2144:	0040032c 	.word	0x0040032c
    2148:	004008ec 	.word	0x004008ec
    214c:	004008c0 	.word	0x004008c0

00002150 <spin1_schedule_callback>:
    2150:	e92d00f0 	push	{r4, r5, r6, r7}
    2154:	e10f7000 	mrs	r7, CPSR
    2158:	e387c080 	orr	ip, r7, #128	; 0x80
    215c:	e121f00c 	msr	CPSR_c, ip
    2160:	e59f5074 	ldr	r5, [pc, #116]	; 21dc <spin1_schedule_callback+0x8c>
    2164:	e2433001 	sub	r3, r3, #1
    2168:	e3a0c0c8 	mov	ip, #200	; 0xc8
    216c:	e003039c 	mul	r3, ip, r3
    2170:	e085c003 	add	ip, r5, r3
    2174:	e59c4004 	ldr	r4, [ip, #4]
    2178:	e2846001 	add	r6, r4, #1
    217c:	e206600f 	and	r6, r6, #15
    2180:	e7953003 	ldr	r3, [r5, r3]
    2184:	e1560003 	cmp	r6, r3
    2188:	0a000008 	beq	21b0 <spin1_schedule_callback+0x60>
    218c:	e1a03084 	lsl	r3, r4, #1
    2190:	e0835004 	add	r5, r3, r4
    2194:	e08c5105 	add	r5, ip, r5, lsl #2
    2198:	e5850008 	str	r0, [r5, #8]
    219c:	e585100c 	str	r1, [r5, #12]
    21a0:	e5852010 	str	r2, [r5, #16]
    21a4:	e58c6004 	str	r6, [ip, #4]
    21a8:	e3a00001 	mov	r0, #1
    21ac:	ea000007 	b	21d0 <spin1_schedule_callback+0x80>
    21b0:	e59f3028 	ldr	r3, [pc, #40]	; 21e0 <spin1_schedule_callback+0x90>
    21b4:	e5932014 	ldr	r2, [r3, #20]
    21b8:	e3822001 	orr	r2, r2, #1
    21bc:	e5832014 	str	r2, [r3, #20]
    21c0:	e5932018 	ldr	r2, [r3, #24]
    21c4:	e2822001 	add	r2, r2, #1
    21c8:	e5832018 	str	r2, [r3, #24]
    21cc:	e3a00000 	mov	r0, #0
    21d0:	e121f007 	msr	CPSR_c, r7
    21d4:	e8bd00f0 	pop	{r4, r5, r6, r7}
    21d8:	e12fff1e 	bx	lr
    21dc:	004008ec 	.word	0x004008ec
    21e0:	004008c0 	.word	0x004008c0

000021e4 <spin1_trigger_user_event>:
    21e4:	e59f303c 	ldr	r3, [pc, #60]	; 2228 <spin1_trigger_user_event+0x44>
    21e8:	e5d33354 	ldrb	r3, [r3, #852]	; 0x354
    21ec:	e3530000 	cmp	r3, #0
    21f0:	1a00000a 	bne	2220 <spin1_trigger_user_event+0x3c>
    21f4:	e59f3030 	ldr	r3, [pc, #48]	; 222c <spin1_trigger_user_event+0x48>
    21f8:	e5830000 	str	r0, [r3]
    21fc:	e59f302c 	ldr	r3, [pc, #44]	; 2230 <spin1_trigger_user_event+0x4c>
    2200:	e5831000 	str	r1, [r3]
    2204:	e3a00001 	mov	r0, #1
    2208:	e59f3018 	ldr	r3, [pc, #24]	; 2228 <spin1_trigger_user_event+0x44>
    220c:	e5c30354 	strb	r0, [r3, #852]	; 0x354
    2210:	e3a02002 	mov	r2, #2
    2214:	e3a0341f 	mov	r3, #520093696	; 0x1f000000
    2218:	e5832018 	str	r2, [r3, #24]
    221c:	e12fff1e 	bx	lr
    2220:	e3a00000 	mov	r0, #0
    2224:	e12fff1e 	bx	lr
    2228:	004008c0 	.word	0x004008c0
    222c:	00400328 	.word	0x00400328
    2230:	004001d0 	.word	0x004001d0

00002234 <rts_init>:
    2234:	e52de004 	push	{lr}		; (str lr, [sp, #-4]!)
    2238:	e24dd00c 	sub	sp, sp, #12
    223c:	e3a034f2 	mov	r3, #-234881024	; 0xf2000000
    2240:	e5933110 	ldr	r3, [r3, #272]	; 0x110
    2244:	e1e03003 	mvn	r3, r3
    2248:	e1a03fa3 	lsr	r3, r3, #31
    224c:	e59f21d4 	ldr	r2, [pc, #468]	; 2428 <rts_init+0x1f4>
    2250:	e5c23000 	strb	r3, [r2]
    2254:	e3530000 	cmp	r3, #0
    2258:	0a00003e 	beq	2358 <rts_init+0x124>
    225c:	e59f31c8 	ldr	r3, [pc, #456]	; 242c <rts_init+0x1f8>
    2260:	e3e0c000 	mvn	ip, #0
    2264:	e3a00000 	mov	r0, #0
    2268:	e59f11c0 	ldr	r1, [pc, #448]	; 2430 <rts_init+0x1fc>
    226c:	e583c000 	str	ip, [r3]
    2270:	e2832901 	add	r2, r3, #16384	; 0x4000
    2274:	e5820000 	str	r0, [r2]
    2278:	e2833004 	add	r3, r3, #4
    227c:	e1530001 	cmp	r3, r1
    2280:	1afffff9 	bne	226c <rts_init+0x38>
    2284:	e59f21a8 	ldr	r2, [pc, #424]	; 2434 <rts_init+0x200>
    2288:	e59f319c 	ldr	r3, [pc, #412]	; 242c <rts_init+0x1f8>
    228c:	e5832008 	str	r2, [r3, #8]
    2290:	e3e03000 	mvn	r3, #0
    2294:	e59f119c 	ldr	r1, [pc, #412]	; 2438 <rts_init+0x204>
    2298:	e5813008 	str	r3, [r1, #8]
    229c:	e59f0198 	ldr	r0, [pc, #408]	; 243c <rts_init+0x208>
    22a0:	e590e000 	ldr	lr, [r0]
    22a4:	e28ee006 	add	lr, lr, #6
    22a8:	e3a01001 	mov	r1, #1
    22ac:	e1a0ee11 	lsl	lr, r1, lr
    22b0:	e59fc188 	ldr	ip, [pc, #392]	; 2440 <rts_init+0x20c>
    22b4:	e58ce008 	str	lr, [ip, #8]
    22b8:	e3e0e052 	mvn	lr, #82	; 0x52
    22bc:	e59fc180 	ldr	ip, [pc, #384]	; 2444 <rts_init+0x210>
    22c0:	e5ccefbc 	strb	lr, [ip, #4028]	; 0xfbc
    22c4:	e59fc17c 	ldr	ip, [pc, #380]	; 2448 <rts_init+0x214>
    22c8:	e58c1000 	str	r1, [ip]
    22cc:	e59fc178 	ldr	ip, [pc, #376]	; 244c <rts_init+0x218>
    22d0:	e58c1000 	str	r1, [ip]
    22d4:	e5900000 	ldr	r0, [r0]
    22d8:	e2800006 	add	r0, r0, #6
    22dc:	e1a01011 	lsl	r1, r1, r0
    22e0:	e58d1000 	str	r1, [sp]
    22e4:	e3a00000 	mov	r0, #0
    22e8:	e59f1160 	ldr	r1, [pc, #352]	; 2450 <rts_init+0x21c>
    22ec:	eb0001d7 	bl	2a50 <io_printf>
    22f0:	e3a034f1 	mov	r3, #-251658240	; 0xf1000000
    22f4:	e3a02000 	mov	r2, #0
    22f8:	e583202c 	str	r2, [r3, #44]	; 0x2c
    22fc:	e5832300 	str	r2, [r3, #768]	; 0x300
    2300:	e59f114c 	ldr	r1, [pc, #332]	; 2454 <rts_init+0x220>
    2304:	e5831200 	str	r1, [r3, #512]	; 0x200
    2308:	e5832304 	str	r2, [r3, #772]	; 0x304
    230c:	e241100e 	sub	r1, r1, #14
    2310:	e5831204 	str	r1, [r3, #516]	; 0x204
    2314:	e5832308 	str	r2, [r3, #776]	; 0x308
    2318:	e2811001 	add	r1, r1, #1
    231c:	e5831208 	str	r1, [r3, #520]	; 0x208
    2320:	e583230c 	str	r2, [r3, #780]	; 0x30c
    2324:	e2811002 	add	r1, r1, #2
    2328:	e583120c 	str	r1, [r3, #524]	; 0x20c
    232c:	e5832310 	str	r2, [r3, #784]	; 0x310
    2330:	e59f1120 	ldr	r1, [pc, #288]	; 2458 <rts_init+0x224>
    2334:	e5831210 	str	r1, [r3, #528]	; 0x210
    2338:	e5832314 	str	r2, [r3, #788]	; 0x314
    233c:	e241100e 	sub	r1, r1, #14
    2340:	e5831214 	str	r1, [r3, #532]	; 0x214
    2344:	e3a0103f 	mov	r1, #63	; 0x3f
    2348:	e583102c 	str	r1, [r3, #44]	; 0x2c
    234c:	e59f3108 	ldr	r3, [pc, #264]	; 245c <rts_init+0x228>
    2350:	e5832000 	str	r2, [r3]
    2354:	ea000016 	b	23b4 <rts_init+0x180>
    2358:	e59f30e4 	ldr	r3, [pc, #228]	; 2444 <rts_init+0x210>
    235c:	e5930f10 	ldr	r0, [r3, #3856]	; 0xf10
    2360:	e59f10f8 	ldr	r1, [pc, #248]	; 2460 <rts_init+0x22c>
    2364:	e5932f10 	ldr	r2, [r3, #3856]	; 0xf10
    2368:	e0602002 	rsb	r2, r0, r2
    236c:	e1520001 	cmp	r2, r1
    2370:	8a000003 	bhi	2384 <rts_init+0x150>
    2374:	e5d32fbc 	ldrb	r2, [r3, #4028]	; 0xfbc
    2378:	e20220ff 	and	r2, r2, #255	; 0xff
    237c:	e35200ac 	cmp	r2, #172	; 0xac
    2380:	9afffff7 	bls	2364 <rts_init+0x130>
    2384:	e59f30b8 	ldr	r3, [pc, #184]	; 2444 <rts_init+0x210>
    2388:	e5d33fbc 	ldrb	r3, [r3, #4028]	; 0xfbc
    238c:	e20330ff 	and	r3, r3, #255	; 0xff
    2390:	e35300ac 	cmp	r3, #172	; 0xac
    2394:	8a000006 	bhi	23b4 <rts_init+0x180>
    2398:	e59f30c4 	ldr	r3, [pc, #196]	; 2464 <rts_init+0x230>
    239c:	e5932014 	ldr	r2, [r3, #20]
    23a0:	e3822010 	orr	r2, r2, #16
    23a4:	e5832014 	str	r2, [r3, #20]
    23a8:	e3a00000 	mov	r0, #0
    23ac:	e59f10b4 	ldr	r1, [pc, #180]	; 2468 <rts_init+0x234>
    23b0:	eb0001a6 	bl	2a50 <io_printf>
    23b4:	e59f20b0 	ldr	r2, [pc, #176]	; 246c <rts_init+0x238>
    23b8:	e3a03000 	mov	r3, #0
    23bc:	e5823000 	str	r3, [r2]
    23c0:	e5823004 	str	r3, [r2, #4]
    23c4:	e5823008 	str	r3, [r2, #8]
    23c8:	e582300c 	str	r3, [r2, #12]
    23cc:	e5823010 	str	r3, [r2, #16]
    23d0:	e5823014 	str	r3, [r2, #20]
    23d4:	e5823018 	str	r3, [r2, #24]
    23d8:	e582301c 	str	r3, [r2, #28]
    23dc:	e5823020 	str	r3, [r2, #32]
    23e0:	e5823024 	str	r3, [r2, #36]	; 0x24
    23e4:	e5823028 	str	r3, [r2, #40]	; 0x28
    23e8:	e3a0241f 	mov	r2, #520093696	; 0x1f000000
    23ec:	e3a01040 	mov	r1, #64	; 0x40
    23f0:	e5821014 	str	r1, [r2, #20]
    23f4:	e59f0074 	ldr	r0, [pc, #116]	; 2470 <rts_init+0x23c>
    23f8:	e582010c 	str	r0, [r2, #268]	; 0x10c
    23fc:	e3a00026 	mov	r0, #38	; 0x26
    2400:	e582020c 	str	r0, [r2, #524]	; 0x20c
    2404:	e592000c 	ldr	r0, [r2, #12]
    2408:	e3c00040 	bic	r0, r0, #64	; 0x40
    240c:	e582000c 	str	r0, [r2, #12]
    2410:	e5821010 	str	r1, [r2, #16]
    2414:	e593203c 	ldr	r2, [r3, #60]	; 0x3c
    2418:	e59f3054 	ldr	r3, [pc, #84]	; 2474 <rts_init+0x240>
    241c:	e5832000 	str	r2, [r3]
    2420:	e28dd00c 	add	sp, sp, #12
    2424:	e49df004 	pop	{pc}		; (ldr pc, [sp], #4)
    2428:	004001d8 	.word	0x004001d8
    242c:	f1008000 	.word	0xf1008000
    2430:	f1009000 	.word	0xf1009000
    2434:	0ffff802 	.word	0x0ffff802
    2438:	f100c000 	.word	0xf100c000
    243c:	004001cc 	.word	0x004001cc
    2440:	f1004000 	.word	0xf1004000
    2444:	f5007000 	.word	0xf5007000
    2448:	00400194 	.word	0x00400194
    244c:	00400198 	.word	0x00400198
    2450:	00002eb8 	.word	0x00002eb8
    2454:	01fffcff 	.word	0x01fffcff
    2458:	0001fcff 	.word	0x0001fcff
    245c:	004001dc 	.word	0x004001dc
    2460:	00001387 	.word	0x00001387
    2464:	004008c0 	.word	0x004008c0
    2468:	00002ee8 	.word	0x00002ee8
    246c:	004001a0 	.word	0x004001a0
    2470:	00000a54 	.word	0x00000a54
    2474:	0040019c 	.word	0x0040019c

00002478 <rts_cleanup>:
    2478:	e3a02000 	mov	r2, #0
    247c:	e59f3050 	ldr	r3, [pc, #80]	; 24d4 <rts_cleanup+0x5c>
    2480:	e5c32fbc 	strb	r2, [r3, #4028]	; 0xfbc
    2484:	e59f304c 	ldr	r3, [pc, #76]	; 24d8 <rts_cleanup+0x60>
    2488:	e5d33000 	ldrb	r3, [r3]
    248c:	e1530002 	cmp	r3, r2
    2490:	0a00000b 	beq	24c4 <rts_cleanup+0x4c>
    2494:	e59f3040 	ldr	r3, [pc, #64]	; 24dc <rts_cleanup+0x64>
    2498:	e3e0c000 	mvn	ip, #0
    249c:	e1a00002 	mov	r0, r2
    24a0:	e59f1038 	ldr	r1, [pc, #56]	; 24e0 <rts_cleanup+0x68>
    24a4:	e583c000 	str	ip, [r3]
    24a8:	e2832901 	add	r2, r3, #16384	; 0x4000
    24ac:	e5820000 	str	r0, [r2]
    24b0:	e2833004 	add	r3, r3, #4
    24b4:	e1530001 	cmp	r3, r1
    24b8:	1afffff9 	bne	24a4 <rts_cleanup+0x2c>
    24bc:	e3a034f2 	mov	r3, #-234881024	; 0xf2000000
    24c0:	e5933190 	ldr	r3, [r3, #400]	; 0x190
    24c4:	e3a02040 	mov	r2, #64	; 0x40
    24c8:	e3a0341f 	mov	r3, #520093696	; 0x1f000000
    24cc:	e5832010 	str	r2, [r3, #16]
    24d0:	e12fff1e 	bx	lr
    24d4:	f5007000 	.word	0xf5007000
    24d8:	004001d8 	.word	0x004001d8
    24dc:	f1008000 	.word	0xf1008000
    24e0:	f1009000 	.word	0xf1009000

000024e4 <io_put_char>:
    24e4:	e92d4008 	push	{r3, lr}
    24e8:	e1a03000 	mov	r3, r0
    24ec:	e3500002 	cmp	r0, #2
    24f0:	8a000003 	bhi	2504 <io_put_char+0x20>
    24f4:	e1a00001 	mov	r0, r1
    24f8:	e1a01003 	mov	r1, r3
    24fc:	ebfff742 	bl	20c <svc_put_char>
    2500:	e8bd8008 	pop	{r3, pc}
    2504:	e3500003 	cmp	r0, #3
    2508:	98bd8008 	popls	{r3, pc}
    250c:	e59fc018 	ldr	ip, [pc, #24]	; 252c <io_put_char+0x48>
    2510:	e59c0000 	ldr	r0, [ip]
    2514:	e2802001 	add	r2, r0, #1
    2518:	e58c2000 	str	r2, [ip]
    251c:	e7c31000 	strb	r1, [r3, r0]
    2520:	e3a01000 	mov	r1, #0
    2524:	e7c31002 	strb	r1, [r3, r2]
    2528:	e8bd8008 	pop	{r3, pc}
    252c:	00400c18 	.word	0x00400c18

00002530 <io_put_str>:
    2530:	e92d41f0 	push	{r4, r5, r6, r7, r8, lr}
    2534:	e1a06000 	mov	r6, r0
    2538:	e1a07001 	mov	r7, r1
    253c:	e5d13000 	ldrb	r3, [r1]
    2540:	e3530000 	cmp	r3, #0
    2544:	0a000005 	beq	2560 <io_put_str+0x30>
    2548:	e3a04000 	mov	r4, #0
    254c:	e2844001 	add	r4, r4, #1
    2550:	e7d73004 	ldrb	r3, [r7, r4]
    2554:	e3530000 	cmp	r3, #0
    2558:	1afffffb 	bne	254c <io_put_str+0x1c>
    255c:	ea000000 	b	2564 <io_put_str+0x34>
    2560:	e3a04000 	mov	r4, #0
    2564:	e1520004 	cmp	r2, r4
    2568:	da000007 	ble	258c <io_put_str+0x5c>
    256c:	e1a05002 	mov	r5, r2
    2570:	e3a08020 	mov	r8, #32
    2574:	e1a00006 	mov	r0, r6
    2578:	e1a01008 	mov	r1, r8
    257c:	ebffffd8 	bl	24e4 <io_put_char>
    2580:	e2455001 	sub	r5, r5, #1
    2584:	e1550004 	cmp	r5, r4
    2588:	cafffff9 	bgt	2574 <io_put_str+0x44>
    258c:	e5d71000 	ldrb	r1, [r7]
    2590:	e3510000 	cmp	r1, #0
    2594:	08bd81f0 	popeq	{r4, r5, r6, r7, r8, pc}
    2598:	e1a04007 	mov	r4, r7
    259c:	e1a00006 	mov	r0, r6
    25a0:	ebffffcf 	bl	24e4 <io_put_char>
    25a4:	e5f41001 	ldrb	r1, [r4, #1]!
    25a8:	e3510000 	cmp	r1, #0
    25ac:	1afffffa 	bne	259c <io_put_str+0x6c>
    25b0:	e8bd81f0 	pop	{r4, r5, r6, r7, r8, pc}

000025b4 <io_put_int>:
    25b4:	e92d41f0 	push	{r4, r5, r6, r7, r8, lr}
    25b8:	e24dd018 	sub	sp, sp, #24
    25bc:	e1a07000 	mov	r7, r0
    25c0:	e1a05002 	mov	r5, r2
    25c4:	e3510000 	cmp	r1, #0
    25c8:	b2611000 	rsblt	r1, r1, #0
    25cc:	b3a0802d 	movlt	r8, #45	; 0x2d
    25d0:	a3a08000 	movge	r8, #0
    25d4:	e28d600b 	add	r6, sp, #11
    25d8:	e3a04000 	mov	r4, #0
    25dc:	e28d0004 	add	r0, sp, #4
    25e0:	ebfff6fd 	bl	1dc <div10>
    25e4:	e2843001 	add	r3, r4, #1
    25e8:	e59d1008 	ldr	r1, [sp, #8]
    25ec:	e2811030 	add	r1, r1, #48	; 0x30
    25f0:	e5e61001 	strb	r1, [r6, #1]!
    25f4:	e59d1004 	ldr	r1, [sp, #4]
    25f8:	e3510000 	cmp	r1, #0
    25fc:	11a04003 	movne	r4, r3
    2600:	1afffff5 	bne	25dc <io_put_int+0x28>
    2604:	e1a02004 	mov	r2, r4
    2608:	e3530000 	cmp	r3, #0
    260c:	da00000e 	ble	264c <io_put_int+0x98>
    2610:	e28d1018 	add	r1, sp, #24
    2614:	e0813004 	add	r3, r1, r4
    2618:	e553300c 	ldrb	r3, [r3, #-12]
    261c:	e3530030 	cmp	r3, #48	; 0x30
    2620:	028d300c 	addeq	r3, sp, #12
    2624:	00832004 	addeq	r2, r3, r4
    2628:	0a000004 	beq	2640 <io_put_int+0x8c>
    262c:	ea000007 	b	2650 <io_put_int+0x9c>
    2630:	e2444001 	sub	r4, r4, #1
    2634:	e5723001 	ldrb	r3, [r2, #-1]!
    2638:	e3530030 	cmp	r3, #48	; 0x30
    263c:	1a000003 	bne	2650 <io_put_int+0x9c>
    2640:	e3540000 	cmp	r4, #0
    2644:	cafffff9 	bgt	2630 <io_put_int+0x7c>
    2648:	ea000000 	b	2650 <io_put_int+0x9c>
    264c:	e1a04003 	mov	r4, r3
    2650:	e3580000 	cmp	r8, #0
    2654:	12844001 	addne	r4, r4, #1
    2658:	128d1018 	addne	r1, sp, #24
    265c:	10813004 	addne	r3, r1, r4
    2660:	1543800c 	strbne	r8, [r3, #-12]
    2664:	e2846001 	add	r6, r4, #1
    2668:	e1550006 	cmp	r5, r6
    266c:	9a000006 	bls	268c <io_put_int+0xd8>
    2670:	e3a08020 	mov	r8, #32
    2674:	e1a00007 	mov	r0, r7
    2678:	e1a01008 	mov	r1, r8
    267c:	ebffff98 	bl	24e4 <io_put_char>
    2680:	e2455001 	sub	r5, r5, #1
    2684:	e1550006 	cmp	r5, r6
    2688:	8afffff9 	bhi	2674 <io_put_int+0xc0>
    268c:	e3540000 	cmp	r4, #0
    2690:	ba000007 	blt	26b4 <io_put_int+0x100>
    2694:	e28d200c 	add	r2, sp, #12
    2698:	e0824004 	add	r4, r2, r4
    269c:	e28d500b 	add	r5, sp, #11
    26a0:	e1a00007 	mov	r0, r7
    26a4:	e4541001 	ldrb	r1, [r4], #-1
    26a8:	ebffff8d 	bl	24e4 <io_put_char>
    26ac:	e1540005 	cmp	r4, r5
    26b0:	1afffffa 	bne	26a0 <io_put_int+0xec>
    26b4:	e28dd018 	add	sp, sp, #24
    26b8:	e8bd81f0 	pop	{r4, r5, r6, r7, r8, pc}

000026bc <io_put_uint>:
    26bc:	e92d43f0 	push	{r4, r5, r6, r7, r8, r9, lr}
    26c0:	e24dd01c 	sub	sp, sp, #28
    26c4:	e1a08000 	mov	r8, r0
    26c8:	e1a05002 	mov	r5, r2
    26cc:	e1a09003 	mov	r9, r3
    26d0:	e28d600b 	add	r6, sp, #11
    26d4:	e3a04000 	mov	r4, #0
    26d8:	e28d0004 	add	r0, sp, #4
    26dc:	ebfff6be 	bl	1dc <div10>
    26e0:	e284c001 	add	ip, r4, #1
    26e4:	e59d7008 	ldr	r7, [sp, #8]
    26e8:	e2877030 	add	r7, r7, #48	; 0x30
    26ec:	e5e67001 	strb	r7, [r6, #1]!
    26f0:	e59d1004 	ldr	r1, [sp, #4]
    26f4:	e3510000 	cmp	r1, #0
    26f8:	11a0400c 	movne	r4, ip
    26fc:	1afffff5 	bne	26d8 <io_put_uint+0x1c>
    2700:	e1a02004 	mov	r2, r4
    2704:	e35c0000 	cmp	ip, #0
    2708:	da00000e 	ble	2748 <io_put_uint+0x8c>
    270c:	e28d1018 	add	r1, sp, #24
    2710:	e0813004 	add	r3, r1, r4
    2714:	e553300c 	ldrb	r3, [r3, #-12]
    2718:	e3530030 	cmp	r3, #48	; 0x30
    271c:	028d300c 	addeq	r3, sp, #12
    2720:	00832004 	addeq	r2, r3, r4
    2724:	0a000004 	beq	273c <io_put_uint+0x80>
    2728:	ea000007 	b	274c <io_put_uint+0x90>
    272c:	e2444001 	sub	r4, r4, #1
    2730:	e5723001 	ldrb	r3, [r2, #-1]!
    2734:	e3530030 	cmp	r3, #48	; 0x30
    2738:	1a000003 	bne	274c <io_put_uint+0x90>
    273c:	e3540000 	cmp	r4, #0
    2740:	cafffff9 	bgt	272c <io_put_uint+0x70>
    2744:	ea000000 	b	274c <io_put_uint+0x90>
    2748:	e1a0400c 	mov	r4, ip
    274c:	e2846001 	add	r6, r4, #1
    2750:	e1550006 	cmp	r5, r6
    2754:	9a000005 	bls	2770 <io_put_uint+0xb4>
    2758:	e1a00008 	mov	r0, r8
    275c:	e1a01009 	mov	r1, r9
    2760:	ebffff5f 	bl	24e4 <io_put_char>
    2764:	e2455001 	sub	r5, r5, #1
    2768:	e1550006 	cmp	r5, r6
    276c:	8afffff9 	bhi	2758 <io_put_uint+0x9c>
    2770:	e3540000 	cmp	r4, #0
    2774:	ba000007 	blt	2798 <io_put_uint+0xdc>
    2778:	e28d100c 	add	r1, sp, #12
    277c:	e0814004 	add	r4, r1, r4
    2780:	e28d500b 	add	r5, sp, #11
    2784:	e1a00008 	mov	r0, r8
    2788:	e4541001 	ldrb	r1, [r4], #-1
    278c:	ebffff54 	bl	24e4 <io_put_char>
    2790:	e1540005 	cmp	r4, r5
    2794:	1afffffa 	bne	2784 <io_put_uint+0xc8>
    2798:	e28dd01c 	add	sp, sp, #28
    279c:	e8bd83f0 	pop	{r4, r5, r6, r7, r8, r9, pc}

000027a0 <io_put_zhex>:
    27a0:	e92d41f0 	push	{r4, r5, r6, r7, r8, lr}
    27a4:	e1a06000 	mov	r6, r0
    27a8:	e1a07001 	mov	r7, r1
    27ac:	e2524001 	subs	r4, r2, #1
    27b0:	48bd81f0 	popmi	{r4, r5, r6, r7, r8, pc}
    27b4:	e2425107 	sub	r5, r2, #-1073741823	; 0xc0000001
    27b8:	e1a05105 	lsl	r5, r5, #2
    27bc:	e59f8020 	ldr	r8, [pc, #32]	; 27e4 <io_put_zhex+0x44>
    27c0:	e1a03537 	lsr	r3, r7, r5
    27c4:	e203300f 	and	r3, r3, #15
    27c8:	e1a00006 	mov	r0, r6
    27cc:	e7d81003 	ldrb	r1, [r8, r3]
    27d0:	ebffff43 	bl	24e4 <io_put_char>
    27d4:	e2455004 	sub	r5, r5, #4
    27d8:	e2544001 	subs	r4, r4, #1
    27dc:	5afffff7 	bpl	27c0 <io_put_zhex+0x20>
    27e0:	e8bd81f0 	pop	{r4, r5, r6, r7, r8, pc}
    27e4:	00002f20 	.word	0x00002f20

000027e8 <io_put_hex>:
    27e8:	e92d43f0 	push	{r4, r5, r6, r7, r8, r9, lr}
    27ec:	e24dd00c 	sub	sp, sp, #12
    27f0:	e1a06000 	mov	r6, r0
    27f4:	e1a0c001 	mov	ip, r1
    27f8:	e1a09003 	mov	r9, r3
    27fc:	e24d0001 	sub	r0, sp, #1
    2800:	e3a05000 	mov	r5, #0
    2804:	e59f10b0 	ldr	r1, [pc, #176]	; 28bc <io_put_hex+0xd4>
    2808:	e2857001 	add	r7, r5, #1
    280c:	e20c300f 	and	r3, ip, #15
    2810:	e7d18003 	ldrb	r8, [r1, r3]
    2814:	e5e08001 	strb	r8, [r0, #1]!
    2818:	e1b0c22c 	lsrs	ip, ip, #4
    281c:	11a05007 	movne	r5, r7
    2820:	1afffff8 	bne	2808 <io_put_hex+0x20>
    2824:	e3570000 	cmp	r7, #0
    2828:	da00000c 	ble	2860 <io_put_hex+0x78>
    282c:	e28d1008 	add	r1, sp, #8
    2830:	e0813005 	add	r3, r1, r5
    2834:	e5533008 	ldrb	r3, [r3, #-8]
    2838:	e3530030 	cmp	r3, #48	; 0x30
    283c:	1a000008 	bne	2864 <io_put_hex+0x7c>
    2840:	ea000003 	b	2854 <io_put_hex+0x6c>
    2844:	e2455001 	sub	r5, r5, #1
    2848:	e7dd3005 	ldrb	r3, [sp, r5]
    284c:	e3530030 	cmp	r3, #48	; 0x30
    2850:	1a000003 	bne	2864 <io_put_hex+0x7c>
    2854:	e3550000 	cmp	r5, #0
    2858:	cafffff9 	bgt	2844 <io_put_hex+0x5c>
    285c:	ea000000 	b	2864 <io_put_hex+0x7c>
    2860:	e1a05007 	mov	r5, r7
    2864:	e2857001 	add	r7, r5, #1
    2868:	e1520007 	cmp	r2, r7
    286c:	9a000006 	bls	288c <io_put_hex+0xa4>
    2870:	e1a04002 	mov	r4, r2
    2874:	e1a00006 	mov	r0, r6
    2878:	e1a01009 	mov	r1, r9
    287c:	ebffff18 	bl	24e4 <io_put_char>
    2880:	e2444001 	sub	r4, r4, #1
    2884:	e1540007 	cmp	r4, r7
    2888:	8afffff9 	bhi	2874 <io_put_hex+0x8c>
    288c:	e3550000 	cmp	r5, #0
    2890:	ba000007 	blt	28b4 <io_put_hex+0xcc>
    2894:	e28d3000 	add	r3, sp, #0
    2898:	e0834005 	add	r4, r3, r5
    289c:	e24d5001 	sub	r5, sp, #1
    28a0:	e1a00006 	mov	r0, r6
    28a4:	e4541001 	ldrb	r1, [r4], #-1
    28a8:	ebffff0d 	bl	24e4 <io_put_char>
    28ac:	e1540005 	cmp	r4, r5
    28b0:	1afffffa 	bne	28a0 <io_put_hex+0xb8>
    28b4:	e28dd00c 	add	sp, sp, #12
    28b8:	e8bd83f0 	pop	{r4, r5, r6, r7, r8, r9, pc}
    28bc:	00002f20 	.word	0x00002f20

000028c0 <io_put_fixed>:
    28c0:	e92d47f0 	push	{r4, r5, r6, r7, r8, r9, sl, lr}
    28c4:	e24dd028 	sub	sp, sp, #40	; 0x28
    28c8:	e1a06000 	mov	r6, r0
    28cc:	e1a08002 	mov	r8, r2
    28d0:	e59d7048 	ldr	r7, [sp, #72]	; 0x48
    28d4:	e3510000 	cmp	r1, #0
    28d8:	b2611000 	rsblt	r1, r1, #0
    28dc:	b3a0902d 	movlt	r9, #45	; 0x2d
    28e0:	a3a09000 	movge	r9, #0
    28e4:	e1a0c001 	mov	ip, r1
    28e8:	e353000c 	cmp	r3, #12
    28ec:	23a0300c 	movcs	r3, #12
    28f0:	e3530000 	cmp	r3, #0
    28f4:	0a00000c 	beq	292c <io_put_fixed+0x6c>
    28f8:	e28de00c 	add	lr, sp, #12
    28fc:	e08e2003 	add	r2, lr, r3
    2900:	e1a0080c 	lsl	r0, ip, #16
    2904:	e1a00820 	lsr	r0, r0, #16
    2908:	e0800100 	add	r0, r0, r0, lsl #2
    290c:	e1a00080 	lsl	r0, r0, #1
    2910:	e1a0c000 	mov	ip, r0
    2914:	e1a00820 	lsr	r0, r0, #16
    2918:	e2800030 	add	r0, r0, #48	; 0x30
    291c:	e5620001 	strb	r0, [r2, #-1]!
    2920:	e152000e 	cmp	r2, lr
    2924:	1afffff5 	bne	2900 <io_put_fixed+0x40>
    2928:	ea000001 	b	2934 <io_put_fixed+0x74>
    292c:	e1a05003 	mov	r5, r3
    2930:	ea000000 	b	2938 <io_put_fixed+0x78>
    2934:	e1a05003 	mov	r5, r3
    2938:	e1a0c80c 	lsl	ip, ip, #16
    293c:	e1a0e82c 	lsr	lr, ip, #16
    2940:	e08ee10e 	add	lr, lr, lr, lsl #2
    2944:	e35e090a 	cmp	lr, #163840	; 0x28000
    2948:	33a0e000 	movcc	lr, #0
    294c:	23a0e001 	movcs	lr, #1
    2950:	e28d200c 	add	r2, sp, #12
    2954:	e3a0c000 	mov	ip, #0
    2958:	e1a0a00c 	mov	sl, ip
    295c:	e3a04030 	mov	r4, #48	; 0x30
    2960:	ea000006 	b	2980 <io_put_fixed+0xc0>
    2964:	e4d20001 	ldrb	r0, [r2], #1
    2968:	e28cc001 	add	ip, ip, #1
    296c:	e3500038 	cmp	r0, #56	; 0x38
    2970:	85424001 	strbhi	r4, [r2, #-1]
    2974:	92800001 	addls	r0, r0, #1
    2978:	95420001 	strbls	r0, [r2, #-1]
    297c:	91a0e00a 	movls	lr, sl
    2980:	e153000c 	cmp	r3, ip
    2984:	93a00000 	movls	r0, #0
    2988:	820e0001 	andhi	r0, lr, #1
    298c:	e3500000 	cmp	r0, #0
    2990:	1afffff3 	bne	2964 <io_put_fixed+0xa4>
    2994:	e3530000 	cmp	r3, #0
    2998:	128d2028 	addne	r2, sp, #40	; 0x28
    299c:	10823005 	addne	r3, r2, r5
    29a0:	13a0202e 	movne	r2, #46	; 0x2e
    29a4:	1543201c 	strbne	r2, [r3, #-28]	; 0xffffffe4
    29a8:	12855001 	addne	r5, r5, #1
    29ac:	e08e1841 	add	r1, lr, r1, asr #16
    29b0:	e28d3028 	add	r3, sp, #40	; 0x28
    29b4:	e083a005 	add	sl, r3, r5
    29b8:	e24aa01d 	sub	sl, sl, #29
    29bc:	e28d0004 	add	r0, sp, #4
    29c0:	ebfff605 	bl	1dc <div10>
    29c4:	e2854001 	add	r4, r5, #1
    29c8:	e59d3008 	ldr	r3, [sp, #8]
    29cc:	e2833030 	add	r3, r3, #48	; 0x30
    29d0:	e5ea3001 	strb	r3, [sl, #1]!
    29d4:	e59d1004 	ldr	r1, [sp, #4]
    29d8:	e3510000 	cmp	r1, #0
    29dc:	11a05004 	movne	r5, r4
    29e0:	1afffff5 	bne	29bc <io_put_fixed+0xfc>
    29e4:	e1a03004 	mov	r3, r4
    29e8:	e3590000 	cmp	r9, #0
    29ec:	12854002 	addne	r4, r5, #2
    29f0:	128d2028 	addne	r2, sp, #40	; 0x28
    29f4:	10823003 	addne	r3, r2, r3
    29f8:	1543901c 	strbne	r9, [r3, #-28]	; 0xffffffe4
    29fc:	e2845001 	add	r5, r4, #1
    2a00:	e1580005 	cmp	r8, r5
    2a04:	9a000005 	bls	2a20 <io_put_fixed+0x160>
    2a08:	e1a00006 	mov	r0, r6
    2a0c:	e1a01007 	mov	r1, r7
    2a10:	ebfffeb3 	bl	24e4 <io_put_char>
    2a14:	e2488001 	sub	r8, r8, #1
    2a18:	e1550008 	cmp	r5, r8
    2a1c:	3afffff9 	bcc	2a08 <io_put_fixed+0x148>
    2a20:	e3540000 	cmp	r4, #0
    2a24:	0a000007 	beq	2a48 <io_put_fixed+0x188>
    2a28:	e28d300c 	add	r3, sp, #12
    2a2c:	e0835004 	add	r5, r3, r4
    2a30:	e2444001 	sub	r4, r4, #1
    2a34:	e1a00006 	mov	r0, r6
    2a38:	e5751001 	ldrb	r1, [r5, #-1]!
    2a3c:	ebfffea8 	bl	24e4 <io_put_char>
    2a40:	e3540000 	cmp	r4, #0
    2a44:	1afffff9 	bne	2a30 <io_put_fixed+0x170>
    2a48:	e28dd028 	add	sp, sp, #40	; 0x28
    2a4c:	e8bd87f0 	pop	{r4, r5, r6, r7, r8, r9, sl, pc}

00002a50 <io_printf>:
    2a50:	e92d000e 	push	{r1, r2, r3}
    2a54:	e92d41f0 	push	{r4, r5, r6, r7, r8, lr}
    2a58:	e24dd014 	sub	sp, sp, #20
    2a5c:	e1a05000 	mov	r5, r0
    2a60:	e59d802c 	ldr	r8, [sp, #44]	; 0x2c
    2a64:	e3500003 	cmp	r0, #3
    2a68:	0a000090 	beq	2cb0 <io_printf+0x260>
    2a6c:	83a03000 	movhi	r3, #0
    2a70:	859f2248 	ldrhi	r2, [pc, #584]	; 2cc0 <io_printf+0x270>
    2a74:	85823000 	strhi	r3, [r2]
    2a78:	85c03000 	strbhi	r3, [r0]
    2a7c:	e28d3030 	add	r3, sp, #48	; 0x30
    2a80:	e58d300c 	str	r3, [sp, #12]
    2a84:	e3a06000 	mov	r6, #0
    2a88:	e3a07006 	mov	r7, #6
    2a8c:	e5d81000 	ldrb	r1, [r8]
    2a90:	e3510000 	cmp	r1, #0
    2a94:	0a000085 	beq	2cb0 <io_printf+0x260>
    2a98:	e3510025 	cmp	r1, #37	; 0x25
    2a9c:	0a000003 	beq	2ab0 <io_printf+0x60>
    2aa0:	e2888001 	add	r8, r8, #1
    2aa4:	e1a00005 	mov	r0, r5
    2aa8:	ebfffe8d 	bl	24e4 <io_put_char>
    2aac:	eafffff6 	b	2a8c <io_printf+0x3c>
    2ab0:	e2884002 	add	r4, r8, #2
    2ab4:	e5d81001 	ldrb	r1, [r8, #1]
    2ab8:	e3510000 	cmp	r1, #0
    2abc:	0a00007b 	beq	2cb0 <io_printf+0x260>
    2ac0:	e3510030 	cmp	r1, #48	; 0x30
    2ac4:	01a03001 	moveq	r3, r1
    2ac8:	13a03020 	movne	r3, #32
    2acc:	e1a02006 	mov	r2, r6
    2ad0:	ea000005 	b	2aec <io_printf+0x9c>
    2ad4:	e0822102 	add	r2, r2, r2, lsl #2
    2ad8:	e0812082 	add	r2, r1, r2, lsl #1
    2adc:	e2422030 	sub	r2, r2, #48	; 0x30
    2ae0:	e4d41001 	ldrb	r1, [r4], #1
    2ae4:	e3510000 	cmp	r1, #0
    2ae8:	0a000070 	beq	2cb0 <io_printf+0x260>
    2aec:	e241c030 	sub	ip, r1, #48	; 0x30
    2af0:	e20cc0ff 	and	ip, ip, #255	; 0xff
    2af4:	e35c0009 	cmp	ip, #9
    2af8:	9afffff5 	bls	2ad4 <io_printf+0x84>
    2afc:	e1a00004 	mov	r0, r4
    2b00:	e351002e 	cmp	r1, #46	; 0x2e
    2b04:	11a0c007 	movne	ip, r7
    2b08:	1a00000e 	bne	2b48 <io_printf+0xf8>
    2b0c:	e2844001 	add	r4, r4, #1
    2b10:	e5d01000 	ldrb	r1, [r0]
    2b14:	e1a0c006 	mov	ip, r6
    2b18:	ea000005 	b	2b34 <io_printf+0xe4>
    2b1c:	e08cc10c 	add	ip, ip, ip, lsl #2
    2b20:	e081c08c 	add	ip, r1, ip, lsl #1
    2b24:	e24cc030 	sub	ip, ip, #48	; 0x30
    2b28:	e4d41001 	ldrb	r1, [r4], #1
    2b2c:	e3510000 	cmp	r1, #0
    2b30:	0a00005e 	beq	2cb0 <io_printf+0x260>
    2b34:	e2410030 	sub	r0, r1, #48	; 0x30
    2b38:	e20000ff 	and	r0, r0, #255	; 0xff
    2b3c:	e3500009 	cmp	r0, #9
    2b40:	9afffff5 	bls	2b1c <io_printf+0xcc>
    2b44:	eaffffff 	b	2b48 <io_printf+0xf8>
    2b48:	e2410063 	sub	r0, r1, #99	; 0x63
    2b4c:	e3500017 	cmp	r0, #23
    2b50:	979ff100 	ldrls	pc, [pc, r0, lsl #2]
    2b54:	ea000051 	b	2ca0 <io_printf+0x250>
    2b58:	00002bb8 	.word	0x00002bb8
    2b5c:	00002bf8 	.word	0x00002bf8
    2b60:	00002ca0 	.word	0x00002ca0
    2b64:	00002c38 	.word	0x00002c38
    2b68:	00002ca0 	.word	0x00002ca0
    2b6c:	00002ca0 	.word	0x00002ca0
    2b70:	00002ca0 	.word	0x00002ca0
    2b74:	00002ca0 	.word	0x00002ca0
    2b78:	00002ca0 	.word	0x00002ca0
    2b7c:	00002ca0 	.word	0x00002ca0
    2b80:	00002ca0 	.word	0x00002ca0
    2b84:	00002ca0 	.word	0x00002ca0
    2b88:	00002ca0 	.word	0x00002ca0
    2b8c:	00002ca0 	.word	0x00002ca0
    2b90:	00002ca0 	.word	0x00002ca0
    2b94:	00002ca0 	.word	0x00002ca0
    2b98:	00002bd8 	.word	0x00002bd8
    2b9c:	00002ca0 	.word	0x00002ca0
    2ba0:	00002c18 	.word	0x00002c18
    2ba4:	00002ca0 	.word	0x00002ca0
    2ba8:	00002ca0 	.word	0x00002ca0
    2bac:	00002c60 	.word	0x00002c60
    2bb0:	00002ca0 	.word	0x00002ca0
    2bb4:	00002c80 	.word	0x00002c80
    2bb8:	e59d300c 	ldr	r3, [sp, #12]
    2bbc:	e2832004 	add	r2, r3, #4
    2bc0:	e58d200c 	str	r2, [sp, #12]
    2bc4:	e1a00005 	mov	r0, r5
    2bc8:	e5931000 	ldr	r1, [r3]
    2bcc:	ebfffe44 	bl	24e4 <io_put_char>
    2bd0:	e1a08004 	mov	r8, r4
    2bd4:	eaffffac 	b	2a8c <io_printf+0x3c>
    2bd8:	e59d300c 	ldr	r3, [sp, #12]
    2bdc:	e2831004 	add	r1, r3, #4
    2be0:	e58d100c 	str	r1, [sp, #12]
    2be4:	e1a00005 	mov	r0, r5
    2be8:	e5931000 	ldr	r1, [r3]
    2bec:	ebfffe4f 	bl	2530 <io_put_str>
    2bf0:	e1a08004 	mov	r8, r4
    2bf4:	eaffffa4 	b	2a8c <io_printf+0x3c>
    2bf8:	e59d100c 	ldr	r1, [sp, #12]
    2bfc:	e2810004 	add	r0, r1, #4
    2c00:	e58d000c 	str	r0, [sp, #12]
    2c04:	e1a00005 	mov	r0, r5
    2c08:	e5911000 	ldr	r1, [r1]
    2c0c:	ebfffe68 	bl	25b4 <io_put_int>
    2c10:	e1a08004 	mov	r8, r4
    2c14:	eaffff9c 	b	2a8c <io_printf+0x3c>
    2c18:	e59d100c 	ldr	r1, [sp, #12]
    2c1c:	e2810004 	add	r0, r1, #4
    2c20:	e58d000c 	str	r0, [sp, #12]
    2c24:	e1a00005 	mov	r0, r5
    2c28:	e5911000 	ldr	r1, [r1]
    2c2c:	ebfffea2 	bl	26bc <io_put_uint>
    2c30:	e1a08004 	mov	r8, r4
    2c34:	eaffff94 	b	2a8c <io_printf+0x3c>
    2c38:	e59d100c 	ldr	r1, [sp, #12]
    2c3c:	e2810004 	add	r0, r1, #4
    2c40:	e58d000c 	str	r0, [sp, #12]
    2c44:	e5911000 	ldr	r1, [r1]
    2c48:	e58d3000 	str	r3, [sp]
    2c4c:	e1a00005 	mov	r0, r5
    2c50:	e1a0300c 	mov	r3, ip
    2c54:	ebffff19 	bl	28c0 <io_put_fixed>
    2c58:	e1a08004 	mov	r8, r4
    2c5c:	eaffff8a 	b	2a8c <io_printf+0x3c>
    2c60:	e59d100c 	ldr	r1, [sp, #12]
    2c64:	e2810004 	add	r0, r1, #4
    2c68:	e58d000c 	str	r0, [sp, #12]
    2c6c:	e1a00005 	mov	r0, r5
    2c70:	e5911000 	ldr	r1, [r1]
    2c74:	ebfffedb 	bl	27e8 <io_put_hex>
    2c78:	e1a08004 	mov	r8, r4
    2c7c:	eaffff82 	b	2a8c <io_printf+0x3c>
    2c80:	e59d300c 	ldr	r3, [sp, #12]
    2c84:	e2831004 	add	r1, r3, #4
    2c88:	e58d100c 	str	r1, [sp, #12]
    2c8c:	e1a00005 	mov	r0, r5
    2c90:	e5931000 	ldr	r1, [r3]
    2c94:	ebfffec1 	bl	27a0 <io_put_zhex>
    2c98:	e1a08004 	mov	r8, r4
    2c9c:	eaffff7a 	b	2a8c <io_printf+0x3c>
    2ca0:	e1a00005 	mov	r0, r5
    2ca4:	ebfffe0e 	bl	24e4 <io_put_char>
    2ca8:	e1a08004 	mov	r8, r4
    2cac:	eaffff76 	b	2a8c <io_printf+0x3c>
    2cb0:	e28dd014 	add	sp, sp, #20
    2cb4:	e8bd41f0 	pop	{r4, r5, r6, r7, r8, lr}
    2cb8:	e28dd00c 	add	sp, sp, #12
    2cbc:	e12fff1e 	bx	lr
    2cc0:	00400c18 	.word	0x00400c18
    2cc4:	4b524153 	.word	0x4b524153
    2cc8:	6970532f 	.word	0x6970532f
    2ccc:	6b614e4e 	.word	0x6b614e4e
    2cd0:	00007265 	.word	0x00007265

00002cd4 <S3_LEDS>:
    2cd4:	00010002 00000020                       .... ...

00002cdc <S2_LEDS>:
    2cdc:	00010003 00400002 615b0909 775f6970     ......@...[api_w
    2cec:	5d6e7261 72617720 676e696e 6f74203a     arn] warning: to
    2cfc:	616d206f 4620796e 65205149 746e6576     o many FIQ event
    2d0c:	00000a73 615b0909 775f6970 5d6e7261     s.....[api_warn]
    2d1c:	72617720 676e696e 6174203a 71206b73      warning: task q
    2d2c:	65756575 6c756620 2528206c 000a2975     ueue full (%u)..
    2d3c:	615b0909 775f6970 5d6e7261 72617720     ..[api_warn] war
    2d4c:	676e696e 4d44203a 75712041 20657565     ning: DMA queue 
    2d5c:	6c6c7566 75252820 00000a29 615b0909     full (%u).....[a
    2d6c:	775f6970 5d6e7261 72617720 676e696e     pi_warn] warning
    2d7c:	6170203a 74656b63 65757120 66206575     : packet queue f
    2d8c:	206c6c75 29752528 0000000a 615b0909     ull (%u)......[a
    2d9c:	775f6970 5d6e7261 72617720 676e696e     pi_warn] warning
    2dac:	6166203a 64656c69 206f7420 636e7973     : failed to sync
    2dbc:	6e6f7268 20657369 2f642528 20296425     hronise (%d/%d) 
    2dcc:	2f642528 2e296425 0000000a 615b0909     (%d/%d).......[a
    2ddc:	775f6970 5d6e7261 72617720 676e696e     pi_warn] warning
    2dec:	6166203a 64656c69 206f7420 636e7973     : failed to sync
    2dfc:	6e6f7268 20657369 2f642528 2e296425     hronise (%d/%d).
    2e0c:	0000000a 615b0909 775f6970 5d6e7261     ......[api_warn]
    2e1c:	72617720 676e696e 7973203a 7268636e      warning: synchr
    2e2c:	73696e6f 6f697461 6166206e 64656c69     onisation failed
    2e3c:	64722820 296f6779 00000a2e 615b0909      (rdygo)......[a
    2e4c:	775f6970 5d6e7261 72617720 676e696e     pi_warn] warning
    2e5c:	7973203a 7268636e 73696e6f 6f697461     : synchronisatio
    2e6c:	6166206e 64656c69 6f6c2820 2e296b63     n failed (lock).
    2e7c:	0000000a 615b0909 775f6970 5d6e7261     ......[api_warn]
    2e8c:	72617720 676e696e 7973203a 7268636e      warning: synchr
    2e9c:	73696e6f 6f697461 6974206e 756f656d     onisation timeou
    2eac:	67282074 0a2e296f 00000000 615b0909     t (go)........[a
    2ebc:	645f6970 67756265 4452205d 203a3159     pi_debug] RDY1: 
    2ecc:	7830206b 207a3825 7830206d 207a3825     k 0x%8z m 0x%8z 
    2edc:	78302072 0a7a3825 00000000 615b0909     r 0x%8z.......[a
    2eec:	775f6970 5d6e7261 72617720 676e696e     pi_warn] warning
    2efc:	6177203a 6e697469 6f662067 6f722072     : waiting for ro
    2f0c:	72657475 696e6920 61662074 64656c69     uter init failed
    2f1c:	00000a2e                                ....

00002f20 <hex>:
    2f20:	33323130 37363534 62613938 66656463     0123456789abcdef
    2f30:	00000000 deaddead                       ........

00002f38 <update>:
    2f38:	e92d4038 	push	{r3, r4, r5, lr}
    2f3c:	e1a04000 	mov	r4, r0
    2f40:	e59f3080 	ldr	r3, [pc, #128]	; 2fc8 <update+0x90>
    2f44:	e5933000 	ldr	r3, [r3]
    2f48:	e3530000 	cmp	r3, #0
    2f4c:	1a00000b 	bne	2f80 <update+0x48>
    2f50:	e59f5070 	ldr	r5, [pc, #112]	; 2fc8 <update+0x90>
    2f54:	e5950004 	ldr	r0, [r5, #4]
    2f58:	e5951008 	ldr	r1, [r5, #8]
    2f5c:	e1a02004 	mov	r2, r4
    2f60:	eb000417 	bl	3fc4 <updateError>
    2f64:	e59f3060 	ldr	r3, [pc, #96]	; 2fcc <update+0x94>
    2f68:	e5930000 	ldr	r0, [r3]
    2f6c:	eb00053a 	bl	445c <move>
    2f70:	e5850000 	str	r0, [r5]
    2f74:	e5950004 	ldr	r0, [r5, #4]
    2f78:	e5951008 	ldr	r1, [r5, #8]
    2f7c:	eb000179 	bl	3568 <send_err>
    2f80:	e59f3040 	ldr	r3, [pc, #64]	; 2fc8 <update+0x90>
    2f84:	e5933000 	ldr	r3, [r3]
    2f88:	e3530001 	cmp	r3, #1
    2f8c:	0a000008 	beq	2fb4 <update+0x7c>
    2f90:	e3530002 	cmp	r3, #2
    2f94:	08bd8038 	popeq	{r3, r4, r5, pc}
    2f98:	e59f3030 	ldr	r3, [pc, #48]	; 2fd0 <update+0x98>
    2f9c:	e0832394 	umull	r2, r3, r4, r3
    2fa0:	e1a033a3 	lsr	r3, r3, #7
    2fa4:	e3a02e7d 	mov	r2, #2000	; 0x7d0
    2fa8:	e0030392 	mul	r3, r2, r3
    2fac:	e1540003 	cmp	r4, r3
    2fb0:	18bd8038 	popne	{r3, r4, r5, pc}
    2fb4:	e3a00002 	mov	r0, #2
    2fb8:	e59f3008 	ldr	r3, [pc, #8]	; 2fc8 <update+0x90>
    2fbc:	e5830000 	str	r0, [r3]
    2fc0:	ebfff885 	bl	11dc <spin1_callback_off>
    2fc4:	e8bd8038 	pop	{r3, r4, r5, pc}
    2fc8:	00400048 	.word	0x00400048
    2fcc:	00400000 	.word	0x00400000
    2fd0:	10624dd3 	.word	0x10624dd3

00002fd4 <eventNode>:
    2fd4:	e92d4010 	push	{r4, lr}
    2fd8:	e200320f 	and	r3, r0, #-268435456	; 0xf0000000
    2fdc:	e353020a 	cmp	r3, #-1610612736	; 0xa0000000
    2fe0:	18bd8010 	popne	{r4, pc}
    2fe4:	e1a03a20 	lsr	r3, r0, #20
    2fe8:	e20330ff 	and	r3, r3, #255	; 0xff
    2fec:	e59f203c 	ldr	r2, [pc, #60]	; 3030 <eventNode+0x5c>
    2ff0:	e592200c 	ldr	r2, [r2, #12]
    2ff4:	e1530002 	cmp	r3, r2
    2ff8:	08bd8010 	popeq	{r4, pc}
    2ffc:	e59f4030 	ldr	r4, [pc, #48]	; 3034 <eventNode+0x60>
    3000:	e5942000 	ldr	r2, [r4]
    3004:	e2822001 	add	r2, r2, #1
    3008:	e5842000 	str	r2, [r4]
    300c:	e59fc01c 	ldr	ip, [pc, #28]	; 3030 <eventNode+0x5c>
    3010:	e58c300c 	str	r3, [ip, #12]
    3014:	eb000186 	bl	3634 <rec_err>
    3018:	eb0003a0 	bl	3ea0 <mfm_>
    301c:	e5940000 	ldr	r0, [r4]
    3020:	eb000544 	bl	4538 <update_A>
    3024:	eb00044b 	bl	4158 <update_V>
    3028:	eb0001aa 	bl	36d8 <send_upd>
    302c:	e8bd8010 	pop	{r4, pc}
    3030:	00400048 	.word	0x00400048
    3034:	00400000 	.word	0x00400000

00003038 <compute_pos>:
    3038:	e92d4038 	push	{r3, r4, r5, lr}
    303c:	e1a05000 	mov	r5, r0
    3040:	e1a04001 	mov	r4, r1
    3044:	e59f30bc 	ldr	r3, [pc, #188]	; 3108 <compute_pos+0xd0>
    3048:	e5933010 	ldr	r3, [r3, #16]
    304c:	e3530000 	cmp	r3, #0
    3050:	0a000009 	beq	307c <compute_pos+0x44>
    3054:	e59f30ac 	ldr	r3, [pc, #172]	; 3108 <compute_pos+0xd0>
    3058:	e5930004 	ldr	r0, [r3, #4]
    305c:	e5931008 	ldr	r1, [r3, #8]
    3060:	e0650000 	rsb	r0, r5, r0
    3064:	e0641001 	rsb	r1, r4, r1
    3068:	eb000632 	bl	4938 <norm>
    306c:	e59f1098 	ldr	r1, [pc, #152]	; 310c <compute_pos+0xd4>
    3070:	eb0012d7 	bl	7bd4 <__aeabi_fcmplt>
    3074:	e3500000 	cmp	r0, #0
    3078:	08bd8038 	popeq	{r3, r4, r5, pc}
    307c:	e59f3084 	ldr	r3, [pc, #132]	; 3108 <compute_pos+0xd0>
    3080:	e593c014 	ldr	ip, [r3, #20]
    3084:	e083210c 	add	r2, r3, ip, lsl #2
    3088:	e5930018 	ldr	r0, [r3, #24]
    308c:	e592101c 	ldr	r1, [r2, #28]
    3090:	e0610000 	rsb	r0, r1, r0
    3094:	e0800005 	add	r0, r0, r5
    3098:	e5830018 	str	r0, [r3, #24]
    309c:	e582501c 	str	r5, [r2, #28]
    30a0:	e593505c 	ldr	r5, [r3, #92]	; 0x5c
    30a4:	e5921060 	ldr	r1, [r2, #96]	; 0x60
    30a8:	e0611005 	rsb	r1, r1, r5
    30ac:	e0811004 	add	r1, r1, r4
    30b0:	e583105c 	str	r1, [r3, #92]	; 0x5c
    30b4:	e5824060 	str	r4, [r2, #96]	; 0x60
    30b8:	e1a00240 	asr	r0, r0, #4
    30bc:	e5830004 	str	r0, [r3, #4]
    30c0:	e1a01241 	asr	r1, r1, #4
    30c4:	e5831008 	str	r1, [r3, #8]
    30c8:	e5933010 	ldr	r3, [r3, #16]
    30cc:	e3530000 	cmp	r3, #0
    30d0:	1a000003 	bne	30e4 <compute_pos+0xac>
    30d4:	e35c000f 	cmp	ip, #15
    30d8:	03a02001 	moveq	r2, #1
    30dc:	059f3024 	ldreq	r3, [pc, #36]	; 3108 <compute_pos+0xd0>
    30e0:	05832010 	streq	r2, [r3, #16]
    30e4:	e28cc001 	add	ip, ip, #1
    30e8:	e1a03fcc 	asr	r3, ip, #31
    30ec:	e1a03e23 	lsr	r3, r3, #28
    30f0:	e08cc003 	add	ip, ip, r3
    30f4:	e20cc00f 	and	ip, ip, #15
    30f8:	e063300c 	rsb	r3, r3, ip
    30fc:	e59f2004 	ldr	r2, [pc, #4]	; 3108 <compute_pos+0xd0>
    3100:	e5823014 	str	r3, [r2, #20]
    3104:	e8bd8038 	pop	{r3, r4, r5, pc}
    3108:	00400048 	.word	0x00400048
    310c:	42c80000 	.word	0x42c80000

00003110 <eventMaster>:
    3110:	e92d4010 	push	{r4, lr}
    3114:	e1a04000 	mov	r4, r0
    3118:	e2003103 	and	r3, r0, #-1073741824	; 0xc0000000
    311c:	e3530101 	cmp	r3, #1073741824	; 0x40000000
    3120:	1a000001 	bne	312c <eventMaster+0x1c>
    3124:	eb0001ed 	bl	38e0 <rec_upd>
    3128:	e8bd8010 	pop	{r4, pc}
    312c:	e3100080 	tst	r0, #128	; 0x80
    3130:	08bd8010 	popeq	{r4, pc}
    3134:	ebfff834 	bl	120c <spin1_get_simulation_time>
    3138:	e3500000 	cmp	r0, #0
    313c:	08bd8010 	popeq	{r4, pc}
    3140:	e1a00424 	lsr	r0, r4, #8
    3144:	e200007f 	and	r0, r0, #127	; 0x7f
    3148:	e204107f 	and	r1, r4, #127	; 0x7f
    314c:	ebffffb9 	bl	3038 <compute_pos>
    3150:	e8bd8010 	pop	{r4, pc}

00003154 <c_main>:
    3154:	e92d4038 	push	{r3, r4, r5, lr}
    3158:	ebfffb69 	bl	1f04 <spin1_get_core_id>
    315c:	e59f30bc 	ldr	r3, [pc, #188]	; 3220 <c_main+0xcc>
    3160:	e5830000 	str	r0, [r3]
    3164:	ebfffb6a 	bl	1f14 <spin1_get_chip_id>
    3168:	e59f30b4 	ldr	r3, [pc, #180]	; 3224 <c_main+0xd0>
    316c:	e5830000 	str	r0, [r3]
    3170:	e3500000 	cmp	r0, #0
    3174:	1a000007 	bne	3198 <c_main+0x44>
    3178:	e59f30a0 	ldr	r3, [pc, #160]	; 3220 <c_main+0xcc>
    317c:	e5933000 	ldr	r3, [r3]
    3180:	e3530001 	cmp	r3, #1
    3184:	1a000003 	bne	3198 <c_main+0x44>
    3188:	e59f1098 	ldr	r1, [pc, #152]	; 3228 <c_main+0xd4>
    318c:	ebfffe2f 	bl	2a50 <io_printf>
    3190:	e59f0094 	ldr	r0, [pc, #148]	; 322c <c_main+0xd8>
    3194:	ebfff820 	bl	121c <spin1_set_timer_tick>
    3198:	e59f4084 	ldr	r4, [pc, #132]	; 3224 <c_main+0xd0>
    319c:	e59f507c 	ldr	r5, [pc, #124]	; 3220 <c_main+0xcc>
    31a0:	e5940000 	ldr	r0, [r4]
    31a4:	e5951000 	ldr	r1, [r5]
    31a8:	eb000535 	bl	4684 <initIO>
    31ac:	e5940000 	ldr	r0, [r4]
    31b0:	e5951000 	ldr	r1, [r5]
    31b4:	eb000582 	bl	47c4 <startDevices>
    31b8:	e5940000 	ldr	r0, [r4]
    31bc:	e5951000 	ldr	r1, [r5]
    31c0:	eb0002aa 	bl	3c70 <init_network>
    31c4:	e5943000 	ldr	r3, [r4]
    31c8:	e3530000 	cmp	r3, #0
    31cc:	1a00000b 	bne	3200 <c_main+0xac>
    31d0:	e5953000 	ldr	r3, [r5]
    31d4:	e3530001 	cmp	r3, #1
    31d8:	1a000008 	bne	3200 <c_main+0xac>
    31dc:	e3a00000 	mov	r0, #0
    31e0:	e59f1048 	ldr	r1, [pc, #72]	; 3230 <c_main+0xdc>
    31e4:	e1a02000 	mov	r2, r0
    31e8:	ebfff7dd 	bl	1164 <spin1_callback_on>
    31ec:	e3a00002 	mov	r0, #2
    31f0:	e59f103c 	ldr	r1, [pc, #60]	; 3234 <c_main+0xe0>
    31f4:	e3a02000 	mov	r2, #0
    31f8:	ebfff7d9 	bl	1164 <spin1_callback_on>
    31fc:	ea000003 	b	3210 <c_main+0xbc>
    3200:	e3a00000 	mov	r0, #0
    3204:	e59f102c 	ldr	r1, [pc, #44]	; 3238 <c_main+0xe4>
    3208:	e1a02000 	mov	r2, r0
    320c:	ebfff7d4 	bl	1164 <spin1_callback_on>
    3210:	e3a00000 	mov	r0, #0
    3214:	eb0007d3 	bl	5168 <srand>
    3218:	ebfff982 	bl	1828 <spin1_start>
    321c:	e8bd8038 	pop	{r3, r4, r5, pc}
    3220:	00400160 	.word	0x00400160
    3224:	00400164 	.word	0x00400164
    3228:	00007ca0 	.word	0x00007ca0
    322c:	000186a0 	.word	0x000186a0
    3230:	00003110 	.word	0x00003110
    3234:	00002f38 	.word	0x00002f38
    3238:	00002fd4 	.word	0x00002fd4

0000323c <load_>:
    323c:	e12fff1e 	bx	lr

00003240 <average_params>:
    3240:	e92d4ff8 	push	{r3, r4, r5, r6, r7, r8, r9, sl, fp, lr}
    3244:	e59f30a8 	ldr	r3, [pc, #168]	; 32f4 <average_params+0xb4>
    3248:	e8930003 	ldm	r3, {r0, r1}
    324c:	eb0005c2 	bl	495c <v_norm>
    3250:	e1a0b000 	mov	fp, r0
    3254:	e59f309c 	ldr	r3, [pc, #156]	; 32f8 <average_params+0xb8>
    3258:	e8930003 	ldm	r3, {r0, r1}
    325c:	eb0005be 	bl	495c <v_norm>
    3260:	e1a0a000 	mov	sl, r0
    3264:	e59f6090 	ldr	r6, [pc, #144]	; 32fc <average_params+0xbc>
    3268:	e5967000 	ldr	r7, [r6]
    326c:	e59f408c 	ldr	r4, [pc, #140]	; 3300 <average_params+0xc0>
    3270:	e0865107 	add	r5, r6, r7, lsl #2
    3274:	e5940000 	ldr	r0, [r4]
    3278:	e5951004 	ldr	r1, [r5, #4]
    327c:	eb0010d9 	bl	75e8 <__aeabi_fsub>
    3280:	e1a0100b 	mov	r1, fp
    3284:	eb0010d8 	bl	75ec <__addsf3>
    3288:	e1a09000 	mov	r9, r0
    328c:	e5840000 	str	r0, [r4]
    3290:	e5940004 	ldr	r0, [r4, #4]
    3294:	e5951014 	ldr	r1, [r5, #20]
    3298:	eb0010d2 	bl	75e8 <__aeabi_fsub>
    329c:	e1a0100a 	mov	r1, sl
    32a0:	eb0010d1 	bl	75ec <__addsf3>
    32a4:	e1a08000 	mov	r8, r0
    32a8:	e5840004 	str	r0, [r4, #4]
    32ac:	e585b004 	str	fp, [r5, #4]
    32b0:	e585a014 	str	sl, [r5, #20]
    32b4:	e1a00009 	mov	r0, r9
    32b8:	e3a015fa 	mov	r1, #1048576000	; 0x3e800000
    32bc:	eb00115b 	bl	7830 <__aeabi_fmul>
    32c0:	e5840008 	str	r0, [r4, #8]
    32c4:	e1a00008 	mov	r0, r8
    32c8:	e3a015fa 	mov	r1, #1048576000	; 0x3e800000
    32cc:	eb001157 	bl	7830 <__aeabi_fmul>
    32d0:	e584000c 	str	r0, [r4, #12]
    32d4:	e2877001 	add	r7, r7, #1
    32d8:	e1a03fc7 	asr	r3, r7, #31
    32dc:	e1a03f23 	lsr	r3, r3, #30
    32e0:	e0877003 	add	r7, r7, r3
    32e4:	e2077003 	and	r7, r7, #3
    32e8:	e0633007 	rsb	r3, r3, r7
    32ec:	e5863000 	str	r3, [r6]
    32f0:	e8bd8ff8 	pop	{r3, r4, r5, r6, r7, r8, r9, sl, fp, pc}
    32f4:	00400178 	.word	0x00400178
    32f8:	00400180 	.word	0x00400180
    32fc:	004000f4 	.word	0x004000f4
    3300:	00400014 	.word	0x00400014

00003304 <compute_speed>:
    3304:	e92d40f8 	push	{r3, r4, r5, r6, r7, lr}
    3308:	e59f30c8 	ldr	r3, [pc, #200]	; 33d8 <compute_speed+0xd4>
    330c:	e0832390 	umull	r2, r3, r0, r3
    3310:	e1a03123 	lsr	r3, r3, #2
    3314:	e0833103 	add	r3, r3, r3, lsl #2
    3318:	e1500003 	cmp	r0, r3
    331c:	18bd80f8 	popne	{r3, r4, r5, r6, r7, pc}
    3320:	e59f50b4 	ldr	r5, [pc, #180]	; 33dc <compute_speed+0xd8>
    3324:	e59f40b4 	ldr	r4, [pc, #180]	; 33e0 <compute_speed+0xdc>
    3328:	e5950000 	ldr	r0, [r5]
    332c:	e5941000 	ldr	r1, [r4]
    3330:	eb0010ac 	bl	75e8 <__aeabi_fsub>
    3334:	eb000ed6 	bl	6e94 <__aeabi_f2d>
    3338:	e3a02000 	mov	r2, #0
    333c:	e59f30a0 	ldr	r3, [pc, #160]	; 33e4 <compute_speed+0xe0>
    3340:	eb000f00 	bl	6f48 <__aeabi_dmul>
    3344:	e59f209c 	ldr	r2, [pc, #156]	; 33e8 <compute_speed+0xe4>
    3348:	e59f309c 	ldr	r3, [pc, #156]	; 33ec <compute_speed+0xe8>
    334c:	eb000efd 	bl	6f48 <__aeabi_dmul>
    3350:	e3a0220a 	mov	r2, #-1610612736	; 0xa0000000
    3354:	e59f3094 	ldr	r3, [pc, #148]	; 33f0 <compute_speed+0xec>
    3358:	eb000efa 	bl	6f48 <__aeabi_dmul>
    335c:	eb001077 	bl	7540 <__aeabi_d2f>
    3360:	e1a07000 	mov	r7, r0
    3364:	e59f6088 	ldr	r6, [pc, #136]	; 33f4 <compute_speed+0xf0>
    3368:	e5860000 	str	r0, [r6]
    336c:	e5950004 	ldr	r0, [r5, #4]
    3370:	e5941004 	ldr	r1, [r4, #4]
    3374:	eb00109b 	bl	75e8 <__aeabi_fsub>
    3378:	eb000ec5 	bl	6e94 <__aeabi_f2d>
    337c:	e3a02000 	mov	r2, #0
    3380:	e59f305c 	ldr	r3, [pc, #92]	; 33e4 <compute_speed+0xe0>
    3384:	eb000eef 	bl	6f48 <__aeabi_dmul>
    3388:	e59f2058 	ldr	r2, [pc, #88]	; 33e8 <compute_speed+0xe4>
    338c:	e59f3058 	ldr	r3, [pc, #88]	; 33ec <compute_speed+0xe8>
    3390:	eb000eec 	bl	6f48 <__aeabi_dmul>
    3394:	e3a0220a 	mov	r2, #-1610612736	; 0xa0000000
    3398:	e59f3050 	ldr	r3, [pc, #80]	; 33f0 <compute_speed+0xec>
    339c:	eb000ee9 	bl	6f48 <__aeabi_dmul>
    33a0:	eb001066 	bl	7540 <__aeabi_d2f>
    33a4:	e5860004 	str	r0, [r6, #4]
    33a8:	e1a00007 	mov	r0, r7
    33ac:	eb000552 	bl	48fc <f_abs>
    33b0:	e59f7040 	ldr	r7, [pc, #64]	; 33f8 <compute_speed+0xf4>
    33b4:	e5870024 	str	r0, [r7, #36]	; 0x24
    33b8:	e5960004 	ldr	r0, [r6, #4]
    33bc:	eb00054e 	bl	48fc <f_abs>
    33c0:	e5870028 	str	r0, [r7, #40]	; 0x28
    33c4:	e5953000 	ldr	r3, [r5]
    33c8:	e5843000 	str	r3, [r4]
    33cc:	e5953004 	ldr	r3, [r5, #4]
    33d0:	e5843004 	str	r3, [r4, #4]
    33d4:	e8bd80f8 	pop	{r3, r4, r5, r6, r7, pc}
    33d8:	cccccccd 	.word	0xcccccccd
    33dc:	00400178 	.word	0x00400178
    33e0:	00400188 	.word	0x00400188
    33e4:	40240000 	.word	0x40240000
    33e8:	9999999a 	.word	0x9999999a
    33ec:	3fc99999 	.word	0x3fc99999
    33f0:	3fb99999 	.word	0x3fb99999
    33f4:	00400180 	.word	0x00400180
    33f8:	004000f4 	.word	0x004000f4

000033fc <normalizeBallParams>:
    33fc:	e92d4070 	push	{r4, r5, r6, lr}
    3400:	e1a05001 	mov	r5, r1
    3404:	e1a06002 	mov	r6, r2
    3408:	e59f4094 	ldr	r4, [pc, #148]	; 34a4 <normalizeBallParams+0xa8>
    340c:	eb000e96 	bl	6e6c <__aeabi_i2d>
    3410:	e59f2090 	ldr	r2, [pc, #144]	; 34a8 <normalizeBallParams+0xac>
    3414:	e59f3090 	ldr	r3, [pc, #144]	; 34ac <normalizeBallParams+0xb0>
    3418:	eb000eca 	bl	6f48 <__aeabi_dmul>
    341c:	e59f208c 	ldr	r2, [pc, #140]	; 34b0 <normalizeBallParams+0xb4>
    3420:	e59f308c 	ldr	r3, [pc, #140]	; 34b4 <normalizeBallParams+0xb8>
    3424:	eb000ddc 	bl	6b9c <__adddf3>
    3428:	eb001044 	bl	7540 <__aeabi_d2f>
    342c:	e5840000 	str	r0, [r4]
    3430:	e1a00005 	mov	r0, r5
    3434:	eb000e8c 	bl	6e6c <__aeabi_i2d>
    3438:	e59f2078 	ldr	r2, [pc, #120]	; 34b8 <normalizeBallParams+0xbc>
    343c:	e59f3078 	ldr	r3, [pc, #120]	; 34bc <normalizeBallParams+0xc0>
    3440:	eb000ec0 	bl	6f48 <__aeabi_dmul>
    3444:	e59f2074 	ldr	r2, [pc, #116]	; 34c0 <normalizeBallParams+0xc4>
    3448:	e59f3074 	ldr	r3, [pc, #116]	; 34c4 <normalizeBallParams+0xc8>
    344c:	eb000dd1 	bl	6b98 <__aeabi_dsub>
    3450:	eb00103a 	bl	7540 <__aeabi_d2f>
    3454:	e5840004 	str	r0, [r4, #4]
    3458:	e8940003 	ldm	r4, {r0, r1}
    345c:	eb00053e 	bl	495c <v_norm>
    3460:	e1a05000 	mov	r5, r0
    3464:	e3a015fe 	mov	r1, #1065353216	; 0x3f800000
    3468:	eb0011e8 	bl	7c10 <__aeabi_fcmpgt>
    346c:	e3500000 	cmp	r0, #0
    3470:	0a000007 	beq	3494 <normalizeBallParams+0x98>
    3474:	e5940000 	ldr	r0, [r4]
    3478:	e1a01005 	mov	r1, r5
    347c:	eb001151 	bl	79c8 <__aeabi_fdiv>
    3480:	e5840000 	str	r0, [r4]
    3484:	e5940004 	ldr	r0, [r4, #4]
    3488:	e1a01005 	mov	r1, r5
    348c:	eb00114d 	bl	79c8 <__aeabi_fdiv>
    3490:	e5840004 	str	r0, [r4, #4]
    3494:	e1a00006 	mov	r0, r6
    3498:	ebffff99 	bl	3304 <compute_speed>
    349c:	ebffff67 	bl	3240 <average_params>
    34a0:	e8bd8070 	pop	{r4, r5, r6, pc}
    34a4:	00400178 	.word	0x00400178
    34a8:	fb2b78c1 	.word	0xfb2b78c1
    34ac:	bf93521c 	.word	0xbf93521c
    34b0:	9a90e7d9 	.word	0x9a90e7d9
    34b4:	3ff5bc60 	.word	0x3ff5bc60
    34b8:	29e4129e 	.word	0x29e4129e
    34bc:	3f929e41 	.word	0x3f929e41
    34c0:	1745d174 	.word	0x1745d174
    34c4:	3ff1745d 	.word	0x3ff1745d

000034c8 <r_pos_x>:
    34c8:	e92d4008 	push	{r3, lr}
    34cc:	e59f3014 	ldr	r3, [pc, #20]	; 34e8 <r_pos_x+0x20>
    34d0:	e5930000 	ldr	r0, [r3]
    34d4:	eb000508 	bl	48fc <f_abs>
    34d8:	e1a01000 	mov	r1, r0
    34dc:	e3a005fe 	mov	r0, #1065353216	; 0x3f800000
    34e0:	eb001040 	bl	75e8 <__aeabi_fsub>
    34e4:	e8bd8008 	pop	{r3, pc}
    34e8:	00400178 	.word	0x00400178

000034ec <r_pos_y>:
    34ec:	e92d4008 	push	{r3, lr}
    34f0:	e59f3014 	ldr	r3, [pc, #20]	; 350c <r_pos_y+0x20>
    34f4:	e5930004 	ldr	r0, [r3, #4]
    34f8:	eb0004ff 	bl	48fc <f_abs>
    34fc:	e1a01000 	mov	r1, r0
    3500:	e3a005fe 	mov	r0, #1065353216	; 0x3f800000
    3504:	eb001037 	bl	75e8 <__aeabi_fsub>
    3508:	e8bd8008 	pop	{r3, pc}
    350c:	00400178 	.word	0x00400178

00003510 <R_x>:
    3510:	e92d4008 	push	{r3, lr}
    3514:	ebffffeb 	bl	34c8 <r_pos_x>
    3518:	e59f3014 	ldr	r3, [pc, #20]	; 3534 <R_x+0x24>
    351c:	e5931024 	ldr	r1, [r3, #36]	; 0x24
    3520:	eb001030 	bl	75e8 <__aeabi_fsub>
    3524:	e59f100c 	ldr	r1, [pc, #12]	; 3538 <R_x+0x28>
    3528:	e3a025fe 	mov	r2, #1065353216	; 0x3f800000
    352c:	eb0004e2 	bl	48bc <range>
    3530:	e8bd8008 	pop	{r3, pc}
    3534:	004000f4 	.word	0x004000f4
    3538:	bf800000 	.word	0xbf800000

0000353c <R_y>:
    353c:	e92d4008 	push	{r3, lr}
    3540:	ebffffe9 	bl	34ec <r_pos_y>
    3544:	e59f3014 	ldr	r3, [pc, #20]	; 3560 <R_y+0x24>
    3548:	e5931028 	ldr	r1, [r3, #40]	; 0x28
    354c:	eb001025 	bl	75e8 <__aeabi_fsub>
    3550:	e59f100c 	ldr	r1, [pc, #12]	; 3564 <R_y+0x28>
    3554:	e3a025fe 	mov	r2, #1065353216	; 0x3f800000
    3558:	eb0004d7 	bl	48bc <range>
    355c:	e8bd8008 	pop	{r3, pc}
    3560:	004000f4 	.word	0x004000f4
    3564:	bf800000 	.word	0xbf800000

00003568 <send_err>:
    3568:	e92d4070 	push	{r4, r5, r6, lr}
    356c:	e1815400 	orr	r5, r1, r0, lsl #8
    3570:	e59f30ac 	ldr	r3, [pc, #172]	; 3624 <send_err+0xbc>
    3574:	e5934010 	ldr	r4, [r3, #16]
    3578:	e1a00004 	mov	r0, r4
    357c:	e3a01000 	mov	r1, #0
    3580:	eb001193 	bl	7bd4 <__aeabi_fcmplt>
    3584:	e3500000 	cmp	r0, #0
    3588:	e385520a 	orr	r5, r5, #-1610612736	; 0xa0000000
    358c:	13855802 	orrne	r5, r5, #131072	; 0x20000
    3590:	12840102 	addne	r0, r4, #-2147483648	; 0x80000000
    3594:	01a00004 	moveq	r0, r4
    3598:	eb000e3d 	bl	6e94 <__aeabi_f2d>
    359c:	e3a02000 	mov	r2, #0
    35a0:	e59f3080 	ldr	r3, [pc, #128]	; 3628 <send_err+0xc0>
    35a4:	eb000e67 	bl	6f48 <__aeabi_dmul>
    35a8:	eb000fcd 	bl	74e4 <__aeabi_d2iz>
    35ac:	e1a06800 	lsl	r6, r0, #16
    35b0:	e59f306c 	ldr	r3, [pc, #108]	; 3624 <send_err+0xbc>
    35b4:	e5934014 	ldr	r4, [r3, #20]
    35b8:	e1a00004 	mov	r0, r4
    35bc:	e3a01000 	mov	r1, #0
    35c0:	eb001183 	bl	7bd4 <__aeabi_fcmplt>
    35c4:	e3500000 	cmp	r0, #0
    35c8:	13855801 	orrne	r5, r5, #65536	; 0x10000
    35cc:	12840102 	addne	r0, r4, #-2147483648	; 0x80000000
    35d0:	01a00004 	moveq	r0, r4
    35d4:	eb000e2e 	bl	6e94 <__aeabi_f2d>
    35d8:	e3a02000 	mov	r2, #0
    35dc:	e59f3044 	ldr	r3, [pc, #68]	; 3628 <send_err+0xc0>
    35e0:	eb000e58 	bl	6f48 <__aeabi_dmul>
    35e4:	eb000fbe 	bl	74e4 <__aeabi_d2iz>
    35e8:	e1861000 	orr	r1, r6, r0
    35ec:	e59f2038 	ldr	r2, [pc, #56]	; 362c <send_err+0xc4>
    35f0:	e592c02c 	ldr	ip, [r2, #44]	; 0x2c
    35f4:	e28cc001 	add	ip, ip, #1
    35f8:	e59f3030 	ldr	r3, [pc, #48]	; 3630 <send_err+0xc8>
    35fc:	e083039c 	umull	r0, r3, ip, r3
    3600:	e1a00223 	lsr	r0, r3, #4
    3604:	e3a0e032 	mov	lr, #50	; 0x32
    3608:	e003009e 	mul	r3, lr, r0
    360c:	e063000c 	rsb	r0, r3, ip
    3610:	e582002c 	str	r0, [r2, #44]	; 0x2c
    3614:	e1850a00 	orr	r0, r5, r0, lsl #20
    3618:	e3a02001 	mov	r2, #1
    361c:	ebfff827 	bl	16c0 <spin1_send_mc_packet>
    3620:	e8bd8070 	pop	{r4, r5, r6, pc}
    3624:	00400014 	.word	0x00400014
    3628:	40c38800 	.word	0x40c38800
    362c:	004000f4 	.word	0x004000f4
    3630:	51eb851f 	.word	0x51eb851f

00003634 <rec_err>:
    3634:	e92d4070 	push	{r4, r5, r6, lr}
    3638:	e1a04000 	mov	r4, r0
    363c:	e1a05001 	mov	r5, r1
    3640:	e1a00420 	lsr	r0, r0, #8
    3644:	e20410ff 	and	r1, r4, #255	; 0xff
    3648:	e20000ff 	and	r0, r0, #255	; 0xff
    364c:	ebffff6a 	bl	33fc <normalizeBallParams>
    3650:	e3140802 	tst	r4, #131072	; 0x20000
    3654:	0a000006 	beq	3674 <rec_err+0x40>
    3658:	e1a00825 	lsr	r0, r5, #16
    365c:	eb001046 	bl	777c <__aeabi_ui2f>
    3660:	e2800102 	add	r0, r0, #-2147483648	; 0x80000000
    3664:	e59f1064 	ldr	r1, [pc, #100]	; 36d0 <rec_err+0x9c>
    3668:	eb0010d6 	bl	79c8 <__aeabi_fdiv>
    366c:	e1a06000 	mov	r6, r0
    3670:	ea000004 	b	3688 <rec_err+0x54>
    3674:	e1a00825 	lsr	r0, r5, #16
    3678:	eb00103f 	bl	777c <__aeabi_ui2f>
    367c:	e59f104c 	ldr	r1, [pc, #76]	; 36d0 <rec_err+0x9c>
    3680:	eb0010d0 	bl	79c8 <__aeabi_fdiv>
    3684:	e1a06000 	mov	r6, r0
    3688:	e3140801 	tst	r4, #65536	; 0x10000
    368c:	0a000006 	beq	36ac <rec_err+0x78>
    3690:	e1a00805 	lsl	r0, r5, #16
    3694:	e1a00820 	lsr	r0, r0, #16
    3698:	eb001037 	bl	777c <__aeabi_ui2f>
    369c:	e2800102 	add	r0, r0, #-2147483648	; 0x80000000
    36a0:	e59f1028 	ldr	r1, [pc, #40]	; 36d0 <rec_err+0x9c>
    36a4:	eb0010c7 	bl	79c8 <__aeabi_fdiv>
    36a8:	ea000004 	b	36c0 <rec_err+0x8c>
    36ac:	e1a00805 	lsl	r0, r5, #16
    36b0:	e1a00820 	lsr	r0, r0, #16
    36b4:	eb001030 	bl	777c <__aeabi_ui2f>
    36b8:	e59f1010 	ldr	r1, [pc, #16]	; 36d0 <rec_err+0x9c>
    36bc:	eb0010c1 	bl	79c8 <__aeabi_fdiv>
    36c0:	e59f300c 	ldr	r3, [pc, #12]	; 36d4 <rec_err+0xa0>
    36c4:	e5836010 	str	r6, [r3, #16]
    36c8:	e5830014 	str	r0, [r3, #20]
    36cc:	e8bd8070 	pop	{r4, r5, r6, pc}
    36d0:	461c4000 	.word	0x461c4000
    36d4:	00400014 	.word	0x00400014

000036d8 <send_upd>:
    36d8:	e92d47f0 	push	{r4, r5, r6, r7, r8, r9, sl, lr}
    36dc:	e59f31e4 	ldr	r3, [pc, #484]	; 38c8 <send_upd+0x1f0>
    36e0:	e5939000 	ldr	r9, [r3]
    36e4:	e59f41e0 	ldr	r4, [pc, #480]	; 38cc <send_upd+0x1f4>
    36e8:	e5946030 	ldr	r6, [r4, #48]	; 0x30
    36ec:	e1a00006 	mov	r0, r6
    36f0:	e5941034 	ldr	r1, [r4, #52]	; 0x34
    36f4:	eb00104d 	bl	7830 <__aeabi_fmul>
    36f8:	e1a07000 	mov	r7, r0
    36fc:	e5945038 	ldr	r5, [r4, #56]	; 0x38
    3700:	e1a00005 	mov	r0, r5
    3704:	e594103c 	ldr	r1, [r4, #60]	; 0x3c
    3708:	eb001048 	bl	7830 <__aeabi_fmul>
    370c:	e1a08000 	mov	r8, r0
    3710:	e1a00006 	mov	r0, r6
    3714:	e5941040 	ldr	r1, [r4, #64]	; 0x40
    3718:	eb001044 	bl	7830 <__aeabi_fmul>
    371c:	e1a06000 	mov	r6, r0
    3720:	e1a00005 	mov	r0, r5
    3724:	e5941044 	ldr	r1, [r4, #68]	; 0x44
    3728:	eb001040 	bl	7830 <__aeabi_fmul>
    372c:	e1a0a000 	mov	sl, r0
    3730:	e59f5198 	ldr	r5, [pc, #408]	; 38d0 <send_upd+0x1f8>
    3734:	e3a045fe 	mov	r4, #1065353216	; 0x3f800000
    3738:	e1a00007 	mov	r0, r7
    373c:	e1a01005 	mov	r1, r5
    3740:	e1a02004 	mov	r2, r4
    3744:	eb00045c 	bl	48bc <range>
    3748:	e1a07000 	mov	r7, r0
    374c:	e1a00008 	mov	r0, r8
    3750:	e1a01005 	mov	r1, r5
    3754:	e1a02004 	mov	r2, r4
    3758:	eb000457 	bl	48bc <range>
    375c:	e1a08000 	mov	r8, r0
    3760:	e1a00006 	mov	r0, r6
    3764:	e1a01005 	mov	r1, r5
    3768:	e1a02004 	mov	r2, r4
    376c:	eb000452 	bl	48bc <range>
    3770:	e1a06000 	mov	r6, r0
    3774:	e1a0000a 	mov	r0, sl
    3778:	e1a01005 	mov	r1, r5
    377c:	e1a02004 	mov	r2, r4
    3780:	eb00044d 	bl	48bc <range>
    3784:	e1a04000 	mov	r4, r0
    3788:	e59f3144 	ldr	r3, [pc, #324]	; 38d4 <send_upd+0x1fc>
    378c:	e5933000 	ldr	r3, [r3]
    3790:	e2433001 	sub	r3, r3, #1
    3794:	e1a02429 	lsr	r2, r9, #8
    3798:	e0833282 	add	r3, r3, r2, lsl #5
    379c:	e20990ff 	and	r9, r9, #255	; 0xff
    37a0:	e0839209 	add	r9, r3, r9, lsl #4
    37a4:	e1a00008 	mov	r0, r8
    37a8:	e3a01000 	mov	r1, #0
    37ac:	eb001108 	bl	7bd4 <__aeabi_fcmplt>
    37b0:	e3500000 	cmp	r0, #0
    37b4:	0a000008 	beq	37dc <send_upd+0x104>
    37b8:	e2880102 	add	r0, r8, #-2147483648	; 0x80000000
    37bc:	eb000db4 	bl	6e94 <__aeabi_f2d>
    37c0:	e3a02000 	mov	r2, #0
    37c4:	e59f310c 	ldr	r3, [pc, #268]	; 38d8 <send_upd+0x200>
    37c8:	eb000dde 	bl	6f48 <__aeabi_dmul>
    37cc:	eb000f44 	bl	74e4 <__aeabi_d2iz>
    37d0:	e1a00500 	lsl	r0, r0, #10
    37d4:	e3805206 	orr	r5, r0, #1610612736	; 0x60000000
    37d8:	ea000007 	b	37fc <send_upd+0x124>
    37dc:	e1a00008 	mov	r0, r8
    37e0:	eb000dab 	bl	6e94 <__aeabi_f2d>
    37e4:	e3a02000 	mov	r2, #0
    37e8:	e59f30e8 	ldr	r3, [pc, #232]	; 38d8 <send_upd+0x200>
    37ec:	eb000dd5 	bl	6f48 <__aeabi_dmul>
    37f0:	eb000f3b 	bl	74e4 <__aeabi_d2iz>
    37f4:	e1a00500 	lsl	r0, r0, #10
    37f8:	e3805101 	orr	r5, r0, #1073741824	; 0x40000000
    37fc:	e1a00007 	mov	r0, r7
    3800:	e3a01000 	mov	r1, #0
    3804:	eb0010f2 	bl	7bd4 <__aeabi_fcmplt>
    3808:	e3500000 	cmp	r0, #0
    380c:	0a000008 	beq	3834 <send_upd+0x15c>
    3810:	e2870102 	add	r0, r7, #-2147483648	; 0x80000000
    3814:	eb000d9e 	bl	6e94 <__aeabi_f2d>
    3818:	e3a02000 	mov	r2, #0
    381c:	e59f30b4 	ldr	r3, [pc, #180]	; 38d8 <send_upd+0x200>
    3820:	eb000dc8 	bl	6f48 <__aeabi_dmul>
    3824:	eb000f2e 	bl	74e4 <__aeabi_d2iz>
    3828:	e3800201 	orr	r0, r0, #268435456	; 0x10000000
    382c:	e1805005 	orr	r5, r0, r5
    3830:	ea000006 	b	3850 <send_upd+0x178>
    3834:	e1a00007 	mov	r0, r7
    3838:	eb000d95 	bl	6e94 <__aeabi_f2d>
    383c:	e3a02000 	mov	r2, #0
    3840:	e59f3090 	ldr	r3, [pc, #144]	; 38d8 <send_upd+0x200>
    3844:	eb000dbf 	bl	6f48 <__aeabi_dmul>
    3848:	eb000f25 	bl	74e4 <__aeabi_d2iz>
    384c:	e1855000 	orr	r5, r5, r0
    3850:	e1a00006 	mov	r0, r6
    3854:	e3a01000 	mov	r1, #0
    3858:	eb0010dd 	bl	7bd4 <__aeabi_fcmplt>
    385c:	e3500000 	cmp	r0, #0
    3860:	13855302 	orrne	r5, r5, #134217728	; 0x8000000
    3864:	12860102 	addne	r0, r6, #-2147483648	; 0x80000000
    3868:	01a00006 	moveq	r0, r6
    386c:	eb000d88 	bl	6e94 <__aeabi_f2d>
    3870:	e3a02000 	mov	r2, #0
    3874:	e59f3060 	ldr	r3, [pc, #96]	; 38dc <send_upd+0x204>
    3878:	eb000db2 	bl	6f48 <__aeabi_dmul>
    387c:	eb000f18 	bl	74e4 <__aeabi_d2iz>
    3880:	e1a06800 	lsl	r6, r0, #16
    3884:	e1a00004 	mov	r0, r4
    3888:	e3a01000 	mov	r1, #0
    388c:	eb0010d0 	bl	7bd4 <__aeabi_fcmplt>
    3890:	e3500000 	cmp	r0, #0
    3894:	13855301 	orrne	r5, r5, #67108864	; 0x4000000
    3898:	12840102 	addne	r0, r4, #-2147483648	; 0x80000000
    389c:	01a00004 	moveq	r0, r4
    38a0:	eb000d7b 	bl	6e94 <__aeabi_f2d>
    38a4:	e3a02000 	mov	r2, #0
    38a8:	e59f302c 	ldr	r3, [pc, #44]	; 38dc <send_upd+0x204>
    38ac:	eb000da5 	bl	6f48 <__aeabi_dmul>
    38b0:	eb000f0b 	bl	74e4 <__aeabi_d2iz>
    38b4:	e1861000 	orr	r1, r6, r0
    38b8:	e1850a09 	orr	r0, r5, r9, lsl #20
    38bc:	e3a02001 	mov	r2, #1
    38c0:	ebfff77e 	bl	16c0 <spin1_send_mc_packet>
    38c4:	e8bd87f0 	pop	{r4, r5, r6, r7, r8, r9, sl, pc}
    38c8:	00400164 	.word	0x00400164
    38cc:	004000f4 	.word	0x004000f4
    38d0:	bf800000 	.word	0xbf800000
    38d4:	00400160 	.word	0x00400160
    38d8:	408f4000 	.word	0x408f4000
    38dc:	40c38800 	.word	0x40c38800

000038e0 <rec_upd>:
    38e0:	e92d4ff8 	push	{r3, r4, r5, r6, r7, r8, r9, sl, fp, lr}
    38e4:	e1a04000 	mov	r4, r0
    38e8:	e1a05001 	mov	r5, r1
    38ec:	e1a0bea0 	lsr	fp, r0, #29
    38f0:	e20bb001 	and	fp, fp, #1
    38f4:	e1a0ada0 	lsr	sl, r0, #27
    38f8:	e20aa001 	and	sl, sl, #1
    38fc:	e1a09d20 	lsr	r9, r0, #26
    3900:	e2099001 	and	r9, r9, #1
    3904:	e1a00b00 	lsl	r0, r0, #22
    3908:	e1a00b20 	lsr	r0, r0, #22
    390c:	eb000f9c 	bl	7784 <__aeabi_i2f>
    3910:	e1a08000 	mov	r8, r0
    3914:	e1a00604 	lsl	r0, r4, #12
    3918:	e1a00b20 	lsr	r0, r0, #22
    391c:	eb000f98 	bl	7784 <__aeabi_i2f>
    3920:	e1a07000 	mov	r7, r0
    3924:	e1a00825 	lsr	r0, r5, #16
    3928:	eb000f95 	bl	7784 <__aeabi_i2f>
    392c:	e1a06000 	mov	r6, r0
    3930:	e1a00805 	lsl	r0, r5, #16
    3934:	e1a00820 	lsr	r0, r0, #16
    3938:	eb000f91 	bl	7784 <__aeabi_i2f>
    393c:	e1a05000 	mov	r5, r0
    3940:	e3140201 	tst	r4, #268435456	; 0x10000000
    3944:	12888102 	addne	r8, r8, #-2147483648	; 0x80000000
    3948:	e35b0001 	cmp	fp, #1
    394c:	02877102 	addeq	r7, r7, #-2147483648	; 0x80000000
    3950:	e35a0001 	cmp	sl, #1
    3954:	02866102 	addeq	r6, r6, #-2147483648	; 0x80000000
    3958:	e3590001 	cmp	r9, #1
    395c:	02805102 	addeq	r5, r0, #-2147483648	; 0x80000000
    3960:	e59f4044 	ldr	r4, [pc, #68]	; 39ac <rec_upd+0xcc>
    3964:	e5940048 	ldr	r0, [r4, #72]	; 0x48
    3968:	e1a01008 	mov	r1, r8
    396c:	eb000f1e 	bl	75ec <__addsf3>
    3970:	e5840048 	str	r0, [r4, #72]	; 0x48
    3974:	e594004c 	ldr	r0, [r4, #76]	; 0x4c
    3978:	e1a01007 	mov	r1, r7
    397c:	eb000f1a 	bl	75ec <__addsf3>
    3980:	e584004c 	str	r0, [r4, #76]	; 0x4c
    3984:	e5940050 	ldr	r0, [r4, #80]	; 0x50
    3988:	e1a01006 	mov	r1, r6
    398c:	eb000f16 	bl	75ec <__addsf3>
    3990:	e5840050 	str	r0, [r4, #80]	; 0x50
    3994:	e59f4014 	ldr	r4, [pc, #20]	; 39b0 <rec_upd+0xd0>
    3998:	e5940000 	ldr	r0, [r4]
    399c:	e1a01005 	mov	r1, r5
    39a0:	eb000f11 	bl	75ec <__addsf3>
    39a4:	e5840000 	str	r0, [r4]
    39a8:	e8bd8ff8 	pop	{r3, r4, r5, r6, r7, r8, r9, sl, fp, pc}
    39ac:	004000f4 	.word	0x004000f4
    39b0:	00400190 	.word	0x00400190

000039b4 <init_MFM>:
    39b4:	e92d47f0 	push	{r4, r5, r6, r7, r8, r9, sl, lr}
    39b8:	e24dd010 	sub	sp, sp, #16
    39bc:	e59f314c 	ldr	r3, [pc, #332]	; 3b10 <init_MFM+0x15c>
    39c0:	e593a000 	ldr	sl, [r3]
    39c4:	e20a60ff 	and	r6, sl, #255	; 0xff
    39c8:	e1a0a42a 	lsr	sl, sl, #8
    39cc:	e59f3140 	ldr	r3, [pc, #320]	; 3b14 <init_MFM+0x160>
    39d0:	e5935000 	ldr	r5, [r3]
    39d4:	e2050003 	and	r0, r5, #3
    39d8:	eb000f69 	bl	7784 <__aeabi_i2f>
    39dc:	e3a015fa 	mov	r1, #1048576000	; 0x3e800000
    39e0:	eb000f92 	bl	7830 <__aeabi_fmul>
    39e4:	e1a04000 	mov	r4, r0
    39e8:	e1a00125 	lsr	r0, r5, #2
    39ec:	eb000f64 	bl	7784 <__aeabi_i2f>
    39f0:	e3a015fa 	mov	r1, #1048576000	; 0x3e800000
    39f4:	eb000f8d 	bl	7830 <__aeabi_fmul>
    39f8:	e1a07000 	mov	r7, r0
    39fc:	e1a00004 	mov	r0, r4
    3a00:	e3a01000 	mov	r1, #0
    3a04:	eb00106d 	bl	7bc0 <__aeabi_fcmpeq>
    3a08:	e3500000 	cmp	r0, #0
    3a0c:	159f4104 	ldrne	r4, [pc, #260]	; 3b18 <init_MFM+0x164>
    3a10:	e1a00004 	mov	r0, r4
    3a14:	eb000d1e 	bl	6e94 <__aeabi_f2d>
    3a18:	e59f20fc 	ldr	r2, [pc, #252]	; 3b1c <init_MFM+0x168>
    3a1c:	e59f30fc 	ldr	r3, [pc, #252]	; 3b20 <init_MFM+0x16c>
    3a20:	eb000c5c 	bl	6b98 <__aeabi_dsub>
    3a24:	eb0004eb 	bl	4dd8 <sqrt>
    3a28:	e59f20f4 	ldr	r2, [pc, #244]	; 3b24 <init_MFM+0x170>
    3a2c:	e59f30f4 	ldr	r3, [pc, #244]	; 3b28 <init_MFM+0x174>
    3a30:	eb000d44 	bl	6f48 <__aeabi_dmul>
    3a34:	eb000ec1 	bl	7540 <__aeabi_d2f>
    3a38:	eb000d15 	bl	6e94 <__aeabi_f2d>
    3a3c:	e1a04000 	mov	r4, r0
    3a40:	e1a05001 	mov	r5, r1
    3a44:	e1a00007 	mov	r0, r7
    3a48:	eb000d11 	bl	6e94 <__aeabi_f2d>
    3a4c:	e59f20d8 	ldr	r2, [pc, #216]	; 3b2c <init_MFM+0x178>
    3a50:	e59f30d8 	ldr	r3, [pc, #216]	; 3b30 <init_MFM+0x17c>
    3a54:	eb000d3b 	bl	6f48 <__aeabi_dmul>
    3a58:	e1a08000 	mov	r8, r0
    3a5c:	e1a09001 	mov	r9, r1
    3a60:	e1a00006 	mov	r0, r6
    3a64:	eb000d00 	bl	6e6c <__aeabi_i2d>
    3a68:	e1a06000 	mov	r6, r0
    3a6c:	e1a07001 	mov	r7, r1
    3a70:	e1a0000a 	mov	r0, sl
    3a74:	eb000cfc 	bl	6e6c <__aeabi_i2d>
    3a78:	e1a02000 	mov	r2, r0
    3a7c:	e1a03001 	mov	r3, r1
    3a80:	eb000c45 	bl	6b9c <__adddf3>
    3a84:	e1a02000 	mov	r2, r0
    3a88:	e1a03001 	mov	r3, r1
    3a8c:	e1a00006 	mov	r0, r6
    3a90:	e1a01007 	mov	r1, r7
    3a94:	eb000c40 	bl	6b9c <__adddf3>
    3a98:	e59f208c 	ldr	r2, [pc, #140]	; 3b2c <init_MFM+0x178>
    3a9c:	e59f308c 	ldr	r3, [pc, #140]	; 3b30 <init_MFM+0x17c>
    3aa0:	eb000d28 	bl	6f48 <__aeabi_dmul>
    3aa4:	e1a02000 	mov	r2, r0
    3aa8:	e1a03001 	mov	r3, r1
    3aac:	e1a00008 	mov	r0, r8
    3ab0:	e1a01009 	mov	r1, r9
    3ab4:	eb000c38 	bl	6b9c <__adddf3>
    3ab8:	eb000ea0 	bl	7540 <__aeabi_d2f>
    3abc:	eb000cf4 	bl	6e94 <__aeabi_f2d>
    3ac0:	e28d2008 	add	r2, sp, #8
    3ac4:	e1a0300d 	mov	r3, sp
    3ac8:	eb00045b 	bl	4c3c <sincos>
    3acc:	e1cd60d8 	ldrd	r6, [sp, #8]
    3ad0:	e59f805c 	ldr	r8, [pc, #92]	; 3b34 <init_MFM+0x180>
    3ad4:	e1a00004 	mov	r0, r4
    3ad8:	e1a01005 	mov	r1, r5
    3adc:	e1cd20d0 	ldrd	r2, [sp]
    3ae0:	eb000d18 	bl	6f48 <__aeabi_dmul>
    3ae4:	eb000e95 	bl	7540 <__aeabi_d2f>
    3ae8:	e5880000 	str	r0, [r8]
    3aec:	e1a00004 	mov	r0, r4
    3af0:	e1a01005 	mov	r1, r5
    3af4:	e1a02006 	mov	r2, r6
    3af8:	e1a03007 	mov	r3, r7
    3afc:	eb000d11 	bl	6f48 <__aeabi_dmul>
    3b00:	eb000e8e 	bl	7540 <__aeabi_d2f>
    3b04:	e5880004 	str	r0, [r8, #4]
    3b08:	e28dd010 	add	sp, sp, #16
    3b0c:	e8bd87f0 	pop	{r4, r5, r6, r7, r8, r9, sl, pc}
    3b10:	00400164 	.word	0x00400164
    3b14:	00400160 	.word	0x00400160
    3b18:	3db851ec 	.word	0x3db851ec
    3b1c:	9999999a 	.word	0x9999999a
    3b20:	3fa99999 	.word	0x3fa99999
    3b24:	66666666 	.word	0x66666666
    3b28:	3ff26666 	.word	0x3ff26666
    3b2c:	e8640208 	.word	0xe8640208
    3b30:	3ff921d8 	.word	0x3ff921d8
    3b34:	00400170 	.word	0x00400170

00003b38 <init_params_>:
    3b38:	e92d4010 	push	{r4, lr}
    3b3c:	eb00058f 	bl	5180 <rand>
    3b40:	e59f4110 	ldr	r4, [pc, #272]	; 3c58 <init_params_+0x120>
    3b44:	eb000f0e 	bl	7784 <__aeabi_i2f>
    3b48:	e3a01203 	mov	r1, #805306368	; 0x30000000
    3b4c:	eb000f37 	bl	7830 <__aeabi_fmul>
    3b50:	eb000ccf 	bl	6e94 <__aeabi_f2d>
    3b54:	e3a02000 	mov	r2, #0
    3b58:	e59f30fc 	ldr	r3, [pc, #252]	; 3c5c <init_params_+0x124>
    3b5c:	eb000d94 	bl	71b4 <__aeabi_ddiv>
    3b60:	e59f20f8 	ldr	r2, [pc, #248]	; 3c60 <init_params_+0x128>
    3b64:	e59f30f8 	ldr	r3, [pc, #248]	; 3c64 <init_params_+0x12c>
    3b68:	eb000c0a 	bl	6b98 <__aeabi_dsub>
    3b6c:	eb000e73 	bl	7540 <__aeabi_d2f>
    3b70:	e5840034 	str	r0, [r4, #52]	; 0x34
    3b74:	eb000581 	bl	5180 <rand>
    3b78:	eb000f01 	bl	7784 <__aeabi_i2f>
    3b7c:	e3a01203 	mov	r1, #805306368	; 0x30000000
    3b80:	eb000f2a 	bl	7830 <__aeabi_fmul>
    3b84:	eb000cc2 	bl	6e94 <__aeabi_f2d>
    3b88:	e3a02000 	mov	r2, #0
    3b8c:	e59f30c8 	ldr	r3, [pc, #200]	; 3c5c <init_params_+0x124>
    3b90:	eb000d87 	bl	71b4 <__aeabi_ddiv>
    3b94:	e59f20c4 	ldr	r2, [pc, #196]	; 3c60 <init_params_+0x128>
    3b98:	e59f30c4 	ldr	r3, [pc, #196]	; 3c64 <init_params_+0x12c>
    3b9c:	eb000bfd 	bl	6b98 <__aeabi_dsub>
    3ba0:	eb000e66 	bl	7540 <__aeabi_d2f>
    3ba4:	e584003c 	str	r0, [r4, #60]	; 0x3c
    3ba8:	eb000574 	bl	5180 <rand>
    3bac:	eb000ef4 	bl	7784 <__aeabi_i2f>
    3bb0:	e3a01203 	mov	r1, #805306368	; 0x30000000
    3bb4:	eb000f1d 	bl	7830 <__aeabi_fmul>
    3bb8:	eb000cb5 	bl	6e94 <__aeabi_f2d>
    3bbc:	e3a02000 	mov	r2, #0
    3bc0:	e59f3094 	ldr	r3, [pc, #148]	; 3c5c <init_params_+0x124>
    3bc4:	eb000d7a 	bl	71b4 <__aeabi_ddiv>
    3bc8:	e59f2090 	ldr	r2, [pc, #144]	; 3c60 <init_params_+0x128>
    3bcc:	e59f3090 	ldr	r3, [pc, #144]	; 3c64 <init_params_+0x12c>
    3bd0:	eb000bf0 	bl	6b98 <__aeabi_dsub>
    3bd4:	eb000e59 	bl	7540 <__aeabi_d2f>
    3bd8:	e5840040 	str	r0, [r4, #64]	; 0x40
    3bdc:	eb000567 	bl	5180 <rand>
    3be0:	eb000ee7 	bl	7784 <__aeabi_i2f>
    3be4:	e3a01203 	mov	r1, #805306368	; 0x30000000
    3be8:	eb000f10 	bl	7830 <__aeabi_fmul>
    3bec:	eb000ca8 	bl	6e94 <__aeabi_f2d>
    3bf0:	e3a02000 	mov	r2, #0
    3bf4:	e59f3060 	ldr	r3, [pc, #96]	; 3c5c <init_params_+0x124>
    3bf8:	eb000d6d 	bl	71b4 <__aeabi_ddiv>
    3bfc:	e59f205c 	ldr	r2, [pc, #92]	; 3c60 <init_params_+0x128>
    3c00:	e59f305c 	ldr	r3, [pc, #92]	; 3c64 <init_params_+0x12c>
    3c04:	eb000be3 	bl	6b98 <__aeabi_dsub>
    3c08:	eb000e4c 	bl	7540 <__aeabi_d2f>
    3c0c:	e5840044 	str	r0, [r4, #68]	; 0x44
    3c10:	e59f3050 	ldr	r3, [pc, #80]	; 3c68 <init_params_+0x130>
    3c14:	e5933000 	ldr	r3, [r3]
    3c18:	e3530000 	cmp	r3, #0
    3c1c:	18bd8010 	popne	{r4, pc}
    3c20:	e59f3044 	ldr	r3, [pc, #68]	; 3c6c <init_params_+0x134>
    3c24:	e5933000 	ldr	r3, [r3]
    3c28:	e3530001 	cmp	r3, #1
    3c2c:	18bd8010 	popne	{r4, pc}
    3c30:	e3a025fe 	mov	r2, #1065353216	; 0x3f800000
    3c34:	e5842004 	str	r2, [r4, #4]
    3c38:	e5842014 	str	r2, [r4, #20]
    3c3c:	e5842008 	str	r2, [r4, #8]
    3c40:	e5842018 	str	r2, [r4, #24]
    3c44:	e584200c 	str	r2, [r4, #12]
    3c48:	e584201c 	str	r2, [r4, #28]
    3c4c:	e5842010 	str	r2, [r4, #16]
    3c50:	e5842020 	str	r2, [r4, #32]
    3c54:	e8bd8010 	pop	{r4, pc}
    3c58:	004000f4 	.word	0x004000f4
    3c5c:	40140000 	.word	0x40140000
    3c60:	9999999a 	.word	0x9999999a
    3c64:	3fb99999 	.word	0x3fb99999
    3c68:	00400164 	.word	0x00400164
    3c6c:	00400160 	.word	0x00400160

00003c70 <init_network>:
    3c70:	e92d43f0 	push	{r4, r5, r6, r7, r8, r9, lr}
    3c74:	e24dd00c 	sub	sp, sp, #12
    3c78:	e59f70ac 	ldr	r7, [pc, #172]	; 3d2c <init_network+0xbc>
    3c7c:	e5870000 	str	r0, [r7]
    3c80:	e59f60a8 	ldr	r6, [pc, #168]	; 3d30 <init_network+0xc0>
    3c84:	e5861000 	str	r1, [r6]
    3c88:	e59f80a4 	ldr	r8, [pc, #164]	; 3d34 <init_network+0xc4>
    3c8c:	e59f90a4 	ldr	r9, [pc, #164]	; 3d38 <init_network+0xc8>
    3c90:	e3a05000 	mov	r5, #0
    3c94:	e1a0000d 	mov	r0, sp
    3c98:	e1a01009 	mov	r1, r9
    3c9c:	e1a02005 	mov	r2, r5
    3ca0:	eb000321 	bl	492c <vector>
    3ca4:	e89d0003 	ldm	sp, {r0, r1}
    3ca8:	e8880003 	stm	r8, {r0, r1}
    3cac:	e59f8088 	ldr	r8, [pc, #136]	; 3d3c <init_network+0xcc>
    3cb0:	e1a0000d 	mov	r0, sp
    3cb4:	e1a01009 	mov	r1, r9
    3cb8:	e1a02005 	mov	r2, r5
    3cbc:	eb00031a 	bl	492c <vector>
    3cc0:	e89d0003 	ldm	sp, {r0, r1}
    3cc4:	e8880003 	stm	r8, {r0, r1}
    3cc8:	e59f8070 	ldr	r8, [pc, #112]	; 3d40 <init_network+0xd0>
    3ccc:	e1a0000d 	mov	r0, sp
    3cd0:	e1a01005 	mov	r1, r5
    3cd4:	e1a02005 	mov	r2, r5
    3cd8:	eb000313 	bl	492c <vector>
    3cdc:	e89d0003 	ldm	sp, {r0, r1}
    3ce0:	e8880003 	stm	r8, {r0, r1}
    3ce4:	e59f8058 	ldr	r8, [pc, #88]	; 3d44 <init_network+0xd4>
    3ce8:	e1a0000d 	mov	r0, sp
    3cec:	e1a01005 	mov	r1, r5
    3cf0:	e1a02005 	mov	r2, r5
    3cf4:	eb00030c 	bl	492c <vector>
    3cf8:	e89d0003 	ldm	sp, {r0, r1}
    3cfc:	e8880003 	stm	r8, {r0, r1}
    3d00:	e5973000 	ldr	r3, [r7]
    3d04:	e1a00423 	lsr	r0, r3, #8
    3d08:	e20330ff 	and	r3, r3, #255	; 0xff
    3d0c:	e0830080 	add	r0, r3, r0, lsl #1
    3d10:	e5962000 	ldr	r2, [r6]
    3d14:	e0820200 	add	r0, r2, r0, lsl #4
    3d18:	eb000512 	bl	5168 <srand>
    3d1c:	ebffff24 	bl	39b4 <init_MFM>
    3d20:	ebffff84 	bl	3b38 <init_params_>
    3d24:	e28dd00c 	add	sp, sp, #12
    3d28:	e8bd83f0 	pop	{r4, r5, r6, r7, r8, r9, pc}
    3d2c:	00400164 	.word	0x00400164
    3d30:	00400160 	.word	0x00400160
    3d34:	00400178 	.word	0x00400178
    3d38:	bf800000 	.word	0xbf800000
    3d3c:	00400188 	.word	0x00400188
    3d40:	00400180 	.word	0x00400180
    3d44:	00400168 	.word	0x00400168

00003d48 <save_>:
    3d48:	e92d4070 	push	{r4, r5, r6, lr}
    3d4c:	e59f60b0 	ldr	r6, [pc, #176]	; 3e04 <save_+0xbc>
    3d50:	e59f50b0 	ldr	r5, [pc, #176]	; 3e08 <save_+0xc0>
    3d54:	e3a00000 	mov	r0, #0
    3d58:	e59f10ac 	ldr	r1, [pc, #172]	; 3e0c <save_+0xc4>
    3d5c:	e5962000 	ldr	r2, [r6]
    3d60:	e5953000 	ldr	r3, [r5]
    3d64:	ebfffb39 	bl	2a50 <io_printf>
    3d68:	e59f40a0 	ldr	r4, [pc, #160]	; 3e10 <save_+0xc8>
    3d6c:	e5940034 	ldr	r0, [r4, #52]	; 0x34
    3d70:	e59f109c 	ldr	r1, [pc, #156]	; 3e14 <save_+0xcc>
    3d74:	eb000ead 	bl	7830 <__aeabi_fmul>
    3d78:	eb000fa9 	bl	7c24 <__aeabi_f2iz>
    3d7c:	e1a02000 	mov	r2, r0
    3d80:	e3a00000 	mov	r0, #0
    3d84:	e59f108c 	ldr	r1, [pc, #140]	; 3e18 <save_+0xd0>
    3d88:	ebfffb30 	bl	2a50 <io_printf>
    3d8c:	e594003c 	ldr	r0, [r4, #60]	; 0x3c
    3d90:	e59f107c 	ldr	r1, [pc, #124]	; 3e14 <save_+0xcc>
    3d94:	eb000ea5 	bl	7830 <__aeabi_fmul>
    3d98:	eb000fa1 	bl	7c24 <__aeabi_f2iz>
    3d9c:	e1a02000 	mov	r2, r0
    3da0:	e3a00000 	mov	r0, #0
    3da4:	e59f1070 	ldr	r1, [pc, #112]	; 3e1c <save_+0xd4>
    3da8:	ebfffb28 	bl	2a50 <io_printf>
    3dac:	e5940040 	ldr	r0, [r4, #64]	; 0x40
    3db0:	e59f105c 	ldr	r1, [pc, #92]	; 3e14 <save_+0xcc>
    3db4:	eb000e9d 	bl	7830 <__aeabi_fmul>
    3db8:	eb000f99 	bl	7c24 <__aeabi_f2iz>
    3dbc:	e1a02000 	mov	r2, r0
    3dc0:	e3a00000 	mov	r0, #0
    3dc4:	e59f1054 	ldr	r1, [pc, #84]	; 3e20 <save_+0xd8>
    3dc8:	ebfffb20 	bl	2a50 <io_printf>
    3dcc:	e5940044 	ldr	r0, [r4, #68]	; 0x44
    3dd0:	e59f103c 	ldr	r1, [pc, #60]	; 3e14 <save_+0xcc>
    3dd4:	eb000e95 	bl	7830 <__aeabi_fmul>
    3dd8:	eb000f91 	bl	7c24 <__aeabi_f2iz>
    3ddc:	e1a02000 	mov	r2, r0
    3de0:	e3a00000 	mov	r0, #0
    3de4:	e59f1038 	ldr	r1, [pc, #56]	; 3e24 <save_+0xdc>
    3de8:	ebfffb18 	bl	2a50 <io_printf>
    3dec:	e3a00000 	mov	r0, #0
    3df0:	e59f1030 	ldr	r1, [pc, #48]	; 3e28 <save_+0xe0>
    3df4:	e5962000 	ldr	r2, [r6]
    3df8:	e5953000 	ldr	r3, [r5]
    3dfc:	ebfffb13 	bl	2a50 <io_printf>
    3e00:	e8bd8070 	pop	{r4, r5, r6, pc}
    3e04:	00400160 	.word	0x00400160
    3e08:	00400164 	.word	0x00400164
    3e0c:	00007cbc 	.word	0x00007cbc
    3e10:	004000f4 	.word	0x004000f4
    3e14:	447a0000 	.word	0x447a0000
    3e18:	00007cdc 	.word	0x00007cdc
    3e1c:	00007cf4 	.word	0x00007cf4
    3e20:	00007d0c 	.word	0x00007d0c
    3e24:	00007d28 	.word	0x00007d28
    3e28:	00007d44 	.word	0x00007d44

00003e2c <IF>:
    3e2c:	e92d4038 	push	{r3, r4, r5, lr}
    3e30:	eb000c17 	bl	6e94 <__aeabi_f2d>
    3e34:	e1a04000 	mov	r4, r0
    3e38:	e1a05001 	mov	r5, r1
    3e3c:	e59f2050 	ldr	r2, [pc, #80]	; 3e94 <IF+0x68>
    3e40:	e59f3050 	ldr	r3, [pc, #80]	; 3e98 <IF+0x6c>
    3e44:	eb000d92 	bl	7494 <__aeabi_dcmplt>
    3e48:	e3500000 	cmp	r0, #0
    3e4c:	13a04000 	movne	r4, #0
    3e50:	1a00000d 	bne	3e8c <IF+0x60>
    3e54:	e1a00004 	mov	r0, r4
    3e58:	e1a01005 	mov	r1, r5
    3e5c:	e59f2030 	ldr	r2, [pc, #48]	; 3e94 <IF+0x68>
    3e60:	e59f3030 	ldr	r3, [pc, #48]	; 3e98 <IF+0x6c>
    3e64:	eb000b4b 	bl	6b98 <__aeabi_dsub>
    3e68:	e3a02000 	mov	r2, #0
    3e6c:	e59f3028 	ldr	r3, [pc, #40]	; 3e9c <IF+0x70>
    3e70:	eb000c34 	bl	6f48 <__aeabi_dmul>
    3e74:	eb000db1 	bl	7540 <__aeabi_d2f>
    3e78:	e1a04000 	mov	r4, r0
    3e7c:	e3a015fe 	mov	r1, #1065353216	; 0x3f800000
    3e80:	eb000f62 	bl	7c10 <__aeabi_fcmpgt>
    3e84:	e3500000 	cmp	r0, #0
    3e88:	13a045fe 	movne	r4, #1065353216	; 0x3f800000
    3e8c:	e1a00004 	mov	r0, r4
    3e90:	e8bd8038 	pop	{r3, r4, r5, pc}
    3e94:	9999999a 	.word	0x9999999a
    3e98:	3fe99999 	.word	0x3fe99999
    3e9c:	40140000 	.word	0x40140000

00003ea0 <mfm_>:
    3ea0:	e92d4070 	push	{r4, r5, r6, lr}
    3ea4:	e24dd010 	sub	sp, sp, #16
    3ea8:	e59f20e4 	ldr	r2, [pc, #228]	; 3f94 <mfm_+0xf4>
    3eac:	e59f30e4 	ldr	r3, [pc, #228]	; 3f98 <mfm_+0xf8>
    3eb0:	e5931004 	ldr	r1, [r3, #4]
    3eb4:	e58d1000 	str	r1, [sp]
    3eb8:	e5933000 	ldr	r3, [r3]
    3ebc:	e28d0008 	add	r0, sp, #8
    3ec0:	e8920006 	ldm	r2, {r1, r2}
    3ec4:	eb0002cb 	bl	49f8 <v_sub>
    3ec8:	e59d0008 	ldr	r0, [sp, #8]
    3ecc:	eb00028a 	bl	48fc <f_abs>
    3ed0:	e1a04000 	mov	r4, r0
    3ed4:	e59d000c 	ldr	r0, [sp, #12]
    3ed8:	eb000287 	bl	48fc <f_abs>
    3edc:	e1a06000 	mov	r6, r0
    3ee0:	e1a00004 	mov	r0, r4
    3ee4:	eb000bea 	bl	6e94 <__aeabi_f2d>
    3ee8:	e1a02000 	mov	r2, r0
    3eec:	e1a03001 	mov	r3, r1
    3ef0:	e3a00000 	mov	r0, #0
    3ef4:	e3a01101 	mov	r1, #1073741824	; 0x40000000
    3ef8:	eb000b26 	bl	6b98 <__aeabi_dsub>
    3efc:	e3a02000 	mov	r2, #0
    3f00:	e59f3094 	ldr	r3, [pc, #148]	; 3f9c <mfm_+0xfc>
    3f04:	eb000c0f 	bl	6f48 <__aeabi_dmul>
    3f08:	eb000d8c 	bl	7540 <__aeabi_d2f>
    3f0c:	ebffffc6 	bl	3e2c <IF>
    3f10:	e59f4088 	ldr	r4, [pc, #136]	; 3fa0 <mfm_+0x100>
    3f14:	e5945030 	ldr	r5, [r4, #48]	; 0x30
    3f18:	e1a01005 	mov	r1, r5
    3f1c:	eb000db1 	bl	75e8 <__aeabi_fsub>
    3f20:	e3a0143f 	mov	r1, #1056964608	; 0x3f000000
    3f24:	eb000e41 	bl	7830 <__aeabi_fmul>
    3f28:	e1a01000 	mov	r1, r0
    3f2c:	e1a00005 	mov	r0, r5
    3f30:	eb000dad 	bl	75ec <__addsf3>
    3f34:	e5840030 	str	r0, [r4, #48]	; 0x30
    3f38:	e1a00006 	mov	r0, r6
    3f3c:	eb000bd4 	bl	6e94 <__aeabi_f2d>
    3f40:	e1a02000 	mov	r2, r0
    3f44:	e1a03001 	mov	r3, r1
    3f48:	e3a00000 	mov	r0, #0
    3f4c:	e3a01101 	mov	r1, #1073741824	; 0x40000000
    3f50:	eb000b10 	bl	6b98 <__aeabi_dsub>
    3f54:	e3a02000 	mov	r2, #0
    3f58:	e59f303c 	ldr	r3, [pc, #60]	; 3f9c <mfm_+0xfc>
    3f5c:	eb000bf9 	bl	6f48 <__aeabi_dmul>
    3f60:	eb000d76 	bl	7540 <__aeabi_d2f>
    3f64:	ebffffb0 	bl	3e2c <IF>
    3f68:	e5945038 	ldr	r5, [r4, #56]	; 0x38
    3f6c:	e1a01005 	mov	r1, r5
    3f70:	eb000d9c 	bl	75e8 <__aeabi_fsub>
    3f74:	e3a0143f 	mov	r1, #1056964608	; 0x3f000000
    3f78:	eb000e2c 	bl	7830 <__aeabi_fmul>
    3f7c:	e1a01000 	mov	r1, r0
    3f80:	e1a00005 	mov	r0, r5
    3f84:	eb000d98 	bl	75ec <__addsf3>
    3f88:	e5840038 	str	r0, [r4, #56]	; 0x38
    3f8c:	e28dd010 	add	sp, sp, #16
    3f90:	e8bd8070 	pop	{r4, r5, r6, pc}
    3f94:	00400178 	.word	0x00400178
    3f98:	00400170 	.word	0x00400170
    3f9c:	3fe00000 	.word	0x3fe00000
    3fa0:	004000f4 	.word	0x004000f4

00003fa4 <phi_MFM_x>:
    3fa4:	e59f3004 	ldr	r3, [pc, #4]	; 3fb0 <phi_MFM_x+0xc>
    3fa8:	e5930030 	ldr	r0, [r3, #48]	; 0x30
    3fac:	e12fff1e 	bx	lr
    3fb0:	004000f4 	.word	0x004000f4

00003fb4 <phi_MFM_y>:
    3fb4:	e59f3004 	ldr	r3, [pc, #4]	; 3fc0 <phi_MFM_y+0xc>
    3fb8:	e5930038 	ldr	r0, [r3, #56]	; 0x38
    3fbc:	e12fff1e 	bx	lr
    3fc0:	004000f4 	.word	0x004000f4

00003fc4 <updateError>:
    3fc4:	e92d47f0 	push	{r4, r5, r6, r7, r8, r9, sl, lr}
    3fc8:	ebfffd0b 	bl	33fc <normalizeBallParams>
    3fcc:	ebfffd4f 	bl	3510 <R_x>
    3fd0:	e1a04000 	mov	r4, r0
    3fd4:	e59f6160 	ldr	r6, [pc, #352]	; 413c <IPTAG_TRANS+0x13c>
    3fd8:	e5960048 	ldr	r0, [r6, #72]	; 0x48
    3fdc:	eb000bac 	bl	6e94 <__aeabi_f2d>
    3fe0:	e3a02000 	mov	r2, #0
    3fe4:	e59f3154 	ldr	r3, [pc, #340]	; 4140 <IPTAG_TRANS+0x140>
    3fe8:	eb000bd6 	bl	6f48 <__aeabi_dmul>
    3fec:	e3a02000 	mov	r2, #0
    3ff0:	e59f314c 	ldr	r3, [pc, #332]	; 4144 <IPTAG_TRANS+0x144>
    3ff4:	eb000bd3 	bl	6f48 <__aeabi_dmul>
    3ff8:	eb000d50 	bl	7540 <__aeabi_d2f>
    3ffc:	e1a08000 	mov	r8, r0
    4000:	e1a00004 	mov	r0, r4
    4004:	eb000ba2 	bl	6e94 <__aeabi_f2d>
    4008:	e1a04000 	mov	r4, r0
    400c:	e1a05001 	mov	r5, r1
    4010:	e1a00008 	mov	r0, r8
    4014:	eb000b9e 	bl	6e94 <__aeabi_f2d>
    4018:	e59f2128 	ldr	r2, [pc, #296]	; 4148 <IPTAG_TRANS+0x148>
    401c:	e59f3128 	ldr	r3, [pc, #296]	; 414c <IPTAG_TRANS+0x14c>
    4020:	eb000bc8 	bl	6f48 <__aeabi_dmul>
    4024:	e1a02000 	mov	r2, r0
    4028:	e1a03001 	mov	r3, r1
    402c:	e1a00004 	mov	r0, r4
    4030:	e1a01005 	mov	r1, r5
    4034:	eb000ad8 	bl	6b9c <__adddf3>
    4038:	e1a04000 	mov	r4, r0
    403c:	e1a05001 	mov	r5, r1
    4040:	e5960054 	ldr	r0, [r6, #84]	; 0x54
    4044:	eb000b92 	bl	6e94 <__aeabi_f2d>
    4048:	e1a02000 	mov	r2, r0
    404c:	e1a03001 	mov	r3, r1
    4050:	e1a00004 	mov	r0, r4
    4054:	e1a01005 	mov	r1, r5
    4058:	eb000ace 	bl	6b98 <__aeabi_dsub>
    405c:	eb000d37 	bl	7540 <__aeabi_d2f>
    4060:	e59f70e8 	ldr	r7, [pc, #232]	; 4150 <IPTAG_TRANS+0x150>
    4064:	e5870010 	str	r0, [r7, #16]
    4068:	e59fa0e4 	ldr	sl, [pc, #228]	; 4154 <IPTAG_TRANS+0x154>
    406c:	e3a095fe 	mov	r9, #1065353216	; 0x3f800000
    4070:	e1a0100a 	mov	r1, sl
    4074:	e1a02009 	mov	r2, r9
    4078:	eb00020f 	bl	48bc <range>
    407c:	e5870010 	str	r0, [r7, #16]
    4080:	e5868054 	str	r8, [r6, #84]	; 0x54
    4084:	ebfffd2c 	bl	353c <R_y>
    4088:	e1a04000 	mov	r4, r0
    408c:	e596004c 	ldr	r0, [r6, #76]	; 0x4c
    4090:	eb000b7f 	bl	6e94 <__aeabi_f2d>
    4094:	e3a02000 	mov	r2, #0
    4098:	e59f30a0 	ldr	r3, [pc, #160]	; 4140 <IPTAG_TRANS+0x140>
    409c:	eb000ba9 	bl	6f48 <__aeabi_dmul>
    40a0:	e3a02000 	mov	r2, #0
    40a4:	e59f3098 	ldr	r3, [pc, #152]	; 4144 <IPTAG_TRANS+0x144>
    40a8:	eb000ba6 	bl	6f48 <__aeabi_dmul>
    40ac:	eb000d23 	bl	7540 <__aeabi_d2f>
    40b0:	e1a08000 	mov	r8, r0
    40b4:	e1a00004 	mov	r0, r4
    40b8:	eb000b75 	bl	6e94 <__aeabi_f2d>
    40bc:	e1a04000 	mov	r4, r0
    40c0:	e1a05001 	mov	r5, r1
    40c4:	e1a00008 	mov	r0, r8
    40c8:	eb000b71 	bl	6e94 <__aeabi_f2d>
    40cc:	e59f2074 	ldr	r2, [pc, #116]	; 4148 <IPTAG_TRANS+0x148>
    40d0:	e59f3074 	ldr	r3, [pc, #116]	; 414c <IPTAG_TRANS+0x14c>
    40d4:	eb000b9b 	bl	6f48 <__aeabi_dmul>
    40d8:	e1a02000 	mov	r2, r0
    40dc:	e1a03001 	mov	r3, r1
    40e0:	e1a00004 	mov	r0, r4
    40e4:	e1a01005 	mov	r1, r5
    40e8:	eb000aab 	bl	6b9c <__adddf3>
    40ec:	e1a04000 	mov	r4, r0
    40f0:	e1a05001 	mov	r5, r1
    40f4:	e5960058 	ldr	r0, [r6, #88]	; 0x58
    40f8:	eb000b65 	bl	6e94 <__aeabi_f2d>
    40fc:	e1a02000 	mov	r2, r0
    4100:	e1a03001 	mov	r3, r1
    4104:	e1a00004 	mov	r0, r4
    4108:	e1a01005 	mov	r1, r5
    410c:	eb000aa1 	bl	6b98 <__aeabi_dsub>
    4110:	eb000d0a 	bl	7540 <__aeabi_d2f>
    4114:	e5870014 	str	r0, [r7, #20]
    4118:	e1a0100a 	mov	r1, sl
    411c:	e1a02009 	mov	r2, r9
    4120:	eb0001e5 	bl	48bc <range>
    4124:	e5870014 	str	r0, [r7, #20]
    4128:	e5868058 	str	r8, [r6, #88]	; 0x58
    412c:	e3a03000 	mov	r3, #0
    4130:	e5863048 	str	r3, [r6, #72]	; 0x48
    4134:	e586304c 	str	r3, [r6, #76]	; 0x4c
    4138:	e8bd87f0 	pop	{r4, r5, r6, r7, r8, r9, sl, pc}
    413c:	004000f4 	.word	0x004000f4
    4140:	40240000 	.word	0x40240000
    4144:	3f900000 	.word	0x3f900000
    4148:	47ae147b 	.word	0x47ae147b
    414c:	3f847ae1 	.word	0x3f847ae1
    4150:	00400014 	.word	0x00400014
    4154:	bf800000 	.word	0xbf800000

00004158 <update_V>:
    4158:	e92d47f0 	push	{r4, r5, r6, r7, r8, r9, sl, lr}
    415c:	e59f8154 	ldr	r8, [pc, #340]	; 42b8 <update_V+0x160>
    4160:	e598005c 	ldr	r0, [r8, #92]	; 0x5c
    4164:	eb000b4a 	bl	6e94 <__aeabi_f2d>
    4168:	e59f214c 	ldr	r2, [pc, #332]	; 42bc <update_V+0x164>
    416c:	e59f314c 	ldr	r3, [pc, #332]	; 42c0 <update_V+0x168>
    4170:	eb000b74 	bl	6f48 <__aeabi_dmul>
    4174:	e1a04000 	mov	r4, r0
    4178:	e1a05001 	mov	r5, r1
    417c:	e5980030 	ldr	r0, [r8, #48]	; 0x30
    4180:	eb000b43 	bl	6e94 <__aeabi_f2d>
    4184:	e1a02000 	mov	r2, r0
    4188:	e1a03001 	mov	r3, r1
    418c:	e1a00004 	mov	r0, r4
    4190:	e1a01005 	mov	r1, r5
    4194:	eb000a80 	bl	6b9c <__adddf3>
    4198:	eb000ce8 	bl	7540 <__aeabi_d2f>
    419c:	e1a0a000 	mov	sl, r0
    41a0:	e588005c 	str	r0, [r8, #92]	; 0x5c
    41a4:	e5980034 	ldr	r0, [r8, #52]	; 0x34
    41a8:	eb000b39 	bl	6e94 <__aeabi_f2d>
    41ac:	e1a04000 	mov	r4, r0
    41b0:	e1a05001 	mov	r5, r1
    41b4:	e59f9108 	ldr	r9, [pc, #264]	; 42c4 <update_V+0x16c>
    41b8:	e5990010 	ldr	r0, [r9, #16]
    41bc:	eb000b34 	bl	6e94 <__aeabi_f2d>
    41c0:	e3a02000 	mov	r2, #0
    41c4:	e59f30fc 	ldr	r3, [pc, #252]	; 42c8 <update_V+0x170>
    41c8:	eb000b5e 	bl	6f48 <__aeabi_dmul>
    41cc:	e1a06000 	mov	r6, r0
    41d0:	e1a07001 	mov	r7, r1
    41d4:	e1a0000a 	mov	r0, sl
    41d8:	eb000b2d 	bl	6e94 <__aeabi_f2d>
    41dc:	e1a02000 	mov	r2, r0
    41e0:	e1a03001 	mov	r3, r1
    41e4:	e1a00006 	mov	r0, r6
    41e8:	e1a01007 	mov	r1, r7
    41ec:	eb000b55 	bl	6f48 <__aeabi_dmul>
    41f0:	e1a02000 	mov	r2, r0
    41f4:	e1a03001 	mov	r3, r1
    41f8:	e1a00004 	mov	r0, r4
    41fc:	e1a01005 	mov	r1, r5
    4200:	eb000a65 	bl	6b9c <__adddf3>
    4204:	eb000ccd 	bl	7540 <__aeabi_d2f>
    4208:	e5880034 	str	r0, [r8, #52]	; 0x34
    420c:	e5980060 	ldr	r0, [r8, #96]	; 0x60
    4210:	eb000b1f 	bl	6e94 <__aeabi_f2d>
    4214:	e59f20a0 	ldr	r2, [pc, #160]	; 42bc <update_V+0x164>
    4218:	e59f30a0 	ldr	r3, [pc, #160]	; 42c0 <update_V+0x168>
    421c:	eb000b49 	bl	6f48 <__aeabi_dmul>
    4220:	e1a04000 	mov	r4, r0
    4224:	e1a05001 	mov	r5, r1
    4228:	e5980038 	ldr	r0, [r8, #56]	; 0x38
    422c:	eb000b18 	bl	6e94 <__aeabi_f2d>
    4230:	e1a02000 	mov	r2, r0
    4234:	e1a03001 	mov	r3, r1
    4238:	e1a00004 	mov	r0, r4
    423c:	e1a01005 	mov	r1, r5
    4240:	eb000a55 	bl	6b9c <__adddf3>
    4244:	eb000cbd 	bl	7540 <__aeabi_d2f>
    4248:	e1a0a000 	mov	sl, r0
    424c:	e5880060 	str	r0, [r8, #96]	; 0x60
    4250:	e598003c 	ldr	r0, [r8, #60]	; 0x3c
    4254:	eb000b0e 	bl	6e94 <__aeabi_f2d>
    4258:	e1a04000 	mov	r4, r0
    425c:	e1a05001 	mov	r5, r1
    4260:	e5990014 	ldr	r0, [r9, #20]
    4264:	eb000b0a 	bl	6e94 <__aeabi_f2d>
    4268:	e3a02000 	mov	r2, #0
    426c:	e59f3054 	ldr	r3, [pc, #84]	; 42c8 <update_V+0x170>
    4270:	eb000b34 	bl	6f48 <__aeabi_dmul>
    4274:	e1a06000 	mov	r6, r0
    4278:	e1a07001 	mov	r7, r1
    427c:	e1a0000a 	mov	r0, sl
    4280:	eb000b03 	bl	6e94 <__aeabi_f2d>
    4284:	e1a02000 	mov	r2, r0
    4288:	e1a03001 	mov	r3, r1
    428c:	e1a00006 	mov	r0, r6
    4290:	e1a01007 	mov	r1, r7
    4294:	eb000b2b 	bl	6f48 <__aeabi_dmul>
    4298:	e1a02000 	mov	r2, r0
    429c:	e1a03001 	mov	r3, r1
    42a0:	e1a00004 	mov	r0, r4
    42a4:	e1a01005 	mov	r1, r5
    42a8:	eb000a3b 	bl	6b9c <__adddf3>
    42ac:	eb000ca3 	bl	7540 <__aeabi_d2f>
    42b0:	e588003c 	str	r0, [r8, #60]	; 0x3c
    42b4:	e8bd87f0 	pop	{r4, r5, r6, r7, r8, r9, sl, pc}
    42b8:	004000f4 	.word	0x004000f4
    42bc:	47ae147b 	.word	0x47ae147b
    42c0:	3f847ae1 	.word	0x3f847ae1
    42c4:	00400014 	.word	0x00400014
    42c8:	3fe00000 	.word	0x3fe00000

000042cc <sigma_x>:
    42cc:	e92d4008 	push	{r3, lr}
    42d0:	e3a005fe 	mov	r0, #1065353216	; 0x3f800000
    42d4:	e59f3034 	ldr	r3, [pc, #52]	; 4310 <sigma_x+0x44>
    42d8:	e5931054 	ldr	r1, [r3, #84]	; 0x54
    42dc:	eb000cc1 	bl	75e8 <__aeabi_fsub>
    42e0:	e1a01000 	mov	r1, r0
    42e4:	e3a00000 	mov	r0, #0
    42e8:	eb00016b 	bl	489c <max>
    42ec:	e1a01000 	mov	r1, r0
    42f0:	e3a0043f 	mov	r0, #1056964608	; 0x3f000000
    42f4:	eb000160 	bl	487c <min>
    42f8:	eb000ae5 	bl	6e94 <__aeabi_f2d>
    42fc:	e59f2010 	ldr	r2, [pc, #16]	; 4314 <sigma_x+0x48>
    4300:	e59f3010 	ldr	r3, [pc, #16]	; 4318 <sigma_x+0x4c>
    4304:	eb000b0f 	bl	6f48 <__aeabi_dmul>
    4308:	eb000c8c 	bl	7540 <__aeabi_d2f>
    430c:	e8bd8008 	pop	{r3, pc}
    4310:	004000f4 	.word	0x004000f4
    4314:	9999999a 	.word	0x9999999a
    4318:	3fb99999 	.word	0x3fb99999

0000431c <sigma_y>:
    431c:	e92d4008 	push	{r3, lr}
    4320:	e3a005fe 	mov	r0, #1065353216	; 0x3f800000
    4324:	e59f3034 	ldr	r3, [pc, #52]	; 4360 <sigma_y+0x44>
    4328:	e5931058 	ldr	r1, [r3, #88]	; 0x58
    432c:	eb000cad 	bl	75e8 <__aeabi_fsub>
    4330:	e1a01000 	mov	r1, r0
    4334:	e3a00000 	mov	r0, #0
    4338:	eb000157 	bl	489c <max>
    433c:	e1a01000 	mov	r1, r0
    4340:	e3a0043f 	mov	r0, #1056964608	; 0x3f000000
    4344:	eb00014c 	bl	487c <min>
    4348:	eb000ad1 	bl	6e94 <__aeabi_f2d>
    434c:	e59f2010 	ldr	r2, [pc, #16]	; 4364 <sigma_y+0x48>
    4350:	e59f3010 	ldr	r3, [pc, #16]	; 4368 <sigma_y+0x4c>
    4354:	eb000afb 	bl	6f48 <__aeabi_dmul>
    4358:	eb000c78 	bl	7540 <__aeabi_d2f>
    435c:	e8bd8008 	pop	{r3, pc}
    4360:	004000f4 	.word	0x004000f4
    4364:	9999999a 	.word	0x9999999a
    4368:	3fb99999 	.word	0x3fb99999

0000436c <noise>:
    436c:	e92d41f0 	push	{r4, r5, r6, r7, r8, lr}
    4370:	e24dd020 	sub	sp, sp, #32
    4374:	e1a06000 	mov	r6, r0
    4378:	eb000380 	bl	5180 <rand>
    437c:	eb00037f 	bl	5180 <rand>
    4380:	eb000cff 	bl	7784 <__aeabi_i2f>
    4384:	e3a01203 	mov	r1, #805306368	; 0x30000000
    4388:	eb000d28 	bl	7830 <__aeabi_fmul>
    438c:	eb000ac0 	bl	6e94 <__aeabi_f2d>
    4390:	e59f20b4 	ldr	r2, [pc, #180]	; 444c <noise+0xe0>
    4394:	e59f30b4 	ldr	r3, [pc, #180]	; 4450 <noise+0xe4>
    4398:	eb000aea 	bl	6f48 <__aeabi_dmul>
    439c:	eb000c67 	bl	7540 <__aeabi_d2f>
    43a0:	eb000abb 	bl	6e94 <__aeabi_f2d>
    43a4:	e28d2008 	add	r2, sp, #8
    43a8:	e1a0300d 	mov	r3, sp
    43ac:	eb000222 	bl	4c3c <sincos>
    43b0:	e1cd40d8 	ldrd	r4, [sp, #8]
    43b4:	e28d7018 	add	r7, sp, #24
    43b8:	e1cd00d0 	ldrd	r0, [sp]
    43bc:	e3a02103 	mov	r2, #-1073741824	; 0xc0000000
    43c0:	e59f308c 	ldr	r3, [pc, #140]	; 4454 <noise+0xe8>
    43c4:	eb000adf 	bl	6f48 <__aeabi_dmul>
    43c8:	eb000c5c 	bl	7540 <__aeabi_d2f>
    43cc:	e1a08000 	mov	r8, r0
    43d0:	e1a00004 	mov	r0, r4
    43d4:	e1a01005 	mov	r1, r5
    43d8:	e3a02103 	mov	r2, #-1073741824	; 0xc0000000
    43dc:	e59f3070 	ldr	r3, [pc, #112]	; 4454 <noise+0xe8>
    43e0:	eb000ad8 	bl	6f48 <__aeabi_dmul>
    43e4:	eb000c55 	bl	7540 <__aeabi_d2f>
    43e8:	e1a02000 	mov	r2, r0
    43ec:	e1a00007 	mov	r0, r7
    43f0:	e1a01008 	mov	r1, r8
    43f4:	eb00014c 	bl	492c <vector>
    43f8:	e28d0010 	add	r0, sp, #16
    43fc:	e3a0143f 	mov	r1, #1056964608	; 0x3f000000
    4400:	e897000c 	ldm	r7, {r2, r3}
    4404:	eb000190 	bl	4a4c <v_mul>
    4408:	e59d8014 	ldr	r8, [sp, #20]
    440c:	e59f5044 	ldr	r5, [pc, #68]	; 4458 <noise+0xec>
    4410:	e3a045fe 	mov	r4, #1065353216	; 0x3f800000
    4414:	e59d0010 	ldr	r0, [sp, #16]
    4418:	e1a01005 	mov	r1, r5
    441c:	e1a02004 	mov	r2, r4
    4420:	eb000125 	bl	48bc <range>
    4424:	e1a07000 	mov	r7, r0
    4428:	e1a00008 	mov	r0, r8
    442c:	e1a01005 	mov	r1, r5
    4430:	e1a02004 	mov	r2, r4
    4434:	eb000120 	bl	48bc <range>
    4438:	e5867000 	str	r7, [r6]
    443c:	e5860004 	str	r0, [r6, #4]
    4440:	e1a00006 	mov	r0, r6
    4444:	e28dd020 	add	sp, sp, #32
    4448:	e8bd81f0 	pop	{r4, r5, r6, r7, r8, pc}
    444c:	e8640208 	.word	0xe8640208
    4450:	401921d8 	.word	0x401921d8
    4454:	3ff2d6ab 	.word	0x3ff2d6ab
    4458:	bf800000 	.word	0xbf800000

0000445c <move>:
    445c:	e92d40f0 	push	{r4, r5, r6, r7, lr}
    4460:	e24dd00c 	sub	sp, sp, #12
    4464:	e59f10bc 	ldr	r1, [pc, #188]	; 4528 <move+0xcc>
    4468:	e5916050 	ldr	r6, [r1, #80]	; 0x50
    446c:	e59f30b8 	ldr	r3, [pc, #184]	; 452c <move+0xd0>
    4470:	e5937000 	ldr	r7, [r3]
    4474:	e3a02000 	mov	r2, #0
    4478:	e5812050 	str	r2, [r1, #80]	; 0x50
    447c:	e5832000 	str	r2, [r3]
    4480:	e59f40a8 	ldr	r4, [pc, #168]	; 4530 <move+0xd4>
    4484:	e1a0000d 	mov	r0, sp
    4488:	ebffffb7 	bl	436c <noise>
    448c:	e89d0003 	ldm	sp, {r0, r1}
    4490:	e8840003 	stm	r4, {r0, r1}
    4494:	e1a00006 	mov	r0, r6
    4498:	e3a015f2 	mov	r1, #1015021568	; 0x3c800000
    449c:	eb000ce3 	bl	7830 <__aeabi_fmul>
    44a0:	e1a06000 	mov	r6, r0
    44a4:	e1a00007 	mov	r0, r7
    44a8:	e3a015f2 	mov	r1, #1015021568	; 0x3c800000
    44ac:	eb000cdf 	bl	7830 <__aeabi_fmul>
    44b0:	e1a05000 	mov	r5, r0
    44b4:	ebffff84 	bl	42cc <sigma_x>
    44b8:	e5941000 	ldr	r1, [r4]
    44bc:	eb000cdb 	bl	7830 <__aeabi_fmul>
    44c0:	e1a01006 	mov	r1, r6
    44c4:	eb000c48 	bl	75ec <__addsf3>
    44c8:	e1a06000 	mov	r6, r0
    44cc:	ebffff92 	bl	431c <sigma_y>
    44d0:	e5941004 	ldr	r1, [r4, #4]
    44d4:	eb000cd5 	bl	7830 <__aeabi_fmul>
    44d8:	e1a01005 	mov	r1, r5
    44dc:	eb000c42 	bl	75ec <__addsf3>
    44e0:	e1a07000 	mov	r7, r0
    44e4:	e59f5048 	ldr	r5, [pc, #72]	; 4534 <move+0xd8>
    44e8:	e3a045fe 	mov	r4, #1065353216	; 0x3f800000
    44ec:	e1a00006 	mov	r0, r6
    44f0:	e1a01005 	mov	r1, r5
    44f4:	e1a02004 	mov	r2, r4
    44f8:	eb0000ef 	bl	48bc <range>
    44fc:	e1a06000 	mov	r6, r0
    4500:	e1a00007 	mov	r0, r7
    4504:	e1a01005 	mov	r1, r5
    4508:	e1a02004 	mov	r2, r4
    450c:	eb0000ea 	bl	48bc <range>
    4510:	e1a01000 	mov	r1, r0
    4514:	e1a00006 	mov	r0, r6
    4518:	eb0000c7 	bl	483c <sendNormMotorCommand>
    451c:	e3a00000 	mov	r0, #0
    4520:	e28dd00c 	add	sp, sp, #12
    4524:	e8bd80f0 	pop	{r4, r5, r6, r7, pc}
    4528:	004000f4 	.word	0x004000f4
    452c:	00400190 	.word	0x00400190
    4530:	00400168 	.word	0x00400168
    4534:	bf800000 	.word	0xbf800000

00004538 <update_A>:
    4538:	e92d4df0 	push	{r4, r5, r6, r7, r8, sl, fp, lr}
    453c:	e24dd008 	sub	sp, sp, #8
    4540:	e59f712c 	ldr	r7, [pc, #300]	; 4674 <update_A+0x13c>
    4544:	e1a0000d 	mov	r0, sp
    4548:	ebffff87 	bl	436c <noise>
    454c:	e89d0003 	ldm	sp, {r0, r1}
    4550:	e8870003 	stm	r7, {r0, r1}
    4554:	e59f611c 	ldr	r6, [pc, #284]	; 4678 <update_A+0x140>
    4558:	e5960040 	ldr	r0, [r6, #64]	; 0x40
    455c:	eb000a4c 	bl	6e94 <__aeabi_f2d>
    4560:	e1a0a000 	mov	sl, r0
    4564:	e1a0b001 	mov	fp, r1
    4568:	e59f810c 	ldr	r8, [pc, #268]	; 467c <update_A+0x144>
    456c:	e5980010 	ldr	r0, [r8, #16]
    4570:	eb000a47 	bl	6e94 <__aeabi_f2d>
    4574:	e3a02000 	mov	r2, #0
    4578:	e59f3100 	ldr	r3, [pc, #256]	; 4680 <update_A+0x148>
    457c:	eb000a71 	bl	6f48 <__aeabi_dmul>
    4580:	e1a04000 	mov	r4, r0
    4584:	e1a05001 	mov	r5, r1
    4588:	e5970000 	ldr	r0, [r7]
    458c:	eb000a40 	bl	6e94 <__aeabi_f2d>
    4590:	e1a02000 	mov	r2, r0
    4594:	e1a03001 	mov	r3, r1
    4598:	e1a00004 	mov	r0, r4
    459c:	e1a01005 	mov	r1, r5
    45a0:	eb000a68 	bl	6f48 <__aeabi_dmul>
    45a4:	e1a04000 	mov	r4, r0
    45a8:	e1a05001 	mov	r5, r1
    45ac:	e5960030 	ldr	r0, [r6, #48]	; 0x30
    45b0:	eb000a37 	bl	6e94 <__aeabi_f2d>
    45b4:	e1a02000 	mov	r2, r0
    45b8:	e1a03001 	mov	r3, r1
    45bc:	e1a00004 	mov	r0, r4
    45c0:	e1a01005 	mov	r1, r5
    45c4:	eb000a5f 	bl	6f48 <__aeabi_dmul>
    45c8:	e1a02000 	mov	r2, r0
    45cc:	e1a03001 	mov	r3, r1
    45d0:	e1a0000a 	mov	r0, sl
    45d4:	e1a0100b 	mov	r1, fp
    45d8:	eb00096e 	bl	6b98 <__aeabi_dsub>
    45dc:	eb000bd7 	bl	7540 <__aeabi_d2f>
    45e0:	e5860040 	str	r0, [r6, #64]	; 0x40
    45e4:	e5960044 	ldr	r0, [r6, #68]	; 0x44
    45e8:	eb000a29 	bl	6e94 <__aeabi_f2d>
    45ec:	e1a0a000 	mov	sl, r0
    45f0:	e1a0b001 	mov	fp, r1
    45f4:	e5980014 	ldr	r0, [r8, #20]
    45f8:	eb000a25 	bl	6e94 <__aeabi_f2d>
    45fc:	e3a02000 	mov	r2, #0
    4600:	e59f3078 	ldr	r3, [pc, #120]	; 4680 <update_A+0x148>
    4604:	eb000a4f 	bl	6f48 <__aeabi_dmul>
    4608:	e1a04000 	mov	r4, r0
    460c:	e1a05001 	mov	r5, r1
    4610:	e5970004 	ldr	r0, [r7, #4]
    4614:	eb000a1e 	bl	6e94 <__aeabi_f2d>
    4618:	e1a02000 	mov	r2, r0
    461c:	e1a03001 	mov	r3, r1
    4620:	e1a00004 	mov	r0, r4
    4624:	e1a01005 	mov	r1, r5
    4628:	eb000a46 	bl	6f48 <__aeabi_dmul>
    462c:	e1a04000 	mov	r4, r0
    4630:	e1a05001 	mov	r5, r1
    4634:	e5960038 	ldr	r0, [r6, #56]	; 0x38
    4638:	eb000a15 	bl	6e94 <__aeabi_f2d>
    463c:	e1a02000 	mov	r2, r0
    4640:	e1a03001 	mov	r3, r1
    4644:	e1a00004 	mov	r0, r4
    4648:	e1a01005 	mov	r1, r5
    464c:	eb000a3d 	bl	6f48 <__aeabi_dmul>
    4650:	e1a02000 	mov	r2, r0
    4654:	e1a03001 	mov	r3, r1
    4658:	e1a0000a 	mov	r0, sl
    465c:	e1a0100b 	mov	r1, fp
    4660:	eb00094c 	bl	6b98 <__aeabi_dsub>
    4664:	eb000bb5 	bl	7540 <__aeabi_d2f>
    4668:	e5860044 	str	r0, [r6, #68]	; 0x44
    466c:	e28dd008 	add	sp, sp, #8
    4670:	e8bd8df0 	pop	{r4, r5, r6, r7, r8, sl, fp, pc}
    4674:	00400168 	.word	0x00400168
    4678:	004000f4 	.word	0x004000f4
    467c:	00400014 	.word	0x00400014
    4680:	3fe00000 	.word	0x3fe00000

00004684 <initIO>:
    4684:	e92d4008 	push	{r3, lr}
    4688:	e3500000 	cmp	r0, #0
    468c:	1a00001e 	bne	470c <initIO+0x88>
    4690:	e3a00002 	mov	r0, #2
    4694:	e59f1110 	ldr	r1, [pc, #272]	; 47ac <initIO+0x128>
    4698:	e59f2110 	ldr	r2, [pc, #272]	; 47b0 <initIO+0x12c>
    469c:	e3a03001 	mov	r3, #1
    46a0:	ebfff620 	bl	1f28 <spin1_set_mc_table_entry>
    46a4:	e3a00001 	mov	r0, #1
    46a8:	e59f1104 	ldr	r1, [pc, #260]	; 47b4 <initIO+0x130>
    46ac:	e3e02000 	mvn	r2, #0
    46b0:	e1a03000 	mov	r3, r0
    46b4:	ebfff61b 	bl	1f28 <spin1_set_mc_table_entry>
    46b8:	e3a00004 	mov	r0, #4
    46bc:	e3a01041 	mov	r1, #65	; 0x41
    46c0:	e3e02000 	mvn	r2, #0
    46c4:	e3a03008 	mov	r3, #8
    46c8:	ebfff616 	bl	1f28 <spin1_set_mc_table_entry>
    46cc:	e3a00006 	mov	r0, #6
    46d0:	e3a0120a 	mov	r1, #-1610612736	; 0xa0000000
    46d4:	e3a0220f 	mov	r2, #-268435456	; 0xf0000000
    46d8:	e59f30d8 	ldr	r3, [pc, #216]	; 47b8 <initIO+0x134>
    46dc:	ebfff611 	bl	1f28 <spin1_set_mc_table_entry>
    46e0:	e3a00007 	mov	r0, #7
    46e4:	e3a01101 	mov	r1, #1073741824	; 0x40000000
    46e8:	e3a02103 	mov	r2, #-1073741824	; 0xc0000000
    46ec:	e3a03080 	mov	r3, #128	; 0x80
    46f0:	ebfff60c 	bl	1f28 <spin1_set_mc_table_entry>
    46f4:	e3a00020 	mov	r0, #32
    46f8:	e3a01000 	mov	r1, #0
    46fc:	e1a02001 	mov	r2, r1
    4700:	e3a03080 	mov	r3, #128	; 0x80
    4704:	ebfff607 	bl	1f28 <spin1_set_mc_table_entry>
    4708:	e8bd8008 	pop	{r3, pc}
    470c:	e3500001 	cmp	r0, #1
    4710:	1a00000a 	bne	4740 <initIO+0xbc>
    4714:	e3a00006 	mov	r0, #6
    4718:	e3a0120a 	mov	r1, #-1610612736	; 0xa0000000
    471c:	e3a0220f 	mov	r2, #-268435456	; 0xf0000000
    4720:	e59f3094 	ldr	r3, [pc, #148]	; 47bc <initIO+0x138>
    4724:	ebfff5ff 	bl	1f28 <spin1_set_mc_table_entry>
    4728:	e3a00007 	mov	r0, #7
    472c:	e3a01101 	mov	r1, #1073741824	; 0x40000000
    4730:	e3a02103 	mov	r2, #-1073741824	; 0xc0000000
    4734:	e3a03020 	mov	r3, #32
    4738:	ebfff5fa 	bl	1f28 <spin1_set_mc_table_entry>
    473c:	e8bd8008 	pop	{r3, pc}
    4740:	e3500c01 	cmp	r0, #256	; 0x100
    4744:	1a00000a 	bne	4774 <initIO+0xf0>
    4748:	e3a00006 	mov	r0, #6
    474c:	e3a0120a 	mov	r1, #-1610612736	; 0xa0000000
    4750:	e3a0220f 	mov	r2, #-268435456	; 0xf0000000
    4754:	e59f3060 	ldr	r3, [pc, #96]	; 47bc <initIO+0x138>
    4758:	ebfff5f2 	bl	1f28 <spin1_set_mc_table_entry>
    475c:	e3a00007 	mov	r0, #7
    4760:	e3a01101 	mov	r1, #1073741824	; 0x40000000
    4764:	e3a02103 	mov	r2, #-1073741824	; 0xc0000000
    4768:	e3a03008 	mov	r3, #8
    476c:	ebfff5ed 	bl	1f28 <spin1_set_mc_table_entry>
    4770:	e8bd8008 	pop	{r3, pc}
    4774:	e59f3044 	ldr	r3, [pc, #68]	; 47c0 <initIO+0x13c>
    4778:	e1500003 	cmp	r0, r3
    477c:	18bd8008 	popne	{r3, pc}
    4780:	e3a00006 	mov	r0, #6
    4784:	e3a0120a 	mov	r1, #-1610612736	; 0xa0000000
    4788:	e3a0220f 	mov	r2, #-268435456	; 0xf0000000
    478c:	e59f3028 	ldr	r3, [pc, #40]	; 47bc <initIO+0x138>
    4790:	ebfff5e4 	bl	1f28 <spin1_set_mc_table_entry>
    4794:	e3a00007 	mov	r0, #7
    4798:	e3a01101 	mov	r1, #1073741824	; 0x40000000
    479c:	e3a02103 	mov	r2, #-1073741824	; 0xc0000000
    47a0:	e3a03010 	mov	r3, #16
    47a4:	ebfff5df 	bl	1f28 <spin1_set_mc_table_entry>
    47a8:	e8bd8008 	pop	{r3, pc}
    47ac:	fcff0000 	.word	0xfcff0000
    47b0:	ffff0000 	.word	0xffff0000
    47b4:	00000445 	.word	0x00000445
    47b8:	003fff07 	.word	0x003fff07
    47bc:	003fff80 	.word	0x003fff80
    47c0:	00000101 	.word	0x00000101

000047c4 <startDevices>:
    47c4:	e92d4008 	push	{r3, lr}
    47c8:	e3500000 	cmp	r0, #0
    47cc:	03510001 	cmpeq	r1, #1
    47d0:	18bd8008 	popne	{r3, pc}
    47d4:	e59f001c 	ldr	r0, [pc, #28]	; 47f8 <startDevices+0x34>
    47d8:	e59f101c 	ldr	r1, [pc, #28]	; 47fc <startDevices+0x38>
    47dc:	e3a02001 	mov	r2, #1
    47e0:	ebfff3b6 	bl	16c0 <spin1_send_mc_packet>
    47e4:	e59f0014 	ldr	r0, [pc, #20]	; 4800 <startDevices+0x3c>
    47e8:	e3a01001 	mov	r1, #1
    47ec:	e1a02001 	mov	r2, r1
    47f0:	ebfff3b2 	bl	16c0 <spin1_send_mc_packet>
    47f4:	e8bd8008 	pop	{r3, pc}
    47f8:	fcff0000 	.word	0xfcff0000
    47fc:	086607d0 	.word	0x086607d0
    4800:	00000445 	.word	0x00000445

00004804 <stopDevices>:
    4804:	e92d4008 	push	{r3, lr}
    4808:	e59f000c 	ldr	r0, [pc, #12]	; 481c <stopDevices+0x18>
    480c:	e3a01000 	mov	r1, #0
    4810:	e3a02001 	mov	r2, #1
    4814:	ebfff3a9 	bl	16c0 <spin1_send_mc_packet>
    4818:	e8bd8008 	pop	{r3, pc}
    481c:	00000445 	.word	0x00000445

00004820 <sendMotorCommand>:
    4820:	e92d4008 	push	{r3, lr}
    4824:	e1811800 	orr	r1, r1, r0, lsl #16
    4828:	e59f0008 	ldr	r0, [pc, #8]	; 4838 <sendMotorCommand+0x18>
    482c:	e3a02001 	mov	r2, #1
    4830:	ebfff3a2 	bl	16c0 <spin1_send_mc_packet>
    4834:	e8bd8008 	pop	{r3, pc}
    4838:	fcff0000 	.word	0xfcff0000

0000483c <sendNormMotorCommand>:
    483c:	e92d4038 	push	{r3, r4, r5, lr}
    4840:	e1a05001 	mov	r5, r1
    4844:	e59f102c 	ldr	r1, [pc, #44]	; 4878 <sendNormMotorCommand+0x3c>
    4848:	eb000bf8 	bl	7830 <__aeabi_fmul>
    484c:	eb000cf4 	bl	7c24 <__aeabi_f2iz>
    4850:	e2800e86 	add	r0, r0, #2144	; 0x860
    4854:	e2804006 	add	r4, r0, #6
    4858:	e1a00005 	mov	r0, r5
    485c:	e59f1014 	ldr	r1, [pc, #20]	; 4878 <sendNormMotorCommand+0x3c>
    4860:	eb000bf2 	bl	7830 <__aeabi_fmul>
    4864:	eb000cee 	bl	7c24 <__aeabi_f2iz>
    4868:	e2801e7d 	add	r1, r0, #2000	; 0x7d0
    486c:	e1a00004 	mov	r0, r4
    4870:	ebffffea 	bl	4820 <sendMotorCommand>
    4874:	e8bd8038 	pop	{r3, r4, r5, pc}
    4878:	43fa0000 	.word	0x43fa0000

0000487c <min>:
    487c:	e92d4038 	push	{r3, r4, r5, lr}
    4880:	e1a04000 	mov	r4, r0
    4884:	e1a05001 	mov	r5, r1
    4888:	eb000ce0 	bl	7c10 <__aeabi_fcmpgt>
    488c:	e3500000 	cmp	r0, #0
    4890:	11a00005 	movne	r0, r5
    4894:	01a00004 	moveq	r0, r4
    4898:	e8bd8038 	pop	{r3, r4, r5, pc}

0000489c <max>:
    489c:	e92d4038 	push	{r3, r4, r5, lr}
    48a0:	e1a05000 	mov	r5, r0
    48a4:	e1a04001 	mov	r4, r1
    48a8:	eb000cd8 	bl	7c10 <__aeabi_fcmpgt>
    48ac:	e3500000 	cmp	r0, #0
    48b0:	11a00005 	movne	r0, r5
    48b4:	01a00004 	moveq	r0, r4
    48b8:	e8bd8038 	pop	{r3, r4, r5, pc}

000048bc <range>:
    48bc:	e92d4070 	push	{r4, r5, r6, lr}
    48c0:	e1a04000 	mov	r4, r0
    48c4:	e1a06001 	mov	r6, r1
    48c8:	e1a05002 	mov	r5, r2
    48cc:	e1a01002 	mov	r1, r2
    48d0:	eb000cce 	bl	7c10 <__aeabi_fcmpgt>
    48d4:	e3500000 	cmp	r0, #0
    48d8:	11a04005 	movne	r4, r5
    48dc:	1a000004 	bne	48f4 <range+0x38>
    48e0:	e1a00004 	mov	r0, r4
    48e4:	e1a01006 	mov	r1, r6
    48e8:	eb000cb9 	bl	7bd4 <__aeabi_fcmplt>
    48ec:	e3500000 	cmp	r0, #0
    48f0:	11a04006 	movne	r4, r6
    48f4:	e1a00004 	mov	r0, r4
    48f8:	e8bd8070 	pop	{r4, r5, r6, pc}

000048fc <f_abs>:
    48fc:	e92d4010 	push	{r4, lr}
    4900:	e1a04000 	mov	r4, r0
    4904:	e3a01000 	mov	r1, #0
    4908:	eb000cb1 	bl	7bd4 <__aeabi_fcmplt>
    490c:	e3500000 	cmp	r0, #0
    4910:	12840102 	addne	r0, r4, #-2147483648	; 0x80000000
    4914:	01a00004 	moveq	r0, r4
    4918:	e8bd8010 	pop	{r4, pc}

0000491c <empty_vector>:
    491c:	e3a02000 	mov	r2, #0
    4920:	e5802000 	str	r2, [r0]
    4924:	e5802004 	str	r2, [r0, #4]
    4928:	e12fff1e 	bx	lr

0000492c <vector>:
    492c:	e5801000 	str	r1, [r0]
    4930:	e5802004 	str	r2, [r0, #4]
    4934:	e12fff1e 	bx	lr

00004938 <norm>:
    4938:	e92d4008 	push	{r3, lr}
    493c:	e0030191 	mul	r3, r1, r1
    4940:	e1a01003 	mov	r1, r3
    4944:	e0231090 	mla	r3, r0, r0, r1
    4948:	e1a00003 	mov	r0, r3
    494c:	eb000946 	bl	6e6c <__aeabi_i2d>
    4950:	eb000120 	bl	4dd8 <sqrt>
    4954:	eb000af9 	bl	7540 <__aeabi_d2f>
    4958:	e8bd8008 	pop	{r3, pc}

0000495c <v_norm>:
    495c:	e92d4030 	push	{r4, r5, lr}
    4960:	e24dd00c 	sub	sp, sp, #12
    4964:	e28d3008 	add	r3, sp, #8
    4968:	e9030003 	stmdb	r3, {r0, r1}
    496c:	e59d1000 	ldr	r1, [sp]
    4970:	e59d4004 	ldr	r4, [sp, #4]
    4974:	e1a00001 	mov	r0, r1
    4978:	eb000bac 	bl	7830 <__aeabi_fmul>
    497c:	e1a05000 	mov	r5, r0
    4980:	e1a00004 	mov	r0, r4
    4984:	e1a01004 	mov	r1, r4
    4988:	eb000ba8 	bl	7830 <__aeabi_fmul>
    498c:	e1a01000 	mov	r1, r0
    4990:	e1a00005 	mov	r0, r5
    4994:	eb000b14 	bl	75ec <__addsf3>
    4998:	eb0001a6 	bl	5038 <sqrtf>
    499c:	e28dd00c 	add	sp, sp, #12
    49a0:	e8bd8030 	pop	{r4, r5, pc}

000049a4 <v_add>:
    49a4:	e24dd008 	sub	sp, sp, #8
    49a8:	e92d4030 	push	{r4, r5, lr}
    49ac:	e24dd00c 	sub	sp, sp, #12
    49b0:	e1a04000 	mov	r4, r0
    49b4:	e28d0008 	add	r0, sp, #8
    49b8:	e9000006 	stmdb	r0, {r1, r2}
    49bc:	e58d301c 	str	r3, [sp, #28]
    49c0:	e59d0004 	ldr	r0, [sp, #4]
    49c4:	e59d1020 	ldr	r1, [sp, #32]
    49c8:	eb000b07 	bl	75ec <__addsf3>
    49cc:	e1a05000 	mov	r5, r0
    49d0:	e59d0000 	ldr	r0, [sp]
    49d4:	e59d101c 	ldr	r1, [sp, #28]
    49d8:	eb000b03 	bl	75ec <__addsf3>
    49dc:	e5840000 	str	r0, [r4]
    49e0:	e5845004 	str	r5, [r4, #4]
    49e4:	e1a00004 	mov	r0, r4
    49e8:	e28dd00c 	add	sp, sp, #12
    49ec:	e8bd4030 	pop	{r4, r5, lr}
    49f0:	e28dd008 	add	sp, sp, #8
    49f4:	e12fff1e 	bx	lr

000049f8 <v_sub>:
    49f8:	e24dd008 	sub	sp, sp, #8
    49fc:	e92d4030 	push	{r4, r5, lr}
    4a00:	e24dd00c 	sub	sp, sp, #12
    4a04:	e1a04000 	mov	r4, r0
    4a08:	e28d0008 	add	r0, sp, #8
    4a0c:	e9000006 	stmdb	r0, {r1, r2}
    4a10:	e58d301c 	str	r3, [sp, #28]
    4a14:	e59d0004 	ldr	r0, [sp, #4]
    4a18:	e59d1020 	ldr	r1, [sp, #32]
    4a1c:	eb000af1 	bl	75e8 <__aeabi_fsub>
    4a20:	e1a05000 	mov	r5, r0
    4a24:	e59d0000 	ldr	r0, [sp]
    4a28:	e59d101c 	ldr	r1, [sp, #28]
    4a2c:	eb000aed 	bl	75e8 <__aeabi_fsub>
    4a30:	e5840000 	str	r0, [r4]
    4a34:	e5845004 	str	r5, [r4, #4]
    4a38:	e1a00004 	mov	r0, r4
    4a3c:	e28dd00c 	add	sp, sp, #12
    4a40:	e8bd4030 	pop	{r4, r5, lr}
    4a44:	e28dd008 	add	sp, sp, #8
    4a48:	e12fff1e 	bx	lr

00004a4c <v_mul>:
    4a4c:	e92d4070 	push	{r4, r5, r6, lr}
    4a50:	e24dd008 	sub	sp, sp, #8
    4a54:	e1a04000 	mov	r4, r0
    4a58:	e1a05001 	mov	r5, r1
    4a5c:	e28d1008 	add	r1, sp, #8
    4a60:	e901000c 	stmdb	r1, {r2, r3}
    4a64:	e1a00005 	mov	r0, r5
    4a68:	e59d1004 	ldr	r1, [sp, #4]
    4a6c:	eb000b6f 	bl	7830 <__aeabi_fmul>
    4a70:	e1a06000 	mov	r6, r0
    4a74:	e59d0000 	ldr	r0, [sp]
    4a78:	e1a01005 	mov	r1, r5
    4a7c:	eb000b6b 	bl	7830 <__aeabi_fmul>
    4a80:	e5840000 	str	r0, [r4]
    4a84:	e5846004 	str	r6, [r4, #4]
    4a88:	e1a00004 	mov	r0, r4
    4a8c:	e28dd008 	add	sp, sp, #8
    4a90:	e8bd8070 	pop	{r4, r5, r6, pc}

00004a94 <dot>:
    4a94:	e92d4010 	push	{r4, lr}
    4a98:	e24dd010 	sub	sp, sp, #16
    4a9c:	e28dc010 	add	ip, sp, #16
    4aa0:	e90c0003 	stmdb	ip, {r0, r1}
    4aa4:	e88d000c 	stm	sp, {r2, r3}
    4aa8:	e59d0008 	ldr	r0, [sp, #8]
    4aac:	e59d1000 	ldr	r1, [sp]
    4ab0:	eb000b5e 	bl	7830 <__aeabi_fmul>
    4ab4:	e1a04000 	mov	r4, r0
    4ab8:	e59d000c 	ldr	r0, [sp, #12]
    4abc:	e59d1004 	ldr	r1, [sp, #4]
    4ac0:	eb000b5a 	bl	7830 <__aeabi_fmul>
    4ac4:	e1a01000 	mov	r1, r0
    4ac8:	e1a00004 	mov	r0, r4
    4acc:	eb000ac6 	bl	75ec <__addsf3>
    4ad0:	e28dd010 	add	sp, sp, #16
    4ad4:	e8bd8010 	pop	{r4, pc}

00004ad8 <normalize>:
    4ad8:	e92d4070 	push	{r4, r5, r6, lr}
    4adc:	e24dd008 	sub	sp, sp, #8
    4ae0:	e1a04000 	mov	r4, r0
    4ae4:	e88d0006 	stm	sp, {r1, r2}
    4ae8:	e89d0003 	ldm	sp, {r0, r1}
    4aec:	ebffff9a 	bl	495c <v_norm>
    4af0:	e1a05000 	mov	r5, r0
    4af4:	e3a01000 	mov	r1, #0
    4af8:	eb000c30 	bl	7bc0 <__aeabi_fcmpeq>
    4afc:	e3500000 	cmp	r0, #0
    4b00:	0a000009 	beq	4b2c <normalize+0x54>
    4b04:	e59d0004 	ldr	r0, [sp, #4]
    4b08:	e3a01000 	mov	r1, #0
    4b0c:	eb000b47 	bl	7830 <__aeabi_fmul>
    4b10:	e1a05000 	mov	r5, r0
    4b14:	e59d0000 	ldr	r0, [sp]
    4b18:	e3a01000 	mov	r1, #0
    4b1c:	eb000b43 	bl	7830 <__aeabi_fmul>
    4b20:	e5840000 	str	r0, [r4]
    4b24:	e5845004 	str	r5, [r4, #4]
    4b28:	ea00000b 	b	4b5c <normalize+0x84>
    4b2c:	e3a005fe 	mov	r0, #1065353216	; 0x3f800000
    4b30:	e1a01005 	mov	r1, r5
    4b34:	eb000ba3 	bl	79c8 <__aeabi_fdiv>
    4b38:	e1a06000 	mov	r6, r0
    4b3c:	e59d1004 	ldr	r1, [sp, #4]
    4b40:	eb000b3a 	bl	7830 <__aeabi_fmul>
    4b44:	e1a05000 	mov	r5, r0
    4b48:	e1a00006 	mov	r0, r6
    4b4c:	e59d1000 	ldr	r1, [sp]
    4b50:	eb000b36 	bl	7830 <__aeabi_fmul>
    4b54:	e5840000 	str	r0, [r4]
    4b58:	e5845004 	str	r5, [r4, #4]
    4b5c:	e1a00004 	mov	r0, r4
    4b60:	e28dd008 	add	sp, sp, #8
    4b64:	e8bd8070 	pop	{r4, r5, r6, pc}

00004b68 <perp>:
    4b68:	e24dd008 	sub	sp, sp, #8
    4b6c:	e28dc008 	add	ip, sp, #8
    4b70:	e90c0006 	stmdb	ip, {r1, r2}
    4b74:	e59d2004 	ldr	r2, [sp, #4]
    4b78:	e2822102 	add	r2, r2, #-2147483648	; 0x80000000
    4b7c:	e5802000 	str	r2, [r0]
    4b80:	e59d2000 	ldr	r2, [sp]
    4b84:	e5802004 	str	r2, [r0, #4]
    4b88:	e28dd008 	add	sp, sp, #8
    4b8c:	e12fff1e 	bx	lr

00004b90 <project>:
    4b90:	e24dd008 	sub	sp, sp, #8
    4b94:	e92d4070 	push	{r4, r5, r6, lr}
    4b98:	e24dd010 	sub	sp, sp, #16
    4b9c:	e1a05000 	mov	r5, r0
    4ba0:	e88d0006 	stm	sp, {r1, r2}
    4ba4:	e58d3024 	str	r3, [sp, #36]	; 0x24
    4ba8:	e59d0000 	ldr	r0, [sp]
    4bac:	e59d1024 	ldr	r1, [sp, #36]	; 0x24
    4bb0:	eb000b1e 	bl	7830 <__aeabi_fmul>
    4bb4:	e1a04000 	mov	r4, r0
    4bb8:	e59d0004 	ldr	r0, [sp, #4]
    4bbc:	e59d1028 	ldr	r1, [sp, #40]	; 0x28
    4bc0:	eb000b1a 	bl	7830 <__aeabi_fmul>
    4bc4:	e1a01000 	mov	r1, r0
    4bc8:	e1a00004 	mov	r0, r4
    4bcc:	eb000a86 	bl	75ec <__addsf3>
    4bd0:	e1a06000 	mov	r6, r0
    4bd4:	e28d4024 	add	r4, sp, #36	; 0x24
    4bd8:	e8940003 	ldm	r4, {r0, r1}
    4bdc:	ebffff5e 	bl	495c <v_norm>
    4be0:	e1a01000 	mov	r1, r0
    4be4:	e1a00006 	mov	r0, r6
    4be8:	eb000b76 	bl	79c8 <__aeabi_fdiv>
    4bec:	e1a06000 	mov	r6, r0
    4bf0:	e28d0008 	add	r0, sp, #8
    4bf4:	e8940006 	ldm	r4, {r1, r2}
    4bf8:	ebffffb6 	bl	4ad8 <normalize>
    4bfc:	e1a00006 	mov	r0, r6
    4c00:	e59d100c 	ldr	r1, [sp, #12]
    4c04:	eb000b09 	bl	7830 <__aeabi_fmul>
    4c08:	e1a04000 	mov	r4, r0
    4c0c:	e1a00006 	mov	r0, r6
    4c10:	e59d1008 	ldr	r1, [sp, #8]
    4c14:	eb000b05 	bl	7830 <__aeabi_fmul>
    4c18:	e5850000 	str	r0, [r5]
    4c1c:	e5854004 	str	r4, [r5, #4]
    4c20:	e1a00005 	mov	r0, r5
    4c24:	e28dd010 	add	sp, sp, #16
    4c28:	e8bd4070 	pop	{r4, r5, r6, lr}
    4c2c:	e28dd008 	add	sp, sp, #8
    4c30:	e12fff1e 	bx	lr

00004c34 <raise>:
    4c34:	e12fff1e 	bx	lr

00004c38 <__aeabi_unwind_cpp_pr0>:
    4c38:	e12fff1e 	bx	lr

00004c3c <sincos>:
    4c3c:	e92d43f0 	push	{r4, r5, r6, r7, r8, r9, lr}
    4c40:	e1a07002 	mov	r7, r2
    4c44:	e59f2174 	ldr	r2, [pc, #372]	; 4dc0 <sincos+0x184>
    4c48:	e1a06003 	mov	r6, r3
    4c4c:	e3c13102 	bic	r3, r1, #-2147483648	; 0x80000000
    4c50:	e1530002 	cmp	r3, r2
    4c54:	e24dd01c 	sub	sp, sp, #28
    4c58:	e1a09000 	mov	r9, r0
    4c5c:	e1a08001 	mov	r8, r1
    4c60:	8a00001e 	bhi	4ce0 <sincos+0xa4>
    4c64:	e59f2158 	ldr	r2, [pc, #344]	; 4dc4 <sincos+0x188>
    4c68:	e1530002 	cmp	r3, r2
    4c6c:	8a00000e 	bhi	4cac <sincos+0x70>
    4c70:	e3530601 	cmp	r3, #1048576	; 0x100000
    4c74:	e3a02000 	mov	r2, #0
    4c78:	2a000002 	bcs	4c88 <sincos+0x4c>
    4c7c:	e59f3144 	ldr	r3, [pc, #324]	; 4dc8 <sincos+0x18c>
    4c80:	eb0008b0 	bl	6f48 <__aeabi_dmul>
    4c84:	ea000001 	b	4c90 <sincos+0x54>
    4c88:	e59f313c 	ldr	r3, [pc, #316]	; 4dcc <sincos+0x190>
    4c8c:	eb0007c2 	bl	6b9c <__adddf3>
    4c90:	e1a02009 	mov	r2, r9
    4c94:	e1a03008 	mov	r3, r8
    4c98:	e1c720f0 	strd	r2, [r7]
    4c9c:	e1cd00f8 	strd	r0, [sp, #8]
    4ca0:	e3a02000 	mov	r2, #0
    4ca4:	e59f3124 	ldr	r3, [pc, #292]	; 4dd0 <sincos+0x194>
    4ca8:	ea000041 	b	4db4 <sincos+0x178>
    4cac:	e3a03000 	mov	r3, #0
    4cb0:	e58d3000 	str	r3, [sp]
    4cb4:	e3a02000 	mov	r2, #0
    4cb8:	e3a03000 	mov	r3, #0
    4cbc:	eb00060f 	bl	6500 <__sin>
    4cc0:	e3a02000 	mov	r2, #0
    4cc4:	e3a03000 	mov	r3, #0
    4cc8:	e1c700f0 	strd	r0, [r7]
    4ccc:	e1a00009 	mov	r0, r9
    4cd0:	e1a01008 	mov	r1, r8
    4cd4:	eb00013b 	bl	51c8 <__cos>
    4cd8:	e1c600f0 	strd	r0, [r6]
    4cdc:	ea000035 	b	4db8 <sincos+0x17c>
    4ce0:	e59f20ec 	ldr	r2, [pc, #236]	; 4dd4 <sincos+0x198>
    4ce4:	e1530002 	cmp	r3, r2
    4ce8:	9a000005 	bls	4d04 <sincos+0xc8>
    4cec:	e1a02009 	mov	r2, r9
    4cf0:	e1a03008 	mov	r3, r8
    4cf4:	eb0007a7 	bl	6b98 <__aeabi_dsub>
    4cf8:	e1c600f0 	strd	r0, [r6]
    4cfc:	e1c700f0 	strd	r0, [r7]
    4d00:	ea00002c 	b	4db8 <sincos+0x17c>
    4d04:	e28d2008 	add	r2, sp, #8
    4d08:	eb0001b3 	bl	53dc <__rem_pio2>
    4d0c:	e3a03001 	mov	r3, #1
    4d10:	e58d3000 	str	r3, [sp]
    4d14:	e1cd21d0 	ldrd	r2, [sp, #16]
    4d18:	e1a04000 	mov	r4, r0
    4d1c:	e1cd00d8 	ldrd	r0, [sp, #8]
    4d20:	eb0005f6 	bl	6500 <__sin>
    4d24:	e1cd21d0 	ldrd	r2, [sp, #16]
    4d28:	e1a09000 	mov	r9, r0
    4d2c:	e1a08001 	mov	r8, r1
    4d30:	e1cd00d8 	ldrd	r0, [sp, #8]
    4d34:	eb000123 	bl	51c8 <__cos>
    4d38:	e1a0c000 	mov	ip, r0
    4d3c:	e2040003 	and	r0, r4, #3
    4d40:	e3500001 	cmp	r0, #1
    4d44:	0a00000f 	beq	4d88 <sincos+0x14c>
    4d48:	3a000008 	bcc	4d70 <sincos+0x134>
    4d4c:	e3500002 	cmp	r0, #2
    4d50:	e2811102 	add	r1, r1, #-2147483648	; 0x80000000
    4d54:	1a000012 	bne	4da4 <sincos+0x168>
    4d58:	e2888102 	add	r8, r8, #-2147483648	; 0x80000000
    4d5c:	e5879000 	str	r9, [r7]
    4d60:	e5878004 	str	r8, [r7, #4]
    4d64:	e586c000 	str	ip, [r6]
    4d68:	e5861004 	str	r1, [r6, #4]
    4d6c:	ea000011 	b	4db8 <sincos+0x17c>
    4d70:	e1a02009 	mov	r2, r9
    4d74:	e1a03008 	mov	r3, r8
    4d78:	e1c720f0 	strd	r2, [r7]
    4d7c:	e1a0200c 	mov	r2, ip
    4d80:	e1a03001 	mov	r3, r1
    4d84:	ea00000a 	b	4db4 <sincos+0x178>
    4d88:	e1a0400c 	mov	r4, ip
    4d8c:	e1a05001 	mov	r5, r1
    4d90:	e2888102 	add	r8, r8, #-2147483648	; 0x80000000
    4d94:	e1c740f0 	strd	r4, [r7]
    4d98:	e5869000 	str	r9, [r6]
    4d9c:	e5868004 	str	r8, [r6, #4]
    4da0:	ea000004 	b	4db8 <sincos+0x17c>
    4da4:	e1a02009 	mov	r2, r9
    4da8:	e1a03008 	mov	r3, r8
    4dac:	e587c000 	str	ip, [r7]
    4db0:	e5871004 	str	r1, [r7, #4]
    4db4:	e1c620f0 	strd	r2, [r6]
    4db8:	e28dd01c 	add	sp, sp, #28
    4dbc:	e8bd83f0 	pop	{r4, r5, r6, r7, r8, r9, pc}
    4dc0:	3fe921fb 	.word	0x3fe921fb
    4dc4:	3e46a09d 	.word	0x3e46a09d
    4dc8:	38700000 	.word	0x38700000
    4dcc:	47700000 	.word	0x47700000
    4dd0:	3ff00000 	.word	0x3ff00000
    4dd4:	7fefffff 	.word	0x7fefffff

00004dd8 <sqrt>:
    4dd8:	e59fc248 	ldr	ip, [pc, #584]	; 5028 <sqrt+0x250>
    4ddc:	e92d43f8 	push	{r3, r4, r5, r6, r7, r8, r9, lr}
    4de0:	e59f8240 	ldr	r8, [pc, #576]	; 5028 <sqrt+0x250>
    4de4:	e001c00c 	and	ip, r1, ip
    4de8:	e15c0008 	cmp	ip, r8
    4dec:	e1a05000 	mov	r5, r0
    4df0:	e1a04001 	mov	r4, r1
    4df4:	e1a07000 	mov	r7, r0
    4df8:	e1a06001 	mov	r6, r1
    4dfc:	e1a03001 	mov	r3, r1
    4e00:	e1a02000 	mov	r2, r0
    4e04:	1a000004 	bne	4e1c <sqrt+0x44>
    4e08:	eb00084e 	bl	6f48 <__aeabi_dmul>
    4e0c:	e1a02005 	mov	r2, r5
    4e10:	e1a03004 	mov	r3, r4
    4e14:	eb000760 	bl	6b9c <__adddf3>
    4e18:	e8bd83f8 	pop	{r3, r4, r5, r6, r7, r8, r9, pc}
    4e1c:	e3510000 	cmp	r1, #0
    4e20:	ca00000b 	bgt	4e54 <sqrt+0x7c>
    4e24:	e3c1c102 	bic	ip, r1, #-2147483648	; 0x80000000
    4e28:	e19c7007 	orrs	r7, ip, r7
    4e2c:	0a00007c 	beq	5024 <sqrt+0x24c>
    4e30:	e3510000 	cmp	r1, #0
    4e34:	0a000006 	beq	4e54 <sqrt+0x7c>
    4e38:	e1a02000 	mov	r2, r0
    4e3c:	e1a03001 	mov	r3, r1
    4e40:	eb000754 	bl	6b98 <__aeabi_dsub>
    4e44:	e1a02000 	mov	r2, r0
    4e48:	e1a03001 	mov	r3, r1
    4e4c:	eb0008d8 	bl	71b4 <__aeabi_ddiv>
    4e50:	e8bd83f8 	pop	{r3, r4, r5, r6, r7, r8, r9, pc}
    4e54:	e1b06a46 	asrs	r6, r6, #20
    4e58:	1a00000e 	bne	4e98 <sqrt+0xc0>
    4e5c:	e3530000 	cmp	r3, #0
    4e60:	01a035a2 	lsreq	r3, r2, #11
    4e64:	02466015 	subeq	r6, r6, #21
    4e68:	01a02a82 	lsleq	r2, r2, #21
    4e6c:	0afffffa 	beq	4e5c <sqrt+0x84>
    4e70:	e3a01000 	mov	r1, #0
    4e74:	e3130601 	tst	r3, #1048576	; 0x100000
    4e78:	01a03083 	lsleq	r3, r3, #1
    4e7c:	02811001 	addeq	r1, r1, #1
    4e80:	0afffffb 	beq	4e74 <sqrt+0x9c>
    4e84:	e2610001 	rsb	r0, r1, #1
    4e88:	e0866000 	add	r6, r6, r0
    4e8c:	e2610020 	rsb	r0, r1, #32
    4e90:	e1833032 	orr	r3, r3, r2, lsr r0
    4e94:	e1a02112 	lsl	r2, r2, r1
    4e98:	e2466fff 	sub	r6, r6, #1020	; 0x3fc
    4e9c:	e2466003 	sub	r6, r6, #3
    4ea0:	e3c334ff 	bic	r3, r3, #-16777216	; 0xff000000
    4ea4:	e3160001 	tst	r6, #1
    4ea8:	e3c3360f 	bic	r3, r3, #15728640	; 0xf00000
    4eac:	11a01fa2 	lsrne	r1, r2, #31
    4eb0:	e3833601 	orr	r3, r3, #1048576	; 0x100000
    4eb4:	11a02082 	lslne	r2, r2, #1
    4eb8:	10813083 	addne	r3, r1, r3, lsl #1
    4ebc:	e3a05000 	mov	r5, #0
    4ec0:	e1a01fa2 	lsr	r1, r2, #31
    4ec4:	e0813083 	add	r3, r1, r3, lsl #1
    4ec8:	e1a060c6 	asr	r6, r6, #1
    4ecc:	e1a02082 	lsl	r2, r2, #1
    4ed0:	e3a04016 	mov	r4, #22
    4ed4:	e3a00602 	mov	r0, #2097152	; 0x200000
    4ed8:	e1a01005 	mov	r1, r5
    4edc:	e081c000 	add	ip, r1, r0
    4ee0:	e15c0003 	cmp	ip, r3
    4ee4:	d08c1000 	addle	r1, ip, r0
    4ee8:	d06c3003 	rsble	r3, ip, r3
    4eec:	d0855000 	addle	r5, r5, r0
    4ef0:	e1a0cfa2 	lsr	ip, r2, #31
    4ef4:	e2544001 	subs	r4, r4, #1
    4ef8:	e08c3083 	add	r3, ip, r3, lsl #1
    4efc:	e1a02082 	lsl	r2, r2, #1
    4f00:	e1a000a0 	lsr	r0, r0, #1
    4f04:	1afffff4 	bne	4edc <sqrt+0x104>
    4f08:	e3a07020 	mov	r7, #32
    4f0c:	e1a08004 	mov	r8, r4
    4f10:	e3a00102 	mov	r0, #-2147483648	; 0x80000000
    4f14:	e1510003 	cmp	r1, r3
    4f18:	e088c000 	add	ip, r8, r0
    4f1c:	ba000002 	blt	4f2c <sqrt+0x154>
    4f20:	e15c0002 	cmp	ip, r2
    4f24:	91510003 	cmpls	r1, r3
    4f28:	1a00000d 	bne	4f64 <sqrt+0x18c>
    4f2c:	e20c9102 	and	r9, ip, #-2147483648	; 0x80000000
    4f30:	e3590102 	cmp	r9, #-2147483648	; 0x80000000
    4f34:	e08c8000 	add	r8, ip, r0
    4f38:	1a000002 	bne	4f48 <sqrt+0x170>
    4f3c:	e3580000 	cmp	r8, #0
    4f40:	a2819001 	addge	r9, r1, #1
    4f44:	aa000000 	bge	4f4c <sqrt+0x174>
    4f48:	e1a09001 	mov	r9, r1
    4f4c:	e0613003 	rsb	r3, r1, r3
    4f50:	e152000c 	cmp	r2, ip
    4f54:	32433001 	subcc	r3, r3, #1
    4f58:	e06c2002 	rsb	r2, ip, r2
    4f5c:	e0844000 	add	r4, r4, r0
    4f60:	e1a01009 	mov	r1, r9
    4f64:	e1a0cfa2 	lsr	ip, r2, #31
    4f68:	e2577001 	subs	r7, r7, #1
    4f6c:	e08c3083 	add	r3, ip, r3, lsl #1
    4f70:	e1a02082 	lsl	r2, r2, #1
    4f74:	e1a000a0 	lsr	r0, r0, #1
    4f78:	1affffe5 	bne	4f14 <sqrt+0x13c>
    4f7c:	e1932002 	orrs	r2, r3, r2
    4f80:	0a00001d 	beq	4ffc <sqrt+0x224>
    4f84:	e59f20a0 	ldr	r2, [pc, #160]	; 502c <sqrt+0x254>
    4f88:	e59f30a0 	ldr	r3, [pc, #160]	; 5030 <sqrt+0x258>
    4f8c:	e3a00000 	mov	r0, #0
    4f90:	e59f109c 	ldr	r1, [pc, #156]	; 5034 <sqrt+0x25c>
    4f94:	eb0006ff 	bl	6b98 <__aeabi_dsub>
    4f98:	e3a02000 	mov	r2, #0
    4f9c:	e59f3090 	ldr	r3, [pc, #144]	; 5034 <sqrt+0x25c>
    4fa0:	eb000945 	bl	74bc <__aeabi_dcmpge>
    4fa4:	e3500000 	cmp	r0, #0
    4fa8:	0a000013 	beq	4ffc <sqrt+0x224>
    4fac:	e3740001 	cmn	r4, #1
    4fb0:	02855001 	addeq	r5, r5, #1
    4fb4:	01a04007 	moveq	r4, r7
    4fb8:	0a00000f 	beq	4ffc <sqrt+0x224>
    4fbc:	e59f2068 	ldr	r2, [pc, #104]	; 502c <sqrt+0x254>
    4fc0:	e59f3068 	ldr	r3, [pc, #104]	; 5030 <sqrt+0x258>
    4fc4:	e3a00000 	mov	r0, #0
    4fc8:	e59f1064 	ldr	r1, [pc, #100]	; 5034 <sqrt+0x25c>
    4fcc:	eb0006f2 	bl	6b9c <__adddf3>
    4fd0:	e3a02000 	mov	r2, #0
    4fd4:	e59f3058 	ldr	r3, [pc, #88]	; 5034 <sqrt+0x25c>
    4fd8:	eb00093c 	bl	74d0 <__aeabi_dcmpgt>
    4fdc:	e3500000 	cmp	r0, #0
    4fe0:	0a000003 	beq	4ff4 <sqrt+0x21c>
    4fe4:	e3740002 	cmn	r4, #2
    4fe8:	02855001 	addeq	r5, r5, #1
    4fec:	e2844002 	add	r4, r4, #2
    4ff0:	ea000001 	b	4ffc <sqrt+0x224>
    4ff4:	e2043001 	and	r3, r4, #1
    4ff8:	e0834004 	add	r4, r3, r4
    4ffc:	e1a030c5 	asr	r3, r5, #1
    5000:	e28335ff 	add	r3, r3, #1069547520	; 0x3fc00000
    5004:	e1a040a4 	lsr	r4, r4, #1
    5008:	e2833602 	add	r3, r3, #2097152	; 0x200000
    500c:	e3150001 	tst	r5, #1
    5010:	13844102 	orrne	r4, r4, #-2147483648	; 0x80000000
    5014:	e0831a06 	add	r1, r3, r6, lsl #20
    5018:	e3a00000 	mov	r0, #0
    501c:	e1800004 	orr	r0, r0, r4
    5020:	e8bd83f8 	pop	{r3, r4, r5, r6, r7, r8, r9, pc}
    5024:	e8bd83f8 	pop	{r3, r4, r5, r6, r7, r8, r9, pc}
    5028:	7ff00000 	.word	0x7ff00000
    502c:	c2f8f359 	.word	0xc2f8f359
    5030:	01a56e1f 	.word	0x01a56e1f
    5034:	3ff00000 	.word	0x3ff00000

00005038 <sqrtf>:
    5038:	e59f2120 	ldr	r2, [pc, #288]	; 5160 <sqrtf+0x128>
    503c:	e59f111c 	ldr	r1, [pc, #284]	; 5160 <sqrtf+0x128>
    5040:	e0002002 	and	r2, r0, r2
    5044:	e1520001 	cmp	r2, r1
    5048:	e92d4070 	push	{r4, r5, r6, lr}
    504c:	e1a03000 	mov	r3, r0
    5050:	e1a04000 	mov	r4, r0
    5054:	1a000004 	bne	506c <sqrtf+0x34>
    5058:	e1a01000 	mov	r1, r0
    505c:	eb0009f3 	bl	7830 <__aeabi_fmul>
    5060:	e1a01004 	mov	r1, r4
    5064:	eb000960 	bl	75ec <__addsf3>
    5068:	e8bd8070 	pop	{r4, r5, r6, pc}
    506c:	e3500000 	cmp	r0, #0
    5070:	ca000007 	bgt	5094 <sqrtf+0x5c>
    5074:	e3c03102 	bic	r3, r0, #-2147483648	; 0x80000000
    5078:	e3530000 	cmp	r3, #0
    507c:	0a000036 	beq	515c <sqrtf+0x124>
    5080:	e1a01000 	mov	r1, r0
    5084:	eb000957 	bl	75e8 <__aeabi_fsub>
    5088:	e1a01000 	mov	r1, r0
    508c:	eb000a4d 	bl	79c8 <__aeabi_fdiv>
    5090:	e8bd8070 	pop	{r4, r5, r6, pc}
    5094:	e1b00bc0 	asrs	r0, r0, #23
    5098:	1a000004 	bne	50b0 <sqrtf+0x78>
    509c:	e3130502 	tst	r3, #8388608	; 0x800000
    50a0:	01a03083 	lsleq	r3, r3, #1
    50a4:	02800001 	addeq	r0, r0, #1
    50a8:	0afffffb 	beq	509c <sqrtf+0x64>
    50ac:	e2600001 	rsb	r0, r0, #1
    50b0:	e3c334ff 	bic	r3, r3, #-16777216	; 0xff000000
    50b4:	e240007f 	sub	r0, r0, #127	; 0x7f
    50b8:	e3c33502 	bic	r3, r3, #8388608	; 0x800000
    50bc:	e3833502 	orr	r3, r3, #8388608	; 0x800000
    50c0:	e3100001 	tst	r0, #1
    50c4:	11a03083 	lslne	r3, r3, #1
    50c8:	e3a04000 	mov	r4, #0
    50cc:	e1a060c0 	asr	r6, r0, #1
    50d0:	e1a03083 	lsl	r3, r3, #1
    50d4:	e3a01019 	mov	r1, #25
    50d8:	e3a02401 	mov	r2, #16777216	; 0x1000000
    50dc:	e1a05004 	mov	r5, r4
    50e0:	e085c002 	add	ip, r5, r2
    50e4:	e15c0003 	cmp	ip, r3
    50e8:	d08c5002 	addle	r5, ip, r2
    50ec:	d06c3003 	rsble	r3, ip, r3
    50f0:	d0844002 	addle	r4, r4, r2
    50f4:	e2511001 	subs	r1, r1, #1
    50f8:	e1a03083 	lsl	r3, r3, #1
    50fc:	e1a020a2 	lsr	r2, r2, #1
    5100:	1afffff6 	bne	50e0 <sqrtf+0xa8>
    5104:	e3530000 	cmp	r3, #0
    5108:	0a00000f 	beq	514c <sqrtf+0x114>
    510c:	e59f1050 	ldr	r1, [pc, #80]	; 5164 <sqrtf+0x12c>
    5110:	e3a005fe 	mov	r0, #1065353216	; 0x3f800000
    5114:	eb000933 	bl	75e8 <__aeabi_fsub>
    5118:	e3a015fe 	mov	r1, #1065353216	; 0x3f800000
    511c:	eb000ab6 	bl	7bfc <__aeabi_fcmpge>
    5120:	e3500000 	cmp	r0, #0
    5124:	0a000008 	beq	514c <sqrtf+0x114>
    5128:	e59f1034 	ldr	r1, [pc, #52]	; 5164 <sqrtf+0x12c>
    512c:	e3a005fe 	mov	r0, #1065353216	; 0x3f800000
    5130:	eb00092d 	bl	75ec <__addsf3>
    5134:	e3a015fe 	mov	r1, #1065353216	; 0x3f800000
    5138:	eb000ab4 	bl	7c10 <__aeabi_fcmpgt>
    513c:	e3500000 	cmp	r0, #0
    5140:	02043001 	andeq	r3, r4, #1
    5144:	12844002 	addne	r4, r4, #2
    5148:	00844003 	addeq	r4, r4, r3
    514c:	e1a000c4 	asr	r0, r4, #1
    5150:	e280043f 	add	r0, r0, #1056964608	; 0x3f000000
    5154:	e0800b86 	add	r0, r0, r6, lsl #23
    5158:	e8bd8070 	pop	{r4, r5, r6, pc}
    515c:	e8bd8070 	pop	{r4, r5, r6, pc}
    5160:	7f800000 	.word	0x7f800000
    5164:	0da24260 	.word	0x0da24260

00005168 <srand>:
    5168:	e59f300c 	ldr	r3, [pc, #12]	; 517c <srand+0x14>
    516c:	e2400001 	sub	r0, r0, #1
    5170:	e3a01000 	mov	r1, #0
    5174:	e1c300f0 	strd	r0, [r3]
    5178:	e12fff1e 	bx	lr
    517c:	00400158 	.word	0x00400158

00005180 <rand>:
    5180:	e59f1034 	ldr	r1, [pc, #52]	; 51bc <rand+0x3c>
    5184:	e92d4010 	push	{r4, lr}
    5188:	e591c000 	ldr	ip, [r1]
    518c:	e59f402c 	ldr	r4, [pc, #44]	; 51c0 <rand+0x40>
    5190:	e5913004 	ldr	r3, [r1, #4]
    5194:	e004049c 	mul	r4, ip, r4
    5198:	e59f0024 	ldr	r0, [pc, #36]	; 51c4 <rand+0x44>
    519c:	e0244390 	mla	r4, r0, r3, r4
    51a0:	e083209c 	umull	r2, r3, ip, r0
    51a4:	e2922001 	adds	r2, r2, #1
    51a8:	e0843003 	add	r3, r4, r3
    51ac:	e2a33000 	adc	r3, r3, #0
    51b0:	e1c120f0 	strd	r2, [r1]
    51b4:	e1a000a3 	lsr	r0, r3, #1
    51b8:	e8bd8010 	pop	{r4, pc}
    51bc:	00400158 	.word	0x00400158
    51c0:	5851f42d 	.word	0x5851f42d
    51c4:	4c957f2d 	.word	0x4c957f2d

000051c8 <__cos>:
    51c8:	e92d4ff0 	push	{r4, r5, r6, r7, r8, r9, sl, fp, lr}
    51cc:	e24dd01c 	sub	sp, sp, #28
    51d0:	e1cd20f8 	strd	r2, [sp, #8]
    51d4:	e1a02000 	mov	r2, r0
    51d8:	e1a03001 	mov	r3, r1
    51dc:	e1cd00f0 	strd	r0, [sp]
    51e0:	eb000758 	bl	6f48 <__aeabi_dmul>
    51e4:	e1a02000 	mov	r2, r0
    51e8:	e1a03001 	mov	r3, r1
    51ec:	e1a04000 	mov	r4, r0
    51f0:	e1a05001 	mov	r5, r1
    51f4:	eb000753 	bl	6f48 <__aeabi_dmul>
    51f8:	e3a02000 	mov	r2, #0
    51fc:	e59f31a0 	ldr	r3, [pc, #416]	; 53a4 <__cos+0x1dc>
    5200:	e1a08000 	mov	r8, r0
    5204:	e1a09001 	mov	r9, r1
    5208:	e1a00004 	mov	r0, r4
    520c:	e1a01005 	mov	r1, r5
    5210:	eb00074c 	bl	6f48 <__aeabi_dmul>
    5214:	e1a06000 	mov	r6, r0
    5218:	e1a07001 	mov	r7, r1
    521c:	e1a02006 	mov	r2, r6
    5220:	e1a03007 	mov	r3, r7
    5224:	e3a00000 	mov	r0, #0
    5228:	e59f1178 	ldr	r1, [pc, #376]	; 53a8 <__cos+0x1e0>
    522c:	eb000659 	bl	6b98 <__aeabi_dsub>
    5230:	e1a0a000 	mov	sl, r0
    5234:	e1a0b001 	mov	fp, r1
    5238:	e1a0200a 	mov	r2, sl
    523c:	e1a0300b 	mov	r3, fp
    5240:	e3a00000 	mov	r0, #0
    5244:	e59f115c 	ldr	r1, [pc, #348]	; 53a8 <__cos+0x1e0>
    5248:	eb000652 	bl	6b98 <__aeabi_dsub>
    524c:	e1a02006 	mov	r2, r6
    5250:	e1a03007 	mov	r3, r7
    5254:	eb00064f 	bl	6b98 <__aeabi_dsub>
    5258:	e59f214c 	ldr	r2, [pc, #332]	; 53ac <__cos+0x1e4>
    525c:	e59f314c 	ldr	r3, [pc, #332]	; 53b0 <__cos+0x1e8>
    5260:	e1cd01f0 	strd	r0, [sp, #16]
    5264:	e1a00004 	mov	r0, r4
    5268:	e1a01005 	mov	r1, r5
    526c:	eb000735 	bl	6f48 <__aeabi_dmul>
    5270:	e59f213c 	ldr	r2, [pc, #316]	; 53b4 <__cos+0x1ec>
    5274:	e59f313c 	ldr	r3, [pc, #316]	; 53b8 <__cos+0x1f0>
    5278:	eb000646 	bl	6b98 <__aeabi_dsub>
    527c:	e1a02000 	mov	r2, r0
    5280:	e1a03001 	mov	r3, r1
    5284:	e1a00004 	mov	r0, r4
    5288:	e1a01005 	mov	r1, r5
    528c:	eb00072d 	bl	6f48 <__aeabi_dmul>
    5290:	e59f2124 	ldr	r2, [pc, #292]	; 53bc <__cos+0x1f4>
    5294:	e59f3124 	ldr	r3, [pc, #292]	; 53c0 <__cos+0x1f8>
    5298:	eb00063f 	bl	6b9c <__adddf3>
    529c:	e1a02000 	mov	r2, r0
    52a0:	e1a03001 	mov	r3, r1
    52a4:	e1a00004 	mov	r0, r4
    52a8:	e1a01005 	mov	r1, r5
    52ac:	eb000725 	bl	6f48 <__aeabi_dmul>
    52b0:	e1a02008 	mov	r2, r8
    52b4:	e1a03009 	mov	r3, r9
    52b8:	e1a06000 	mov	r6, r0
    52bc:	e1a07001 	mov	r7, r1
    52c0:	e1a00008 	mov	r0, r8
    52c4:	e1a01009 	mov	r1, r9
    52c8:	eb00071e 	bl	6f48 <__aeabi_dmul>
    52cc:	e59f20f0 	ldr	r2, [pc, #240]	; 53c4 <__cos+0x1fc>
    52d0:	e59f30f0 	ldr	r3, [pc, #240]	; 53c8 <__cos+0x200>
    52d4:	e1a08000 	mov	r8, r0
    52d8:	e1a09001 	mov	r9, r1
    52dc:	e1a00004 	mov	r0, r4
    52e0:	e1a01005 	mov	r1, r5
    52e4:	eb000717 	bl	6f48 <__aeabi_dmul>
    52e8:	e59f20dc 	ldr	r2, [pc, #220]	; 53cc <__cos+0x204>
    52ec:	e59f30dc 	ldr	r3, [pc, #220]	; 53d0 <__cos+0x208>
    52f0:	eb000629 	bl	6b9c <__adddf3>
    52f4:	e1a02000 	mov	r2, r0
    52f8:	e1a03001 	mov	r3, r1
    52fc:	e1a00004 	mov	r0, r4
    5300:	e1a01005 	mov	r1, r5
    5304:	eb00070f 	bl	6f48 <__aeabi_dmul>
    5308:	e59f20c4 	ldr	r2, [pc, #196]	; 53d4 <__cos+0x20c>
    530c:	e59f30c4 	ldr	r3, [pc, #196]	; 53d8 <__cos+0x210>
    5310:	eb000620 	bl	6b98 <__aeabi_dsub>
    5314:	e1a02000 	mov	r2, r0
    5318:	e1a03001 	mov	r3, r1
    531c:	e1a00008 	mov	r0, r8
    5320:	e1a01009 	mov	r1, r9
    5324:	eb000707 	bl	6f48 <__aeabi_dmul>
    5328:	e1a02000 	mov	r2, r0
    532c:	e1a03001 	mov	r3, r1
    5330:	e1a00006 	mov	r0, r6
    5334:	e1a01007 	mov	r1, r7
    5338:	eb000617 	bl	6b9c <__adddf3>
    533c:	e1a02000 	mov	r2, r0
    5340:	e1a03001 	mov	r3, r1
    5344:	e1a00004 	mov	r0, r4
    5348:	e1a01005 	mov	r1, r5
    534c:	eb0006fd 	bl	6f48 <__aeabi_dmul>
    5350:	e1cd20d8 	ldrd	r2, [sp, #8]
    5354:	e1a04000 	mov	r4, r0
    5358:	e1a05001 	mov	r5, r1
    535c:	e1cd00d0 	ldrd	r0, [sp]
    5360:	eb0006f8 	bl	6f48 <__aeabi_dmul>
    5364:	e1a02000 	mov	r2, r0
    5368:	e1a03001 	mov	r3, r1
    536c:	e1a00004 	mov	r0, r4
    5370:	e1a01005 	mov	r1, r5
    5374:	eb000607 	bl	6b98 <__aeabi_dsub>
    5378:	e1a02000 	mov	r2, r0
    537c:	e1a03001 	mov	r3, r1
    5380:	e1cd01d0 	ldrd	r0, [sp, #16]
    5384:	eb000604 	bl	6b9c <__adddf3>
    5388:	e1a02000 	mov	r2, r0
    538c:	e1a03001 	mov	r3, r1
    5390:	e1a0000a 	mov	r0, sl
    5394:	e1a0100b 	mov	r1, fp
    5398:	eb0005ff 	bl	6b9c <__adddf3>
    539c:	e28dd01c 	add	sp, sp, #28
    53a0:	e8bd8ff0 	pop	{r4, r5, r6, r7, r8, r9, sl, fp, pc}
    53a4:	3fe00000 	.word	0x3fe00000
    53a8:	3ff00000 	.word	0x3ff00000
    53ac:	19cb1590 	.word	0x19cb1590
    53b0:	3efa01a0 	.word	0x3efa01a0
    53b4:	16c15177 	.word	0x16c15177
    53b8:	3f56c16c 	.word	0x3f56c16c
    53bc:	5555554c 	.word	0x5555554c
    53c0:	3fa55555 	.word	0x3fa55555
    53c4:	be8838d4 	.word	0xbe8838d4
    53c8:	bda8fae9 	.word	0xbda8fae9
    53cc:	bdb4b1c4 	.word	0xbdb4b1c4
    53d0:	3e21ee9e 	.word	0x3e21ee9e
    53d4:	809c52ad 	.word	0x809c52ad
    53d8:	3e927e4f 	.word	0x3e927e4f

000053dc <__rem_pio2>:
    53dc:	e59fc6bc 	ldr	ip, [pc, #1724]	; 5aa0 <__rem_pio2+0x6c4>
    53e0:	e92d4ff0 	push	{r4, r5, r6, r7, r8, r9, sl, fp, lr}
    53e4:	e3c1a102 	bic	sl, r1, #-2147483648	; 0x80000000
    53e8:	e15a000c 	cmp	sl, ip
    53ec:	e24dd044 	sub	sp, sp, #68	; 0x44
    53f0:	e1a04000 	mov	r4, r0
    53f4:	e1a05001 	mov	r5, r1
    53f8:	e1a0b002 	mov	fp, r2
    53fc:	e1a06fa1 	lsr	r6, r1, #31
    5400:	8a000056 	bhi	5560 <__rem_pio2+0x184>
    5404:	e3c124ff 	bic	r2, r1, #-16777216	; 0xff000000
    5408:	e59f3694 	ldr	r3, [pc, #1684]	; 5aa4 <__rem_pio2+0x6c8>
    540c:	e3c2260f 	bic	r2, r2, #15728640	; 0xf00000
    5410:	e1520003 	cmp	r2, r3
    5414:	0a0000c2 	beq	5724 <__rem_pio2+0x348>
    5418:	e59f3688 	ldr	r3, [pc, #1672]	; 5aa8 <__rem_pio2+0x6cc>
    541c:	e59f2688 	ldr	r2, [pc, #1672]	; 5aac <__rem_pio2+0x6d0>
    5420:	e15a0003 	cmp	sl, r3
    5424:	8a000026 	bhi	54c4 <__rem_pio2+0xe8>
    5428:	e3560000 	cmp	r6, #0
    542c:	e59f367c 	ldr	r3, [pc, #1660]	; 5ab0 <__rem_pio2+0x6d4>
    5430:	1a000011 	bne	547c <__rem_pio2+0xa0>
    5434:	eb0005d7 	bl	6b98 <__aeabi_dsub>
    5438:	e59f2674 	ldr	r2, [pc, #1652]	; 5ab4 <__rem_pio2+0x6d8>
    543c:	e59f3674 	ldr	r3, [pc, #1652]	; 5ab8 <__rem_pio2+0x6dc>
    5440:	e1a04000 	mov	r4, r0
    5444:	e1a05001 	mov	r5, r1
    5448:	eb0005d2 	bl	6b98 <__aeabi_dsub>
    544c:	e1a02000 	mov	r2, r0
    5450:	e1a03001 	mov	r3, r1
    5454:	e1cb20f0 	strd	r2, [fp]
    5458:	e1a00004 	mov	r0, r4
    545c:	e1a01005 	mov	r1, r5
    5460:	eb0005cc 	bl	6b98 <__aeabi_dsub>
    5464:	e59f2648 	ldr	r2, [pc, #1608]	; 5ab4 <__rem_pio2+0x6d8>
    5468:	e59f3648 	ldr	r3, [pc, #1608]	; 5ab8 <__rem_pio2+0x6dc>
    546c:	eb0005c9 	bl	6b98 <__aeabi_dsub>
    5470:	e1cb00f8 	strd	r0, [fp, #8]
    5474:	e3a00001 	mov	r0, #1
    5478:	ea000186 	b	5a98 <__rem_pio2+0x6bc>
    547c:	eb0005c6 	bl	6b9c <__adddf3>
    5480:	e59f262c 	ldr	r2, [pc, #1580]	; 5ab4 <__rem_pio2+0x6d8>
    5484:	e59f362c 	ldr	r3, [pc, #1580]	; 5ab8 <__rem_pio2+0x6dc>
    5488:	e1a04000 	mov	r4, r0
    548c:	e1a05001 	mov	r5, r1
    5490:	eb0005c1 	bl	6b9c <__adddf3>
    5494:	e1a02000 	mov	r2, r0
    5498:	e1a03001 	mov	r3, r1
    549c:	e1cb20f0 	strd	r2, [fp]
    54a0:	e1a00004 	mov	r0, r4
    54a4:	e1a01005 	mov	r1, r5
    54a8:	eb0005ba 	bl	6b98 <__aeabi_dsub>
    54ac:	e59f2600 	ldr	r2, [pc, #1536]	; 5ab4 <__rem_pio2+0x6d8>
    54b0:	e59f3600 	ldr	r3, [pc, #1536]	; 5ab8 <__rem_pio2+0x6dc>
    54b4:	eb0005b8 	bl	6b9c <__adddf3>
    54b8:	e1cb00f8 	strd	r0, [fp, #8]
    54bc:	e3e00000 	mvn	r0, #0
    54c0:	ea000174 	b	5a98 <__rem_pio2+0x6bc>
    54c4:	e3560000 	cmp	r6, #0
    54c8:	e59f35ec 	ldr	r3, [pc, #1516]	; 5abc <__rem_pio2+0x6e0>
    54cc:	1a000011 	bne	5518 <__rem_pio2+0x13c>
    54d0:	eb0005b0 	bl	6b98 <__aeabi_dsub>
    54d4:	e59f25d8 	ldr	r2, [pc, #1496]	; 5ab4 <__rem_pio2+0x6d8>
    54d8:	e59f35e0 	ldr	r3, [pc, #1504]	; 5ac0 <__rem_pio2+0x6e4>
    54dc:	e1a04000 	mov	r4, r0
    54e0:	e1a05001 	mov	r5, r1
    54e4:	eb0005ab 	bl	6b98 <__aeabi_dsub>
    54e8:	e1a02000 	mov	r2, r0
    54ec:	e1a03001 	mov	r3, r1
    54f0:	e1cb20f0 	strd	r2, [fp]
    54f4:	e1a00004 	mov	r0, r4
    54f8:	e1a01005 	mov	r1, r5
    54fc:	eb0005a5 	bl	6b98 <__aeabi_dsub>
    5500:	e59f25ac 	ldr	r2, [pc, #1452]	; 5ab4 <__rem_pio2+0x6d8>
    5504:	e59f35b4 	ldr	r3, [pc, #1460]	; 5ac0 <__rem_pio2+0x6e4>
    5508:	eb0005a2 	bl	6b98 <__aeabi_dsub>
    550c:	e1cb00f8 	strd	r0, [fp, #8]
    5510:	e3a00002 	mov	r0, #2
    5514:	ea00015f 	b	5a98 <__rem_pio2+0x6bc>
    5518:	eb00059f 	bl	6b9c <__adddf3>
    551c:	e59f2590 	ldr	r2, [pc, #1424]	; 5ab4 <__rem_pio2+0x6d8>
    5520:	e59f3598 	ldr	r3, [pc, #1432]	; 5ac0 <__rem_pio2+0x6e4>
    5524:	e1a04000 	mov	r4, r0
    5528:	e1a05001 	mov	r5, r1
    552c:	eb00059a 	bl	6b9c <__adddf3>
    5530:	e1a02000 	mov	r2, r0
    5534:	e1a03001 	mov	r3, r1
    5538:	e1cb20f0 	strd	r2, [fp]
    553c:	e1a00004 	mov	r0, r4
    5540:	e1a01005 	mov	r1, r5
    5544:	eb000593 	bl	6b98 <__aeabi_dsub>
    5548:	e59f2564 	ldr	r2, [pc, #1380]	; 5ab4 <__rem_pio2+0x6d8>
    554c:	e59f356c 	ldr	r3, [pc, #1388]	; 5ac0 <__rem_pio2+0x6e4>
    5550:	eb000591 	bl	6b9c <__adddf3>
    5554:	e1cb00f8 	strd	r0, [fp, #8]
    5558:	e3e00001 	mvn	r0, #1
    555c:	ea00014d 	b	5a98 <__rem_pio2+0x6bc>
    5560:	e59fc55c 	ldr	ip, [pc, #1372]	; 5ac4 <__rem_pio2+0x6e8>
    5564:	e15a000c 	cmp	sl, ip
    5568:	8a00006a 	bhi	5718 <__rem_pio2+0x33c>
    556c:	e59f3554 	ldr	r3, [pc, #1364]	; 5ac8 <__rem_pio2+0x6ec>
    5570:	e15a0003 	cmp	sl, r3
    5574:	8a00003c 	bhi	566c <__rem_pio2+0x290>
    5578:	e59f354c 	ldr	r3, [pc, #1356]	; 5acc <__rem_pio2+0x6f0>
    557c:	e15a0003 	cmp	sl, r3
    5580:	0a000067 	beq	5724 <__rem_pio2+0x348>
    5584:	e3560000 	cmp	r6, #0
    5588:	e59f2540 	ldr	r2, [pc, #1344]	; 5ad0 <__rem_pio2+0x6f4>
    558c:	e59f3538 	ldr	r3, [pc, #1336]	; 5acc <__rem_pio2+0x6f0>
    5590:	1a00001a 	bne	5600 <__rem_pio2+0x224>
    5594:	eb00057f 	bl	6b98 <__aeabi_dsub>
    5598:	e3a02000 	mov	r2, #0
    559c:	e59f3530 	ldr	r3, [pc, #1328]	; 5ad4 <__rem_pio2+0x6f8>
    55a0:	e1a04000 	mov	r4, r0
    55a4:	e1a05001 	mov	r5, r1
    55a8:	e59f0504 	ldr	r0, [pc, #1284]	; 5ab4 <__rem_pio2+0x6d8>
    55ac:	e59f1504 	ldr	r1, [pc, #1284]	; 5ab8 <__rem_pio2+0x6dc>
    55b0:	eb000664 	bl	6f48 <__aeabi_dmul>
    55b4:	e1a06000 	mov	r6, r0
    55b8:	e1a07001 	mov	r7, r1
    55bc:	e1a02006 	mov	r2, r6
    55c0:	e1a03007 	mov	r3, r7
    55c4:	e1a00004 	mov	r0, r4
    55c8:	e1a01005 	mov	r1, r5
    55cc:	eb000571 	bl	6b98 <__aeabi_dsub>
    55d0:	e1a02000 	mov	r2, r0
    55d4:	e1a03001 	mov	r3, r1
    55d8:	e1cb20f0 	strd	r2, [fp]
    55dc:	e1a00004 	mov	r0, r4
    55e0:	e1a01005 	mov	r1, r5
    55e4:	eb00056b 	bl	6b98 <__aeabi_dsub>
    55e8:	e1a02006 	mov	r2, r6
    55ec:	e1a03007 	mov	r3, r7
    55f0:	eb000568 	bl	6b98 <__aeabi_dsub>
    55f4:	e1cb00f8 	strd	r0, [fp, #8]
    55f8:	e3a00003 	mov	r0, #3
    55fc:	ea000125 	b	5a98 <__rem_pio2+0x6bc>
    5600:	eb000565 	bl	6b9c <__adddf3>
    5604:	e3a02000 	mov	r2, #0
    5608:	e59f34c4 	ldr	r3, [pc, #1220]	; 5ad4 <__rem_pio2+0x6f8>
    560c:	e1a04000 	mov	r4, r0
    5610:	e1a05001 	mov	r5, r1
    5614:	e59f0498 	ldr	r0, [pc, #1176]	; 5ab4 <__rem_pio2+0x6d8>
    5618:	e59f1498 	ldr	r1, [pc, #1176]	; 5ab8 <__rem_pio2+0x6dc>
    561c:	eb000649 	bl	6f48 <__aeabi_dmul>
    5620:	e1a06000 	mov	r6, r0
    5624:	e1a07001 	mov	r7, r1
    5628:	e1a02006 	mov	r2, r6
    562c:	e1a03007 	mov	r3, r7
    5630:	e1a00004 	mov	r0, r4
    5634:	e1a01005 	mov	r1, r5
    5638:	eb000557 	bl	6b9c <__adddf3>
    563c:	e1a02000 	mov	r2, r0
    5640:	e1a03001 	mov	r3, r1
    5644:	e1cb20f0 	strd	r2, [fp]
    5648:	e1a00004 	mov	r0, r4
    564c:	e1a01005 	mov	r1, r5
    5650:	eb000550 	bl	6b98 <__aeabi_dsub>
    5654:	e1a02006 	mov	r2, r6
    5658:	e1a03007 	mov	r3, r7
    565c:	eb00054e 	bl	6b9c <__adddf3>
    5660:	e1cb00f8 	strd	r0, [fp, #8]
    5664:	e3e00002 	mvn	r0, #2
    5668:	ea00010a 	b	5a98 <__rem_pio2+0x6bc>
    566c:	e59f3464 	ldr	r3, [pc, #1124]	; 5ad8 <__rem_pio2+0x6fc>
    5670:	e15a0003 	cmp	sl, r3
    5674:	0a00002a 	beq	5724 <__rem_pio2+0x348>
    5678:	e3560000 	cmp	r6, #0
    567c:	e59f2428 	ldr	r2, [pc, #1064]	; 5aac <__rem_pio2+0x6d0>
    5680:	e59f3450 	ldr	r3, [pc, #1104]	; 5ad8 <__rem_pio2+0x6fc>
    5684:	1a000011 	bne	56d0 <__rem_pio2+0x2f4>
    5688:	eb000542 	bl	6b98 <__aeabi_dsub>
    568c:	e59f2420 	ldr	r2, [pc, #1056]	; 5ab4 <__rem_pio2+0x6d8>
    5690:	e59f3444 	ldr	r3, [pc, #1092]	; 5adc <__rem_pio2+0x700>
    5694:	e1a04000 	mov	r4, r0
    5698:	e1a05001 	mov	r5, r1
    569c:	eb00053d 	bl	6b98 <__aeabi_dsub>
    56a0:	e1a02000 	mov	r2, r0
    56a4:	e1a03001 	mov	r3, r1
    56a8:	e1cb20f0 	strd	r2, [fp]
    56ac:	e1a00004 	mov	r0, r4
    56b0:	e1a01005 	mov	r1, r5
    56b4:	eb000537 	bl	6b98 <__aeabi_dsub>
    56b8:	e59f23f4 	ldr	r2, [pc, #1012]	; 5ab4 <__rem_pio2+0x6d8>
    56bc:	e59f3418 	ldr	r3, [pc, #1048]	; 5adc <__rem_pio2+0x700>
    56c0:	eb000534 	bl	6b98 <__aeabi_dsub>
    56c4:	e1cb00f8 	strd	r0, [fp, #8]
    56c8:	e3a00004 	mov	r0, #4
    56cc:	ea0000f1 	b	5a98 <__rem_pio2+0x6bc>
    56d0:	eb000531 	bl	6b9c <__adddf3>
    56d4:	e59f23d8 	ldr	r2, [pc, #984]	; 5ab4 <__rem_pio2+0x6d8>
    56d8:	e59f33fc 	ldr	r3, [pc, #1020]	; 5adc <__rem_pio2+0x700>
    56dc:	e1a04000 	mov	r4, r0
    56e0:	e1a05001 	mov	r5, r1
    56e4:	eb00052c 	bl	6b9c <__adddf3>
    56e8:	e1a02000 	mov	r2, r0
    56ec:	e1a03001 	mov	r3, r1
    56f0:	e1cb20f0 	strd	r2, [fp]
    56f4:	e1a00004 	mov	r0, r4
    56f8:	e1a01005 	mov	r1, r5
    56fc:	eb000525 	bl	6b98 <__aeabi_dsub>
    5700:	e59f23ac 	ldr	r2, [pc, #940]	; 5ab4 <__rem_pio2+0x6d8>
    5704:	e59f33d0 	ldr	r3, [pc, #976]	; 5adc <__rem_pio2+0x700>
    5708:	eb000523 	bl	6b9c <__adddf3>
    570c:	e1cb00f8 	strd	r0, [fp, #8]
    5710:	e3e00003 	mvn	r0, #3
    5714:	ea0000df 	b	5a98 <__rem_pio2+0x6bc>
    5718:	e59fc3c0 	ldr	ip, [pc, #960]	; 5ae0 <__rem_pio2+0x704>
    571c:	e15a000c 	cmp	sl, ip
    5720:	8a00008a 	bhi	5950 <__rem_pio2+0x574>
    5724:	e1a00004 	mov	r0, r4
    5728:	e1a01005 	mov	r1, r5
    572c:	e59f23b0 	ldr	r2, [pc, #944]	; 5ae4 <__rem_pio2+0x708>
    5730:	e59f33b0 	ldr	r3, [pc, #944]	; 5ae8 <__rem_pio2+0x70c>
    5734:	eb000603 	bl	6f48 <__aeabi_dmul>
    5738:	e3a02000 	mov	r2, #0
    573c:	e59f33a8 	ldr	r3, [pc, #936]	; 5aec <__rem_pio2+0x710>
    5740:	eb000515 	bl	6b9c <__adddf3>
    5744:	e3a02000 	mov	r2, #0
    5748:	e59f339c 	ldr	r3, [pc, #924]	; 5aec <__rem_pio2+0x710>
    574c:	eb000511 	bl	6b98 <__aeabi_dsub>
    5750:	e1a0aa2a 	lsr	sl, sl, #20
    5754:	e1a08000 	mov	r8, r0
    5758:	e1a09001 	mov	r9, r1
    575c:	eb000760 	bl	74e4 <__aeabi_d2iz>
    5760:	e59f2344 	ldr	r2, [pc, #836]	; 5aac <__rem_pio2+0x6d0>
    5764:	e59f3344 	ldr	r3, [pc, #836]	; 5ab0 <__rem_pio2+0x6d4>
    5768:	e1a01009 	mov	r1, r9
    576c:	e58d0014 	str	r0, [sp, #20]
    5770:	e1a00008 	mov	r0, r8
    5774:	eb0005f3 	bl	6f48 <__aeabi_dmul>
    5778:	e1a02000 	mov	r2, r0
    577c:	e1a03001 	mov	r3, r1
    5780:	e1a00004 	mov	r0, r4
    5784:	e1a01005 	mov	r1, r5
    5788:	eb000502 	bl	6b98 <__aeabi_dsub>
    578c:	e59f2320 	ldr	r2, [pc, #800]	; 5ab4 <__rem_pio2+0x6d8>
    5790:	e59f3320 	ldr	r3, [pc, #800]	; 5ab8 <__rem_pio2+0x6dc>
    5794:	e1a04000 	mov	r4, r0
    5798:	e1a05001 	mov	r5, r1
    579c:	e1a00008 	mov	r0, r8
    57a0:	e1a01009 	mov	r1, r9
    57a4:	eb0005e7 	bl	6f48 <__aeabi_dmul>
    57a8:	e1a06000 	mov	r6, r0
    57ac:	e1a07001 	mov	r7, r1
    57b0:	e1a03007 	mov	r3, r7
    57b4:	e1a00004 	mov	r0, r4
    57b8:	e1a01005 	mov	r1, r5
    57bc:	e1a02006 	mov	r2, r6
    57c0:	eb0004f4 	bl	6b98 <__aeabi_dsub>
    57c4:	e1a03081 	lsl	r3, r1, #1
    57c8:	e04a3aa3 	sub	r3, sl, r3, lsr #21
    57cc:	e3530010 	cmp	r3, #16
    57d0:	d1a02000 	movle	r2, r0
    57d4:	d1a03001 	movle	r3, r1
    57d8:	d1cb20f0 	strdle	r2, [fp]
    57dc:	da000051 	ble	5928 <__rem_pio2+0x54c>
    57e0:	e59f2308 	ldr	r2, [pc, #776]	; 5af0 <__rem_pio2+0x714>
    57e4:	e59f32cc 	ldr	r3, [pc, #716]	; 5ab8 <__rem_pio2+0x6dc>
    57e8:	e1a00008 	mov	r0, r8
    57ec:	e1a01009 	mov	r1, r9
    57f0:	eb0005d4 	bl	6f48 <__aeabi_dmul>
    57f4:	e1a06000 	mov	r6, r0
    57f8:	e1a07001 	mov	r7, r1
    57fc:	e1a02006 	mov	r2, r6
    5800:	e1a03007 	mov	r3, r7
    5804:	e1a00004 	mov	r0, r4
    5808:	e1a01005 	mov	r1, r5
    580c:	eb0004e1 	bl	6b98 <__aeabi_dsub>
    5810:	e1cd00f8 	strd	r0, [sp, #8]
    5814:	e1cd20d8 	ldrd	r2, [sp, #8]
    5818:	e1a00004 	mov	r0, r4
    581c:	e1a01005 	mov	r1, r5
    5820:	eb0004dc 	bl	6b98 <__aeabi_dsub>
    5824:	e1a02006 	mov	r2, r6
    5828:	e1a03007 	mov	r3, r7
    582c:	eb0004d9 	bl	6b98 <__aeabi_dsub>
    5830:	e59f22bc 	ldr	r2, [pc, #700]	; 5af4 <__rem_pio2+0x718>
    5834:	e59f32bc 	ldr	r3, [pc, #700]	; 5af8 <__rem_pio2+0x71c>
    5838:	e1a04000 	mov	r4, r0
    583c:	e1a05001 	mov	r5, r1
    5840:	e1a00008 	mov	r0, r8
    5844:	e1a01009 	mov	r1, r9
    5848:	eb0005be 	bl	6f48 <__aeabi_dmul>
    584c:	e1a02004 	mov	r2, r4
    5850:	e1a03005 	mov	r3, r5
    5854:	eb0004cf 	bl	6b98 <__aeabi_dsub>
    5858:	e1a06000 	mov	r6, r0
    585c:	e1a07001 	mov	r7, r1
    5860:	e1a03007 	mov	r3, r7
    5864:	e1cd00d8 	ldrd	r0, [sp, #8]
    5868:	e1a02006 	mov	r2, r6
    586c:	eb0004c9 	bl	6b98 <__aeabi_dsub>
    5870:	e1a03081 	lsl	r3, r1, #1
    5874:	e04acaa3 	sub	ip, sl, r3, lsr #21
    5878:	e35c0031 	cmp	ip, #49	; 0x31
    587c:	d1a02000 	movle	r2, r0
    5880:	d1a03001 	movle	r3, r1
    5884:	d1cb20f0 	strdle	r2, [fp]
    5888:	d1cd40d8 	ldrdle	r4, [sp, #8]
    588c:	da000025 	ble	5928 <__rem_pio2+0x54c>
    5890:	e3a0242e 	mov	r2, #771751936	; 0x2e000000
    5894:	e59f325c 	ldr	r3, [pc, #604]	; 5af8 <__rem_pio2+0x71c>
    5898:	e1a00008 	mov	r0, r8
    589c:	e1a01009 	mov	r1, r9
    58a0:	eb0005a8 	bl	6f48 <__aeabi_dmul>
    58a4:	e1a06000 	mov	r6, r0
    58a8:	e1a07001 	mov	r7, r1
    58ac:	e1a02006 	mov	r2, r6
    58b0:	e1a03007 	mov	r3, r7
    58b4:	e1cd00d8 	ldrd	r0, [sp, #8]
    58b8:	eb0004b6 	bl	6b98 <__aeabi_dsub>
    58bc:	e1a04000 	mov	r4, r0
    58c0:	e1a05001 	mov	r5, r1
    58c4:	e1a02004 	mov	r2, r4
    58c8:	e1a03005 	mov	r3, r5
    58cc:	e1cd00d8 	ldrd	r0, [sp, #8]
    58d0:	eb0004b0 	bl	6b98 <__aeabi_dsub>
    58d4:	e1a02006 	mov	r2, r6
    58d8:	e1a03007 	mov	r3, r7
    58dc:	eb0004ad 	bl	6b98 <__aeabi_dsub>
    58e0:	e59f2214 	ldr	r2, [pc, #532]	; 5afc <__rem_pio2+0x720>
    58e4:	e59f3214 	ldr	r3, [pc, #532]	; 5b00 <__rem_pio2+0x724>
    58e8:	e1a06000 	mov	r6, r0
    58ec:	e1a07001 	mov	r7, r1
    58f0:	e1a00008 	mov	r0, r8
    58f4:	e1a01009 	mov	r1, r9
    58f8:	eb000592 	bl	6f48 <__aeabi_dmul>
    58fc:	e1a02006 	mov	r2, r6
    5900:	e1a03007 	mov	r3, r7
    5904:	eb0004a3 	bl	6b98 <__aeabi_dsub>
    5908:	e1a06000 	mov	r6, r0
    590c:	e1a07001 	mov	r7, r1
    5910:	e1a00004 	mov	r0, r4
    5914:	e1a01005 	mov	r1, r5
    5918:	e1a02006 	mov	r2, r6
    591c:	e1a03007 	mov	r3, r7
    5920:	eb00049c 	bl	6b98 <__aeabi_dsub>
    5924:	e1cb00f0 	strd	r0, [fp]
    5928:	e1cb20d0 	ldrd	r2, [fp]
    592c:	e1a00004 	mov	r0, r4
    5930:	e1a01005 	mov	r1, r5
    5934:	eb000497 	bl	6b98 <__aeabi_dsub>
    5938:	e1a02006 	mov	r2, r6
    593c:	e1a03007 	mov	r3, r7
    5940:	eb000494 	bl	6b98 <__aeabi_dsub>
    5944:	e1cb00f8 	strd	r0, [fp, #8]
    5948:	e59d0014 	ldr	r0, [sp, #20]
    594c:	ea000051 	b	5a98 <__rem_pio2+0x6bc>
    5950:	e59fc1ac 	ldr	ip, [pc, #428]	; 5b04 <__rem_pio2+0x728>
    5954:	e15a000c 	cmp	sl, ip
    5958:	9a000006 	bls	5978 <__rem_pio2+0x59c>
    595c:	e1a02000 	mov	r2, r0
    5960:	e1a03001 	mov	r3, r1
    5964:	eb00048b 	bl	6b98 <__aeabi_dsub>
    5968:	e1cb00f8 	strd	r0, [fp, #8]
    596c:	e1cb00f0 	strd	r0, [fp]
    5970:	e3a00000 	mov	r0, #0
    5974:	ea000047 	b	5a98 <__rem_pio2+0x6bc>
    5978:	e59f5188 	ldr	r5, [pc, #392]	; 5b08 <__rem_pio2+0x72c>
    597c:	e3e04000 	mvn	r4, #0
    5980:	e0013005 	and	r3, r1, r5
    5984:	e59f1180 	ldr	r1, [pc, #384]	; 5b0c <__rem_pio2+0x730>
    5988:	e0002004 	and	r2, r0, r4
    598c:	e3a00000 	mov	r0, #0
    5990:	e1824000 	orr	r4, r2, r0
    5994:	e1835001 	orr	r5, r3, r1
    5998:	e1a01005 	mov	r1, r5
    599c:	e1a00004 	mov	r0, r4
    59a0:	eb0006cf 	bl	74e4 <__aeabi_d2iz>
    59a4:	eb000530 	bl	6e6c <__aeabi_i2d>
    59a8:	e1a02000 	mov	r2, r0
    59ac:	e1a03001 	mov	r3, r1
    59b0:	e1a00004 	mov	r0, r4
    59b4:	e1a01005 	mov	r1, r5
    59b8:	e1cd22f8 	strd	r2, [sp, #40]	; 0x28
    59bc:	eb000475 	bl	6b98 <__aeabi_dsub>
    59c0:	e3a02000 	mov	r2, #0
    59c4:	e59f3144 	ldr	r3, [pc, #324]	; 5b10 <__rem_pio2+0x734>
    59c8:	eb00055e 	bl	6f48 <__aeabi_dmul>
    59cc:	e1a04000 	mov	r4, r0
    59d0:	e1a05001 	mov	r5, r1
    59d4:	eb0006c2 	bl	74e4 <__aeabi_d2iz>
    59d8:	eb000523 	bl	6e6c <__aeabi_i2d>
    59dc:	e1a02000 	mov	r2, r0
    59e0:	e1a03001 	mov	r3, r1
    59e4:	e1a00004 	mov	r0, r4
    59e8:	e1a01005 	mov	r1, r5
    59ec:	e1cd23f0 	strd	r2, [sp, #48]	; 0x30
    59f0:	eb000468 	bl	6b98 <__aeabi_dsub>
    59f4:	e3a02000 	mov	r2, #0
    59f8:	e59f3110 	ldr	r3, [pc, #272]	; 5b10 <__rem_pio2+0x734>
    59fc:	eb000551 	bl	6f48 <__aeabi_dmul>
    5a00:	e3a04002 	mov	r4, #2
    5a04:	e1cd03f8 	strd	r0, [sp, #56]	; 0x38
    5a08:	e1a03184 	lsl	r3, r4, #3
    5a0c:	e28d5028 	add	r5, sp, #40	; 0x28
    5a10:	e18300d5 	ldrd	r0, [r3, r5]
    5a14:	e3a02000 	mov	r2, #0
    5a18:	e3a03000 	mov	r3, #0
    5a1c:	eb000697 	bl	7480 <__aeabi_dcmpeq>
    5a20:	e3500000 	cmp	r0, #0
    5a24:	12444001 	subne	r4, r4, #1
    5a28:	1afffff6 	bne	5a08 <__rem_pio2+0x62c>
    5a2c:	e1a02a2a 	lsr	r2, sl, #20
    5a30:	e3a03001 	mov	r3, #1
    5a34:	e2422e41 	sub	r2, r2, #1040	; 0x410
    5a38:	e58d3000 	str	r3, [sp]
    5a3c:	e1a00005 	mov	r0, r5
    5a40:	e28d1018 	add	r1, sp, #24
    5a44:	e2422006 	sub	r2, r2, #6
    5a48:	e0843003 	add	r3, r4, r3
    5a4c:	eb000030 	bl	5b14 <__rem_pio2_large>
    5a50:	e3560000 	cmp	r6, #0
    5a54:	0a00000b 	beq	5a88 <__rem_pio2+0x6ac>
    5a58:	e59d3018 	ldr	r3, [sp, #24]
    5a5c:	e58b3000 	str	r3, [fp]
    5a60:	e59d301c 	ldr	r3, [sp, #28]
    5a64:	e2600000 	rsb	r0, r0, #0
    5a68:	e2833102 	add	r3, r3, #-2147483648	; 0x80000000
    5a6c:	e58b3004 	str	r3, [fp, #4]
    5a70:	e59d3020 	ldr	r3, [sp, #32]
    5a74:	e58b3008 	str	r3, [fp, #8]
    5a78:	e59d3024 	ldr	r3, [sp, #36]	; 0x24
    5a7c:	e2833102 	add	r3, r3, #-2147483648	; 0x80000000
    5a80:	e58b300c 	str	r3, [fp, #12]
    5a84:	ea000003 	b	5a98 <__rem_pio2+0x6bc>
    5a88:	e1cd21d8 	ldrd	r2, [sp, #24]
    5a8c:	e1cb20f0 	strd	r2, [fp]
    5a90:	e1cd22d0 	ldrd	r2, [sp, #32]
    5a94:	e1cb20f8 	strd	r2, [fp, #8]
    5a98:	e28dd044 	add	sp, sp, #68	; 0x44
    5a9c:	e8bd8ff0 	pop	{r4, r5, r6, r7, r8, r9, sl, fp, pc}
    5aa0:	400f6a7a 	.word	0x400f6a7a
    5aa4:	000921fb 	.word	0x000921fb
    5aa8:	4002d97c 	.word	0x4002d97c
    5aac:	54400000 	.word	0x54400000
    5ab0:	3ff921fb 	.word	0x3ff921fb
    5ab4:	1a626331 	.word	0x1a626331
    5ab8:	3dd0b461 	.word	0x3dd0b461
    5abc:	400921fb 	.word	0x400921fb
    5ac0:	3de0b461 	.word	0x3de0b461
    5ac4:	401c463b 	.word	0x401c463b
    5ac8:	4015fdbc 	.word	0x4015fdbc
    5acc:	4012d97c 	.word	0x4012d97c
    5ad0:	7f300000 	.word	0x7f300000
    5ad4:	40080000 	.word	0x40080000
    5ad8:	401921fb 	.word	0x401921fb
    5adc:	3df0b461 	.word	0x3df0b461
    5ae0:	413921fa 	.word	0x413921fa
    5ae4:	6dc9c883 	.word	0x6dc9c883
    5ae8:	3fe45f30 	.word	0x3fe45f30
    5aec:	43380000 	.word	0x43380000
    5af0:	1a600000 	.word	0x1a600000
    5af4:	2e037073 	.word	0x2e037073
    5af8:	3ba3198a 	.word	0x3ba3198a
    5afc:	252049c1 	.word	0x252049c1
    5b00:	397b839a 	.word	0x397b839a
    5b04:	7fefffff 	.word	0x7fefffff
    5b08:	000fffff 	.word	0x000fffff
    5b0c:	41600000 	.word	0x41600000
    5b10:	41700000 	.word	0x41700000

00005b14 <__rem_pio2_large>:
    5b14:	e92d4ff0 	push	{r4, r5, r6, r7, r8, r9, sl, fp, lr}
    5b18:	e24ddf9d 	sub	sp, sp, #628	; 0x274
    5b1c:	e59f89b4 	ldr	r8, [pc, #2484]	; 64d8 <__rem_pio2_large+0x9c4>
    5b20:	e59dc298 	ldr	ip, [sp, #664]	; 0x298
    5b24:	e58d0034 	str	r0, [sp, #52]	; 0x34
    5b28:	e798c10c 	ldr	ip, [r8, ip, lsl #2]
    5b2c:	e58d101c 	str	r1, [sp, #28]
    5b30:	e58dc020 	str	ip, [sp, #32]
    5b34:	e2420003 	sub	r0, r2, #3
    5b38:	e243c001 	sub	ip, r3, #1
    5b3c:	e3a01018 	mov	r1, #24
    5b40:	e1a04002 	mov	r4, r2
    5b44:	e58d3030 	str	r3, [sp, #48]	; 0x30
    5b48:	e58dc008 	str	ip, [sp, #8]
    5b4c:	eb00037f 	bl	6950 <__aeabi_idiv>
    5b50:	e59dc008 	ldr	ip, [sp, #8]
    5b54:	e59de020 	ldr	lr, [sp, #32]
    5b58:	e3a06018 	mov	r6, #24
    5b5c:	e2888010 	add	r8, r8, #16
    5b60:	e08c700e 	add	r7, ip, lr
    5b64:	e1c00fc0 	bic	r0, r0, r0, asr #31
    5b68:	e1e03000 	mvn	r3, r0
    5b6c:	e06c5000 	rsb	r5, ip, r0
    5b70:	e0264693 	mla	r6, r3, r6, r4
    5b74:	e0888105 	add	r8, r8, r5, lsl #2
    5b78:	e3a04000 	mov	r4, #0
    5b7c:	e58d002c 	str	r0, [sp, #44]	; 0x2c
    5b80:	e1540007 	cmp	r4, r7
    5b84:	ca00000b 	bgt	5bb8 <__rem_pio2_large+0xa4>
    5b88:	e1740005 	cmn	r4, r5
    5b8c:	4a000002 	bmi	5b9c <__rem_pio2_large+0x88>
    5b90:	e7980104 	ldr	r0, [r8, r4, lsl #2]
    5b94:	eb0004b4 	bl	6e6c <__aeabi_i2d>
    5b98:	ea000001 	b	5ba4 <__rem_pio2_large+0x90>
    5b9c:	e3a00000 	mov	r0, #0
    5ba0:	e3a01000 	mov	r1, #0
    5ba4:	e1a02184 	lsl	r2, r4, #3
    5ba8:	e28d3090 	add	r3, sp, #144	; 0x90
    5bac:	e18200f3 	strd	r0, [r2, r3]
    5bb0:	e2844001 	add	r4, r4, #1
    5bb4:	eafffff1 	b	5b80 <__rem_pio2_large+0x6c>
    5bb8:	e3a07000 	mov	r7, #0
    5bbc:	e59dc020 	ldr	ip, [sp, #32]
    5bc0:	e157000c 	cmp	r7, ip
    5bc4:	ca00001e 	bgt	5c44 <__rem_pio2_large+0x130>
    5bc8:	e59dc030 	ldr	ip, [sp, #48]	; 0x30
    5bcc:	e28de090 	add	lr, sp, #144	; 0x90
    5bd0:	e087a00c 	add	sl, r7, ip
    5bd4:	e3a09000 	mov	r9, #0
    5bd8:	e08ea18a 	add	sl, lr, sl, lsl #3
    5bdc:	e3a04000 	mov	r4, #0
    5be0:	e3a05000 	mov	r5, #0
    5be4:	e1a08009 	mov	r8, r9
    5be8:	e59dc008 	ldr	ip, [sp, #8]
    5bec:	e2499008 	sub	r9, r9, #8
    5bf0:	e158000c 	cmp	r8, ip
    5bf4:	ca00000d 	bgt	5c30 <__rem_pio2_large+0x11c>
    5bf8:	e59dc034 	ldr	ip, [sp, #52]	; 0x34
    5bfc:	e1a03188 	lsl	r3, r8, #3
    5c00:	e18c00d3 	ldrd	r0, [ip, r3]
    5c04:	e18a20d9 	ldrd	r2, [sl, r9]
    5c08:	eb0004ce 	bl	6f48 <__aeabi_dmul>
    5c0c:	e2888001 	add	r8, r8, #1
    5c10:	e1a02000 	mov	r2, r0
    5c14:	e1a03001 	mov	r3, r1
    5c18:	e1a00004 	mov	r0, r4
    5c1c:	e1a01005 	mov	r1, r5
    5c20:	eb0003dd 	bl	6b9c <__adddf3>
    5c24:	e1a04000 	mov	r4, r0
    5c28:	e1a05001 	mov	r5, r1
    5c2c:	eaffffed 	b	5be8 <__rem_pio2_large+0xd4>
    5c30:	e28dee27 	add	lr, sp, #624	; 0x270
    5c34:	e08e3187 	add	r3, lr, r7, lsl #3
    5c38:	e1434af0 	strd	r4, [r3, #-160]	; 0xffffff60
    5c3c:	e2877001 	add	r7, r7, #1
    5c40:	eaffffdd 	b	5bbc <__rem_pio2_large+0xa8>
    5c44:	e59de020 	ldr	lr, [sp, #32]
    5c48:	e28dc040 	add	ip, sp, #64	; 0x40
    5c4c:	e08cc10e 	add	ip, ip, lr, lsl #2
    5c50:	e1a0b00e 	mov	fp, lr
    5c54:	e58dc038 	str	ip, [sp, #56]	; 0x38
    5c58:	e28d0e27 	add	r0, sp, #624	; 0x270
    5c5c:	e080318b 	add	r3, r0, fp, lsl #3
    5c60:	e1438ad0 	ldrd	r8, [r3, #-160]	; 0xffffff60
    5c64:	e28d703c 	add	r7, sp, #60	; 0x3c
    5c68:	e1a0a00b 	mov	sl, fp
    5c6c:	e35a0000 	cmp	sl, #0
    5c70:	e1a00008 	mov	r0, r8
    5c74:	e1a01009 	mov	r1, r9
    5c78:	da00001a 	ble	5ce8 <__rem_pio2_large+0x1d4>
    5c7c:	e3a02000 	mov	r2, #0
    5c80:	e59f3854 	ldr	r3, [pc, #2132]	; 64dc <__rem_pio2_large+0x9c8>
    5c84:	eb0004af 	bl	6f48 <__aeabi_dmul>
    5c88:	eb000615 	bl	74e4 <__aeabi_d2iz>
    5c8c:	eb000476 	bl	6e6c <__aeabi_i2d>
    5c90:	e3a02000 	mov	r2, #0
    5c94:	e59f3844 	ldr	r3, [pc, #2116]	; 64e0 <__rem_pio2_large+0x9cc>
    5c98:	e24aa001 	sub	sl, sl, #1
    5c9c:	e1a04000 	mov	r4, r0
    5ca0:	e1a05001 	mov	r5, r1
    5ca4:	eb0004a7 	bl	6f48 <__aeabi_dmul>
    5ca8:	e1a02000 	mov	r2, r0
    5cac:	e1a03001 	mov	r3, r1
    5cb0:	e1a00008 	mov	r0, r8
    5cb4:	e1a01009 	mov	r1, r9
    5cb8:	eb0003b6 	bl	6b98 <__aeabi_dsub>
    5cbc:	eb000608 	bl	74e4 <__aeabi_d2iz>
    5cc0:	e28d1e27 	add	r1, sp, #624	; 0x270
    5cc4:	e081318a 	add	r3, r1, sl, lsl #3
    5cc8:	e1432ad0 	ldrd	r2, [r3, #-160]	; 0xffffff60
    5ccc:	e1a01005 	mov	r1, r5
    5cd0:	e5a70004 	str	r0, [r7, #4]!
    5cd4:	e1a00004 	mov	r0, r4
    5cd8:	eb0003af 	bl	6b9c <__adddf3>
    5cdc:	e1a08000 	mov	r8, r0
    5ce0:	e1a09001 	mov	r9, r1
    5ce4:	eaffffe0 	b	5c6c <__rem_pio2_large+0x158>
    5ce8:	e1a02006 	mov	r2, r6
    5cec:	eb0002db 	bl	6860 <scalbn>
    5cf0:	e3a02000 	mov	r2, #0
    5cf4:	e3a035ff 	mov	r3, #1069547520	; 0x3fc00000
    5cf8:	e1a04000 	mov	r4, r0
    5cfc:	e1a05001 	mov	r5, r1
    5d00:	eb000490 	bl	6f48 <__aeabi_dmul>
    5d04:	eb00028a 	bl	6734 <floor>
    5d08:	e3a02000 	mov	r2, #0
    5d0c:	e59f37d0 	ldr	r3, [pc, #2000]	; 64e4 <__rem_pio2_large+0x9d0>
    5d10:	eb00048c 	bl	6f48 <__aeabi_dmul>
    5d14:	e1a02000 	mov	r2, r0
    5d18:	e1a03001 	mov	r3, r1
    5d1c:	e1a00004 	mov	r0, r4
    5d20:	e1a01005 	mov	r1, r5
    5d24:	eb00039b 	bl	6b98 <__aeabi_dsub>
    5d28:	e1a05001 	mov	r5, r1
    5d2c:	e1a04000 	mov	r4, r0
    5d30:	eb0005eb 	bl	74e4 <__aeabi_d2iz>
    5d34:	e58d0028 	str	r0, [sp, #40]	; 0x28
    5d38:	eb00044b 	bl	6e6c <__aeabi_i2d>
    5d3c:	e1a02000 	mov	r2, r0
    5d40:	e1a03001 	mov	r3, r1
    5d44:	e1a00004 	mov	r0, r4
    5d48:	e1a01005 	mov	r1, r5
    5d4c:	eb000391 	bl	6b98 <__aeabi_dsub>
    5d50:	e3560000 	cmp	r6, #0
    5d54:	e1a08000 	mov	r8, r0
    5d58:	e1a09001 	mov	r9, r1
    5d5c:	da00000e 	ble	5d9c <__rem_pio2_large+0x288>
    5d60:	e28d3e27 	add	r3, sp, #624	; 0x270
    5d64:	e24b2001 	sub	r2, fp, #1
    5d68:	e0832102 	add	r2, r3, r2, lsl #2
    5d6c:	e5120230 	ldr	r0, [r2, #-560]	; 0xfffffdd0
    5d70:	e2661018 	rsb	r1, r6, #24
    5d74:	e1a03150 	asr	r3, r0, r1
    5d78:	e59dc028 	ldr	ip, [sp, #40]	; 0x28
    5d7c:	e08cc003 	add	ip, ip, r3
    5d80:	e0403113 	sub	r3, r0, r3, lsl r1
    5d84:	e5023230 	str	r3, [r2, #-560]	; 0xfffffdd0
    5d88:	e2662017 	rsb	r2, r6, #23
    5d8c:	e1a02253 	asr	r2, r3, r2
    5d90:	e58dc028 	str	ip, [sp, #40]	; 0x28
    5d94:	e58d2010 	str	r2, [sp, #16]
    5d98:	ea00000f 	b	5ddc <__rem_pio2_large+0x2c8>
    5d9c:	1a000005 	bne	5db8 <__rem_pio2_large+0x2a4>
    5da0:	e28dee27 	add	lr, sp, #624	; 0x270
    5da4:	e08e310b 	add	r3, lr, fp, lsl #2
    5da8:	e5133234 	ldr	r3, [r3, #-564]	; 0xfffffdcc
    5dac:	e1a03bc3 	asr	r3, r3, #23
    5db0:	e58d3010 	str	r3, [sp, #16]
    5db4:	ea000008 	b	5ddc <__rem_pio2_large+0x2c8>
    5db8:	e3a02000 	mov	r2, #0
    5dbc:	e59f3724 	ldr	r3, [pc, #1828]	; 64e8 <__rem_pio2_large+0x9d4>
    5dc0:	eb0005bd 	bl	74bc <__aeabi_dcmpge>
    5dc4:	e3500000 	cmp	r0, #0
    5dc8:	058d0010 	streq	r0, [sp, #16]
    5dcc:	0a000046 	beq	5eec <__rem_pio2_large+0x3d8>
    5dd0:	e3a0c002 	mov	ip, #2
    5dd4:	e58dc010 	str	ip, [sp, #16]
    5dd8:	ea000002 	b	5de8 <__rem_pio2_large+0x2d4>
    5ddc:	e59dc010 	ldr	ip, [sp, #16]
    5de0:	e35c0000 	cmp	ip, #0
    5de4:	da000040 	ble	5eec <__rem_pio2_large+0x3d8>
    5de8:	e59dc028 	ldr	ip, [sp, #40]	; 0x28
    5dec:	e3a03000 	mov	r3, #0
    5df0:	e28cc001 	add	ip, ip, #1
    5df4:	e28d2040 	add	r2, sp, #64	; 0x40
    5df8:	e1a04003 	mov	r4, r3
    5dfc:	e58dc028 	str	ip, [sp, #40]	; 0x28
    5e00:	e153000b 	cmp	r3, fp
    5e04:	aa00000d 	bge	5e40 <__rem_pio2_large+0x32c>
    5e08:	e3540000 	cmp	r4, #0
    5e0c:	e4920004 	ldr	r0, [r2], #4
    5e10:	1a000004 	bne	5e28 <__rem_pio2_large+0x314>
    5e14:	e3500000 	cmp	r0, #0
    5e18:	12600401 	rsbne	r0, r0, #16777216	; 0x1000000
    5e1c:	15020004 	strne	r0, [r2, #-4]
    5e20:	1a000003 	bne	5e34 <__rem_pio2_large+0x320>
    5e24:	ea000003 	b	5e38 <__rem_pio2_large+0x324>
    5e28:	e3e014ff 	mvn	r1, #-16777216	; 0xff000000
    5e2c:	e0601001 	rsb	r1, r0, r1
    5e30:	e5021004 	str	r1, [r2, #-4]
    5e34:	e3a04001 	mov	r4, #1
    5e38:	e2833001 	add	r3, r3, #1
    5e3c:	eaffffef 	b	5e00 <__rem_pio2_large+0x2ec>
    5e40:	e3560000 	cmp	r6, #0
    5e44:	da000011 	ble	5e90 <__rem_pio2_large+0x37c>
    5e48:	e3560001 	cmp	r6, #1
    5e4c:	0a000008 	beq	5e74 <__rem_pio2_large+0x360>
    5e50:	e3560002 	cmp	r6, #2
    5e54:	1a00000d 	bne	5e90 <__rem_pio2_large+0x37c>
    5e58:	e24b3001 	sub	r3, fp, #1
    5e5c:	e28d0e27 	add	r0, sp, #624	; 0x270
    5e60:	e0803103 	add	r3, r0, r3, lsl #2
    5e64:	e5132230 	ldr	r2, [r3, #-560]	; 0xfffffdd0
    5e68:	e3c224ff 	bic	r2, r2, #-16777216	; 0xff000000
    5e6c:	e3c22503 	bic	r2, r2, #12582912	; 0xc00000
    5e70:	ea000005 	b	5e8c <__rem_pio2_large+0x378>
    5e74:	e24b3001 	sub	r3, fp, #1
    5e78:	e28dee27 	add	lr, sp, #624	; 0x270
    5e7c:	e08e3103 	add	r3, lr, r3, lsl #2
    5e80:	e5132230 	ldr	r2, [r3, #-560]	; 0xfffffdd0
    5e84:	e3c224ff 	bic	r2, r2, #-16777216	; 0xff000000
    5e88:	e3c22502 	bic	r2, r2, #8388608	; 0x800000
    5e8c:	e5032230 	str	r2, [r3, #-560]	; 0xfffffdd0
    5e90:	e59dc010 	ldr	ip, [sp, #16]
    5e94:	e35c0002 	cmp	ip, #2
    5e98:	1a000013 	bne	5eec <__rem_pio2_large+0x3d8>
    5e9c:	e1a02008 	mov	r2, r8
    5ea0:	e1a03009 	mov	r3, r9
    5ea4:	e3a00000 	mov	r0, #0
    5ea8:	e59f163c 	ldr	r1, [pc, #1596]	; 64ec <__rem_pio2_large+0x9d8>
    5eac:	eb000339 	bl	6b98 <__aeabi_dsub>
    5eb0:	e3540000 	cmp	r4, #0
    5eb4:	e1a08000 	mov	r8, r0
    5eb8:	e1a09001 	mov	r9, r1
    5ebc:	0a00000a 	beq	5eec <__rem_pio2_large+0x3d8>
    5ec0:	e1a02006 	mov	r2, r6
    5ec4:	e3a00000 	mov	r0, #0
    5ec8:	e59f161c 	ldr	r1, [pc, #1564]	; 64ec <__rem_pio2_large+0x9d8>
    5ecc:	eb000263 	bl	6860 <scalbn>
    5ed0:	e1a02000 	mov	r2, r0
    5ed4:	e1a03001 	mov	r3, r1
    5ed8:	e1a00008 	mov	r0, r8
    5edc:	e1a01009 	mov	r1, r9
    5ee0:	eb00032c 	bl	6b98 <__aeabi_dsub>
    5ee4:	e1a08000 	mov	r8, r0
    5ee8:	e1a09001 	mov	r9, r1
    5eec:	e1a00008 	mov	r0, r8
    5ef0:	e1a01009 	mov	r1, r9
    5ef4:	e3a02000 	mov	r2, #0
    5ef8:	e3a03000 	mov	r3, #0
    5efc:	eb00055f 	bl	7480 <__aeabi_dcmpeq>
    5f00:	e3500000 	cmp	r0, #0
    5f04:	0a000049 	beq	6030 <__rem_pio2_large+0x51c>
    5f08:	e24b1001 	sub	r1, fp, #1
    5f0c:	e1a0300b 	mov	r3, fp
    5f10:	e3a02000 	mov	r2, #0
    5f14:	e59dc020 	ldr	ip, [sp, #32]
    5f18:	e2433001 	sub	r3, r3, #1
    5f1c:	e153000c 	cmp	r3, ip
    5f20:	a28de040 	addge	lr, sp, #64	; 0x40
    5f24:	a79e0103 	ldrge	r0, [lr, r3, lsl #2]
    5f28:	a1822000 	orrge	r2, r2, r0
    5f2c:	aafffff8 	bge	5f14 <__rem_pio2_large+0x400>
    5f30:	e3520000 	cmp	r2, #0
    5f34:	1a00015e 	bne	64b4 <__rem_pio2_large+0x9a0>
    5f38:	e3a0a001 	mov	sl, #1
    5f3c:	e3e02003 	mvn	r2, #3
    5f40:	e0030a92 	mul	r3, r2, sl
    5f44:	e59dc038 	ldr	ip, [sp, #56]	; 0x38
    5f48:	e79c3003 	ldr	r3, [ip, r3]
    5f4c:	e3530000 	cmp	r3, #0
    5f50:	028aa001 	addeq	sl, sl, #1
    5f54:	0afffff9 	beq	5f40 <__rem_pio2_large+0x42c>
    5f58:	e59dc02c 	ldr	ip, [sp, #44]	; 0x2c
    5f5c:	e59f358c 	ldr	r3, [pc, #1420]	; 64f0 <__rem_pio2_large+0x9dc>
    5f60:	e08c200b 	add	r2, ip, fp
    5f64:	e59dc030 	ldr	ip, [sp, #48]	; 0x30
    5f68:	e0835102 	add	r5, r3, r2, lsl #2
    5f6c:	e08b300c 	add	r3, fp, ip
    5f70:	e28dc090 	add	ip, sp, #144	; 0x90
    5f74:	e08cc183 	add	ip, ip, r3, lsl #3
    5f78:	e58dc03c 	str	ip, [sp, #60]	; 0x3c
    5f7c:	e3a08000 	mov	r8, #0
    5f80:	e28dce1d 	add	ip, sp, #464	; 0x1d0
    5f84:	e08cc18b 	add	ip, ip, fp, lsl #3
    5f88:	e28b9001 	add	r9, fp, #1
    5f8c:	e08ba00a 	add	sl, fp, sl
    5f90:	e1a04008 	mov	r4, r8
    5f94:	e3e0b007 	mvn	fp, #7
    5f98:	e58dc028 	str	ip, [sp, #40]	; 0x28
    5f9c:	e159000a 	cmp	r9, sl
    5fa0:	ca000020 	bgt	6028 <__rem_pio2_large+0x514>
    5fa4:	e5b50004 	ldr	r0, [r5, #4]!
    5fa8:	eb0003af 	bl	6e6c <__aeabi_i2d>
    5fac:	e59dc03c 	ldr	ip, [sp, #60]	; 0x3c
    5fb0:	e2888008 	add	r8, r8, #8
    5fb4:	e3a07000 	mov	r7, #0
    5fb8:	e1ac00f4 	strd	r0, [ip, r4]!
    5fbc:	e3a00000 	mov	r0, #0
    5fc0:	e3a01000 	mov	r1, #0
    5fc4:	e1cd01f0 	strd	r0, [sp, #16]
    5fc8:	e59d0008 	ldr	r0, [sp, #8]
    5fcc:	e1570000 	cmp	r7, r0
    5fd0:	ca00000e 	bgt	6010 <__rem_pio2_large+0x4fc>
    5fd4:	e003079b 	mul	r3, fp, r7
    5fd8:	e59de034 	ldr	lr, [sp, #52]	; 0x34
    5fdc:	e1a02187 	lsl	r2, r7, #3
    5fe0:	e18e00d2 	ldrd	r0, [lr, r2]
    5fe4:	e18320dc 	ldrd	r2, [r3, ip]
    5fe8:	e58dc004 	str	ip, [sp, #4]
    5fec:	eb0003d5 	bl	6f48 <__aeabi_dmul>
    5ff0:	e2877001 	add	r7, r7, #1
    5ff4:	e1a02000 	mov	r2, r0
    5ff8:	e1a03001 	mov	r3, r1
    5ffc:	e1cd01d0 	ldrd	r0, [sp, #16]
    6000:	eb0002e5 	bl	6b9c <__adddf3>
    6004:	e59dc004 	ldr	ip, [sp, #4]
    6008:	e1cd01f0 	strd	r0, [sp, #16]
    600c:	eaffffed 	b	5fc8 <__rem_pio2_large+0x4b4>
    6010:	e1cd21d0 	ldrd	r2, [sp, #16]
    6014:	e59dc028 	ldr	ip, [sp, #40]	; 0x28
    6018:	e2899001 	add	r9, r9, #1
    601c:	e18c20f8 	strd	r2, [ip, r8]
    6020:	e2844008 	add	r4, r4, #8
    6024:	eaffffdc 	b	5f9c <__rem_pio2_large+0x488>
    6028:	e1a0b00a 	mov	fp, sl
    602c:	eaffff09 	b	5c58 <__rem_pio2_large+0x144>
    6030:	e2662000 	rsb	r2, r6, #0
    6034:	e1a00008 	mov	r0, r8
    6038:	e1a01009 	mov	r1, r9
    603c:	eb000207 	bl	6860 <scalbn>
    6040:	e3a02000 	mov	r2, #0
    6044:	e59f3494 	ldr	r3, [pc, #1172]	; 64e0 <__rem_pio2_large+0x9cc>
    6048:	e1a04000 	mov	r4, r0
    604c:	e1a05001 	mov	r5, r1
    6050:	eb000519 	bl	74bc <__aeabi_dcmpge>
    6054:	e3500000 	cmp	r0, #0
    6058:	0a000019 	beq	60c4 <__rem_pio2_large+0x5b0>
    605c:	e3a02000 	mov	r2, #0
    6060:	e59f3474 	ldr	r3, [pc, #1140]	; 64dc <__rem_pio2_large+0x9c8>
    6064:	e1a00004 	mov	r0, r4
    6068:	e1a01005 	mov	r1, r5
    606c:	eb0003b5 	bl	6f48 <__aeabi_dmul>
    6070:	eb00051b 	bl	74e4 <__aeabi_d2iz>
    6074:	e28d1e27 	add	r1, sp, #624	; 0x270
    6078:	e081810b 	add	r8, r1, fp, lsl #2
    607c:	e28bb001 	add	fp, fp, #1
    6080:	e2866018 	add	r6, r6, #24
    6084:	e1a07000 	mov	r7, r0
    6088:	eb000377 	bl	6e6c <__aeabi_i2d>
    608c:	e3a02000 	mov	r2, #0
    6090:	e59f3448 	ldr	r3, [pc, #1096]	; 64e0 <__rem_pio2_large+0x9cc>
    6094:	eb0003ab 	bl	6f48 <__aeabi_dmul>
    6098:	e1a02000 	mov	r2, r0
    609c:	e1a03001 	mov	r3, r1
    60a0:	e1a00004 	mov	r0, r4
    60a4:	e1a01005 	mov	r1, r5
    60a8:	eb0002ba 	bl	6b98 <__aeabi_dsub>
    60ac:	eb00050c 	bl	74e4 <__aeabi_d2iz>
    60b0:	e28d2e27 	add	r2, sp, #624	; 0x270
    60b4:	e082310b 	add	r3, r2, fp, lsl #2
    60b8:	e5080230 	str	r0, [r8, #-560]	; 0xfffffdd0
    60bc:	e5037230 	str	r7, [r3, #-560]	; 0xfffffdd0
    60c0:	ea000005 	b	60dc <__rem_pio2_large+0x5c8>
    60c4:	e1a00004 	mov	r0, r4
    60c8:	e1a01005 	mov	r1, r5
    60cc:	eb000504 	bl	74e4 <__aeabi_d2iz>
    60d0:	e28dce27 	add	ip, sp, #624	; 0x270
    60d4:	e08c310b 	add	r3, ip, fp, lsl #2
    60d8:	e5030230 	str	r0, [r3, #-560]	; 0xfffffdd0
    60dc:	e1a02006 	mov	r2, r6
    60e0:	e3a00000 	mov	r0, #0
    60e4:	e59f1400 	ldr	r1, [pc, #1024]	; 64ec <__rem_pio2_large+0x9d8>
    60e8:	eb0001dc 	bl	6860 <scalbn>
    60ec:	e1a0818b 	lsl	r8, fp, #3
    60f0:	e3a04000 	mov	r4, #0
    60f4:	e3e07007 	mvn	r7, #7
    60f8:	e3e09003 	mvn	r9, #3
    60fc:	e1cd00f8 	strd	r0, [sp, #8]
    6100:	e28d0040 	add	r0, sp, #64	; 0x40
    6104:	e28d1e1d 	add	r1, sp, #464	; 0x1d0
    6108:	e080610b 	add	r6, r0, fp, lsl #2
    610c:	e0815008 	add	r5, r1, r8
    6110:	e064300b 	rsb	r3, r4, fp
    6114:	e3530000 	cmp	r3, #0
    6118:	ba00000f 	blt	615c <__rem_pio2_large+0x648>
    611c:	e0030499 	mul	r3, r9, r4
    6120:	e00a0497 	mul	sl, r7, r4
    6124:	e7960003 	ldr	r0, [r6, r3]
    6128:	eb00034f 	bl	6e6c <__aeabi_i2d>
    612c:	e2844001 	add	r4, r4, #1
    6130:	e1a02000 	mov	r2, r0
    6134:	e1a03001 	mov	r3, r1
    6138:	e1cd00d8 	ldrd	r0, [sp, #8]
    613c:	eb000381 	bl	6f48 <__aeabi_dmul>
    6140:	e3a02000 	mov	r2, #0
    6144:	e59f3390 	ldr	r3, [pc, #912]	; 64dc <__rem_pio2_large+0x9c8>
    6148:	e18500fa 	strd	r0, [r5, sl]
    614c:	e1cd00d8 	ldrd	r0, [sp, #8]
    6150:	eb00037c 	bl	6f48 <__aeabi_dmul>
    6154:	e1cd00f8 	strd	r0, [sp, #8]
    6158:	eaffffec 	b	6110 <__rem_pio2_large+0x5fc>
    615c:	e28d2e1d 	add	r2, sp, #464	; 0x1d0
    6160:	e59fa38c 	ldr	sl, [pc, #908]	; 64f4 <__rem_pio2_large+0x9e0>
    6164:	e0889002 	add	r9, r8, r2
    6168:	e3a05000 	mov	r5, #0
    616c:	e065300b 	rsb	r3, r5, fp
    6170:	e3530000 	cmp	r3, #0
    6174:	ba00001a 	blt	61e4 <__rem_pio2_large+0x6d0>
    6178:	e1a06185 	lsl	r6, r5, #3
    617c:	e3a02000 	mov	r2, #0
    6180:	e3a03000 	mov	r3, #0
    6184:	e0667009 	rsb	r7, r6, r9
    6188:	e3a04000 	mov	r4, #0
    618c:	e1cd20f8 	strd	r2, [sp, #8]
    6190:	e59dc020 	ldr	ip, [sp, #32]
    6194:	e154000c 	cmp	r4, ip
    6198:	ca00000c 	bgt	61d0 <__rem_pio2_large+0x6bc>
    619c:	e1540005 	cmp	r4, r5
    61a0:	ca00000a 	bgt	61d0 <__rem_pio2_large+0x6bc>
    61a4:	e1a03184 	lsl	r3, r4, #3
    61a8:	e18300da 	ldrd	r0, [r3, sl]
    61ac:	e18320d7 	ldrd	r2, [r3, r7]
    61b0:	eb000364 	bl	6f48 <__aeabi_dmul>
    61b4:	e2844001 	add	r4, r4, #1
    61b8:	e1a02000 	mov	r2, r0
    61bc:	e1a03001 	mov	r3, r1
    61c0:	e1cd00d8 	ldrd	r0, [sp, #8]
    61c4:	eb000274 	bl	6b9c <__adddf3>
    61c8:	e1cd00f8 	strd	r0, [sp, #8]
    61cc:	eaffffef 	b	6190 <__rem_pio2_large+0x67c>
    61d0:	e1cd00d8 	ldrd	r0, [sp, #8]
    61d4:	e28d3e13 	add	r3, sp, #304	; 0x130
    61d8:	e18600f3 	strd	r0, [r6, r3]
    61dc:	e2855001 	add	r5, r5, #1
    61e0:	eaffffe1 	b	616c <__rem_pio2_large+0x658>
    61e4:	e59dc298 	ldr	ip, [sp, #664]	; 0x298
    61e8:	e35c0003 	cmp	ip, #3
    61ec:	979ff10c 	ldrls	pc, [pc, ip, lsl #2]
    61f0:	ea0000ab 	b	64a4 <__rem_pio2_large+0x990>
    61f4:	0000622c 	.word	0x0000622c
    61f8:	0000621c 	.word	0x0000621c
    61fc:	0000621c 	.word	0x0000621c
    6200:	00006204 	.word	0x00006204
    6204:	e28d0e13 	add	r0, sp, #304	; 0x130
    6208:	e0808008 	add	r8, r0, r8
    620c:	e1a0c00b 	mov	ip, fp
    6210:	e3a0a008 	mov	sl, #8
    6214:	e3a09000 	mov	r9, #0
    6218:	ea00003e 	b	6318 <__rem_pio2_large+0x804>
    621c:	e3a00000 	mov	r0, #0
    6220:	e1a0400b 	mov	r4, fp
    6224:	e1a01000 	mov	r1, r0
    6228:	ea000011 	b	6274 <__rem_pio2_large+0x760>
    622c:	e3a00000 	mov	r0, #0
    6230:	e1a01000 	mov	r1, r0
    6234:	e35b0000 	cmp	fp, #0
    6238:	ba000005 	blt	6254 <__rem_pio2_large+0x740>
    623c:	e1a0e18b 	lsl	lr, fp, #3
    6240:	e28d3e13 	add	r3, sp, #304	; 0x130
    6244:	e18320de 	ldrd	r2, [r3, lr]
    6248:	eb000253 	bl	6b9c <__adddf3>
    624c:	e24bb001 	sub	fp, fp, #1
    6250:	eafffff7 	b	6234 <__rem_pio2_large+0x720>
    6254:	e59dc010 	ldr	ip, [sp, #16]
    6258:	e1a02000 	mov	r2, r0
    625c:	e35c0000 	cmp	ip, #0
    6260:	12811102 	addne	r1, r1, #-2147483648	; 0x80000000
    6264:	e59dc01c 	ldr	ip, [sp, #28]
    6268:	e1a03001 	mov	r3, r1
    626c:	e1cc20f0 	strd	r2, [ip]
    6270:	ea00008b 	b	64a4 <__rem_pio2_large+0x990>
    6274:	e3540000 	cmp	r4, #0
    6278:	ba000005 	blt	6294 <__rem_pio2_large+0x780>
    627c:	e1a0e184 	lsl	lr, r4, #3
    6280:	e28d3e13 	add	r3, sp, #304	; 0x130
    6284:	e18320de 	ldrd	r2, [r3, lr]
    6288:	eb000243 	bl	6b9c <__adddf3>
    628c:	e2444001 	sub	r4, r4, #1
    6290:	eafffff7 	b	6274 <__rem_pio2_large+0x760>
    6294:	e59dc010 	ldr	ip, [sp, #16]
    6298:	e1a0e001 	mov	lr, r1
    629c:	e35c0000 	cmp	ip, #0
    62a0:	12811102 	addne	r1, r1, #-2147483648	; 0x80000000
    62a4:	01a0100e 	moveq	r1, lr
    62a8:	e59dc01c 	ldr	ip, [sp, #28]
    62ac:	e1a02000 	mov	r2, r0
    62b0:	e1a03001 	mov	r3, r1
    62b4:	e1cc20f0 	strd	r2, [ip]
    62b8:	e59f3238 	ldr	r3, [pc, #568]	; 64f8 <__rem_pio2_large+0x9e4>
    62bc:	e1a04000 	mov	r4, r0
    62c0:	e28d2e27 	add	r2, sp, #624	; 0x270
    62c4:	e18200d3 	ldrd	r0, [r2, r3]
    62c8:	e1a02004 	mov	r2, r4
    62cc:	e1a0300e 	mov	r3, lr
    62d0:	eb000230 	bl	6b98 <__aeabi_dsub>
    62d4:	e3a04001 	mov	r4, #1
    62d8:	e154000b 	cmp	r4, fp
    62dc:	ca000005 	bgt	62f8 <__rem_pio2_large+0x7e4>
    62e0:	e1a0e184 	lsl	lr, r4, #3
    62e4:	e28d3e13 	add	r3, sp, #304	; 0x130
    62e8:	e18320de 	ldrd	r2, [r3, lr]
    62ec:	eb00022a 	bl	6b9c <__adddf3>
    62f0:	e2844001 	add	r4, r4, #1
    62f4:	eafffff7 	b	62d8 <__rem_pio2_large+0x7c4>
    62f8:	e59dc010 	ldr	ip, [sp, #16]
    62fc:	e1a02000 	mov	r2, r0
    6300:	e35c0000 	cmp	ip, #0
    6304:	12811102 	addne	r1, r1, #-2147483648	; 0x80000000
    6308:	e59dc01c 	ldr	ip, [sp, #28]
    630c:	e1a03001 	mov	r3, r1
    6310:	e1cc20f8 	strd	r2, [ip, #8]
    6314:	ea000062 	b	64a4 <__rem_pio2_large+0x990>
    6318:	e35c0000 	cmp	ip, #0
    631c:	e2499008 	sub	r9, r9, #8
    6320:	da000018 	ble	6388 <__rem_pio2_large+0x874>
    6324:	e24aa008 	sub	sl, sl, #8
    6328:	e18800da 	ldrd	r0, [r8, sl]
    632c:	e18860d9 	ldrd	r6, [r8, r9]
    6330:	e1cd02f0 	strd	r0, [sp, #32]
    6334:	e24cc001 	sub	ip, ip, #1
    6338:	e1cd22d0 	ldrd	r2, [sp, #32]
    633c:	e1a00006 	mov	r0, r6
    6340:	e1a01007 	mov	r1, r7
    6344:	e58dc004 	str	ip, [sp, #4]
    6348:	eb000213 	bl	6b9c <__adddf3>
    634c:	e1a04000 	mov	r4, r0
    6350:	e1a05001 	mov	r5, r1
    6354:	e1a02004 	mov	r2, r4
    6358:	e1a03005 	mov	r3, r5
    635c:	e1a00006 	mov	r0, r6
    6360:	e1a01007 	mov	r1, r7
    6364:	eb00020b 	bl	6b98 <__aeabi_dsub>
    6368:	e1a02000 	mov	r2, r0
    636c:	e1a03001 	mov	r3, r1
    6370:	e1cd02d0 	ldrd	r0, [sp, #32]
    6374:	eb000208 	bl	6b9c <__adddf3>
    6378:	e59dc004 	ldr	ip, [sp, #4]
    637c:	e18800fa 	strd	r0, [r8, sl]
    6380:	e18840f9 	strd	r4, [r8, r9]
    6384:	eaffffe3 	b	6318 <__rem_pio2_large+0x804>
    6388:	e1a0c00b 	mov	ip, fp
    638c:	e3a0a008 	mov	sl, #8
    6390:	e3a09000 	mov	r9, #0
    6394:	e35c0001 	cmp	ip, #1
    6398:	e2499008 	sub	r9, r9, #8
    639c:	da000017 	ble	6400 <__rem_pio2_large+0x8ec>
    63a0:	e18860d9 	ldrd	r6, [r8, r9]
    63a4:	e24aa008 	sub	sl, sl, #8
    63a8:	e18820da 	ldrd	r2, [r8, sl]
    63ac:	e24cc001 	sub	ip, ip, #1
    63b0:	e1a00006 	mov	r0, r6
    63b4:	e1a01007 	mov	r1, r7
    63b8:	e58dc004 	str	ip, [sp, #4]
    63bc:	e1cd22f0 	strd	r2, [sp, #32]
    63c0:	eb0001f5 	bl	6b9c <__adddf3>
    63c4:	e1a04000 	mov	r4, r0
    63c8:	e1a05001 	mov	r5, r1
    63cc:	e1a02004 	mov	r2, r4
    63d0:	e1a03005 	mov	r3, r5
    63d4:	e1a00006 	mov	r0, r6
    63d8:	e1a01007 	mov	r1, r7
    63dc:	eb0001ed 	bl	6b98 <__aeabi_dsub>
    63e0:	e1a02000 	mov	r2, r0
    63e4:	e1a03001 	mov	r3, r1
    63e8:	e1cd02d0 	ldrd	r0, [sp, #32]
    63ec:	eb0001ea 	bl	6b9c <__adddf3>
    63f0:	e59dc004 	ldr	ip, [sp, #4]
    63f4:	e18800fa 	strd	r0, [r8, sl]
    63f8:	e18840f9 	strd	r4, [r8, r9]
    63fc:	eaffffe4 	b	6394 <__rem_pio2_large+0x880>
    6400:	e3a04000 	mov	r4, #0
    6404:	e1a01004 	mov	r1, r4
    6408:	e35b0001 	cmp	fp, #1
    640c:	da000007 	ble	6430 <__rem_pio2_large+0x91c>
    6410:	e1a0e18b 	lsl	lr, fp, #3
    6414:	e28d3e13 	add	r3, sp, #304	; 0x130
    6418:	e1a00004 	mov	r0, r4
    641c:	e18320de 	ldrd	r2, [r3, lr]
    6420:	eb0001dd 	bl	6b9c <__adddf3>
    6424:	e24bb001 	sub	fp, fp, #1
    6428:	e1a04000 	mov	r4, r0
    642c:	eafffff5 	b	6408 <__rem_pio2_large+0x8f4>
    6430:	e59dc010 	ldr	ip, [sp, #16]
    6434:	e35c0000 	cmp	ip, #0
    6438:	1a00000b 	bne	646c <__rem_pio2_large+0x958>
    643c:	e59f30b4 	ldr	r3, [pc, #180]	; 64f8 <__rem_pio2_large+0x9e4>
    6440:	e28d0e27 	add	r0, sp, #624	; 0x270
    6444:	e18320d0 	ldrd	r2, [r3, r0]
    6448:	e59dc01c 	ldr	ip, [sp, #28]
    644c:	e1cc20f0 	strd	r2, [ip]
    6450:	e59f30a4 	ldr	r3, [pc, #164]	; 64fc <__rem_pio2_large+0x9e8>
    6454:	e18320d0 	ldrd	r2, [r3, r0]
    6458:	e1cc20f8 	strd	r2, [ip, #8]
    645c:	e1a02004 	mov	r2, r4
    6460:	e1a03001 	mov	r3, r1
    6464:	e1cc21f0 	strd	r2, [ip, #16]
    6468:	ea00000d 	b	64a4 <__rem_pio2_large+0x990>
    646c:	e59dc01c 	ldr	ip, [sp, #28]
    6470:	e59d3130 	ldr	r3, [sp, #304]	; 0x130
    6474:	e58c3000 	str	r3, [ip]
    6478:	e59d3134 	ldr	r3, [sp, #308]	; 0x134
    647c:	e2811102 	add	r1, r1, #-2147483648	; 0x80000000
    6480:	e2833102 	add	r3, r3, #-2147483648	; 0x80000000
    6484:	e58c3004 	str	r3, [ip, #4]
    6488:	e59d3138 	ldr	r3, [sp, #312]	; 0x138
    648c:	e58c3008 	str	r3, [ip, #8]
    6490:	e59d313c 	ldr	r3, [sp, #316]	; 0x13c
    6494:	e58c4010 	str	r4, [ip, #16]
    6498:	e2833102 	add	r3, r3, #-2147483648	; 0x80000000
    649c:	e58c300c 	str	r3, [ip, #12]
    64a0:	e58c1014 	str	r1, [ip, #20]
    64a4:	e59dc028 	ldr	ip, [sp, #40]	; 0x28
    64a8:	e20c0007 	and	r0, ip, #7
    64ac:	e28ddf9d 	add	sp, sp, #628	; 0x274
    64b0:	e8bd8ff0 	pop	{r4, r5, r6, r7, r8, r9, sl, fp, pc}
    64b4:	e2466018 	sub	r6, r6, #24
    64b8:	e1a0b001 	mov	fp, r1
    64bc:	e28de040 	add	lr, sp, #64	; 0x40
    64c0:	e79e310b 	ldr	r3, [lr, fp, lsl #2]
    64c4:	e3530000 	cmp	r3, #0
    64c8:	1affff03 	bne	60dc <__rem_pio2_large+0x5c8>
    64cc:	e24bb001 	sub	fp, fp, #1
    64d0:	e2466018 	sub	r6, r6, #24
    64d4:	eafffff8 	b	64bc <__rem_pio2_large+0x9a8>
    64d8:	00007d48 	.word	0x00007d48
    64dc:	3e700000 	.word	0x3e700000
    64e0:	41700000 	.word	0x41700000
    64e4:	40200000 	.word	0x40200000
    64e8:	3fe00000 	.word	0x3fe00000
    64ec:	3ff00000 	.word	0x3ff00000
    64f0:	00007d58 	.word	0x00007d58
    64f4:	00007e60 	.word	0x00007e60
    64f8:	fffffec0 	.word	0xfffffec0
    64fc:	fffffec8 	.word	0xfffffec8

00006500 <__sin>:
    6500:	e92d4ff0 	push	{r4, r5, r6, r7, r8, r9, sl, fp, lr}
    6504:	e24dd014 	sub	sp, sp, #20
    6508:	e1cd20f0 	strd	r2, [sp]
    650c:	e1a02000 	mov	r2, r0
    6510:	e1a03001 	mov	r3, r1
    6514:	e1a0a000 	mov	sl, r0
    6518:	e1a0b001 	mov	fp, r1
    651c:	eb000289 	bl	6f48 <__aeabi_dmul>
    6520:	e59f21d4 	ldr	r2, [pc, #468]	; 66fc <__sin+0x1fc>
    6524:	e59f31d4 	ldr	r3, [pc, #468]	; 6700 <__sin+0x200>
    6528:	e1a04000 	mov	r4, r0
    652c:	e1a05001 	mov	r5, r1
    6530:	eb000284 	bl	6f48 <__aeabi_dmul>
    6534:	e59f21c8 	ldr	r2, [pc, #456]	; 6704 <__sin+0x204>
    6538:	e59f31c8 	ldr	r3, [pc, #456]	; 6708 <__sin+0x208>
    653c:	eb000195 	bl	6b98 <__aeabi_dsub>
    6540:	e1a02000 	mov	r2, r0
    6544:	e1a03001 	mov	r3, r1
    6548:	e1a00004 	mov	r0, r4
    654c:	e1a01005 	mov	r1, r5
    6550:	eb00027c 	bl	6f48 <__aeabi_dmul>
    6554:	e59f21b0 	ldr	r2, [pc, #432]	; 670c <__sin+0x20c>
    6558:	e59f31b0 	ldr	r3, [pc, #432]	; 6710 <__sin+0x210>
    655c:	eb00018e 	bl	6b9c <__adddf3>
    6560:	e1a02004 	mov	r2, r4
    6564:	e1a03005 	mov	r3, r5
    6568:	e1a08000 	mov	r8, r0
    656c:	e1a09001 	mov	r9, r1
    6570:	e1a00004 	mov	r0, r4
    6574:	e1a01005 	mov	r1, r5
    6578:	eb000272 	bl	6f48 <__aeabi_dmul>
    657c:	e1a02000 	mov	r2, r0
    6580:	e1a03001 	mov	r3, r1
    6584:	e1a00004 	mov	r0, r4
    6588:	e1a01005 	mov	r1, r5
    658c:	eb00026d 	bl	6f48 <__aeabi_dmul>
    6590:	e59f217c 	ldr	r2, [pc, #380]	; 6714 <__sin+0x214>
    6594:	e59f317c 	ldr	r3, [pc, #380]	; 6718 <__sin+0x218>
    6598:	e1a06000 	mov	r6, r0
    659c:	e1a07001 	mov	r7, r1
    65a0:	e1a00004 	mov	r0, r4
    65a4:	e1a01005 	mov	r1, r5
    65a8:	eb000266 	bl	6f48 <__aeabi_dmul>
    65ac:	e59f2168 	ldr	r2, [pc, #360]	; 671c <__sin+0x21c>
    65b0:	e59f3168 	ldr	r3, [pc, #360]	; 6720 <__sin+0x220>
    65b4:	eb000177 	bl	6b98 <__aeabi_dsub>
    65b8:	e1a02000 	mov	r2, r0
    65bc:	e1a03001 	mov	r3, r1
    65c0:	e1a00006 	mov	r0, r6
    65c4:	e1a01007 	mov	r1, r7
    65c8:	eb00025e 	bl	6f48 <__aeabi_dmul>
    65cc:	e1a02000 	mov	r2, r0
    65d0:	e1a03001 	mov	r3, r1
    65d4:	e1a00008 	mov	r0, r8
    65d8:	e1a01009 	mov	r1, r9
    65dc:	eb00016e 	bl	6b9c <__adddf3>
    65e0:	e1a0300b 	mov	r3, fp
    65e4:	e1a0200a 	mov	r2, sl
    65e8:	e1a08000 	mov	r8, r0
    65ec:	e1a09001 	mov	r9, r1
    65f0:	e1a00004 	mov	r0, r4
    65f4:	e1a01005 	mov	r1, r5
    65f8:	eb000252 	bl	6f48 <__aeabi_dmul>
    65fc:	e59d3038 	ldr	r3, [sp, #56]	; 0x38
    6600:	e3530000 	cmp	r3, #0
    6604:	e1a06000 	mov	r6, r0
    6608:	e1a07001 	mov	r7, r1
    660c:	1a000012 	bne	665c <__sin+0x15c>
    6610:	e1a02008 	mov	r2, r8
    6614:	e1a03009 	mov	r3, r9
    6618:	e1a00004 	mov	r0, r4
    661c:	e1a01005 	mov	r1, r5
    6620:	eb000248 	bl	6f48 <__aeabi_dmul>
    6624:	e59f20f8 	ldr	r2, [pc, #248]	; 6724 <__sin+0x224>
    6628:	e59f30f8 	ldr	r3, [pc, #248]	; 6728 <__sin+0x228>
    662c:	eb000159 	bl	6b98 <__aeabi_dsub>
    6630:	e1a02000 	mov	r2, r0
    6634:	e1a03001 	mov	r3, r1
    6638:	e1a00006 	mov	r0, r6
    663c:	e1a01007 	mov	r1, r7
    6640:	eb000240 	bl	6f48 <__aeabi_dmul>
    6644:	e1a02000 	mov	r2, r0
    6648:	e1a03001 	mov	r3, r1
    664c:	e1a0000a 	mov	r0, sl
    6650:	e1a0100b 	mov	r1, fp
    6654:	eb000150 	bl	6b9c <__adddf3>
    6658:	ea000025 	b	66f4 <__sin+0x1f4>
    665c:	e3a02000 	mov	r2, #0
    6660:	e59f30c4 	ldr	r3, [pc, #196]	; 672c <__sin+0x22c>
    6664:	e1cd00d0 	ldrd	r0, [sp]
    6668:	eb000236 	bl	6f48 <__aeabi_dmul>
    666c:	e1a02008 	mov	r2, r8
    6670:	e1a03009 	mov	r3, r9
    6674:	e1cd00f8 	strd	r0, [sp, #8]
    6678:	e1a00006 	mov	r0, r6
    667c:	e1a01007 	mov	r1, r7
    6680:	eb000230 	bl	6f48 <__aeabi_dmul>
    6684:	e1a02000 	mov	r2, r0
    6688:	e1a03001 	mov	r3, r1
    668c:	e1cd00d8 	ldrd	r0, [sp, #8]
    6690:	eb000140 	bl	6b98 <__aeabi_dsub>
    6694:	e1a02000 	mov	r2, r0
    6698:	e1a03001 	mov	r3, r1
    669c:	e1a00004 	mov	r0, r4
    66a0:	e1a01005 	mov	r1, r5
    66a4:	eb000227 	bl	6f48 <__aeabi_dmul>
    66a8:	e1cd20d0 	ldrd	r2, [sp]
    66ac:	eb000139 	bl	6b98 <__aeabi_dsub>
    66b0:	e59f206c 	ldr	r2, [pc, #108]	; 6724 <__sin+0x224>
    66b4:	e59f3074 	ldr	r3, [pc, #116]	; 6730 <__sin+0x230>
    66b8:	e1a04000 	mov	r4, r0
    66bc:	e1a05001 	mov	r5, r1
    66c0:	e1a00006 	mov	r0, r6
    66c4:	e1a01007 	mov	r1, r7
    66c8:	eb00021e 	bl	6f48 <__aeabi_dmul>
    66cc:	e1a02000 	mov	r2, r0
    66d0:	e1a03001 	mov	r3, r1
    66d4:	e1a00004 	mov	r0, r4
    66d8:	e1a01005 	mov	r1, r5
    66dc:	eb00012d 	bl	6b98 <__aeabi_dsub>
    66e0:	e1a02000 	mov	r2, r0
    66e4:	e1a03001 	mov	r3, r1
    66e8:	e1a0000a 	mov	r0, sl
    66ec:	e1a0100b 	mov	r1, fp
    66f0:	eb000128 	bl	6b98 <__aeabi_dsub>
    66f4:	e28dd014 	add	sp, sp, #20
    66f8:	e8bd8ff0 	pop	{r4, r5, r6, r7, r8, r9, sl, fp, pc}
    66fc:	57b1fe7d 	.word	0x57b1fe7d
    6700:	3ec71de3 	.word	0x3ec71de3
    6704:	19c161d5 	.word	0x19c161d5
    6708:	3f2a01a0 	.word	0x3f2a01a0
    670c:	1110f8a6 	.word	0x1110f8a6
    6710:	3f811111 	.word	0x3f811111
    6714:	5acfd57c 	.word	0x5acfd57c
    6718:	3de5d93a 	.word	0x3de5d93a
    671c:	8a2b9ceb 	.word	0x8a2b9ceb
    6720:	3e5ae5e6 	.word	0x3e5ae5e6
    6724:	55555549 	.word	0x55555549
    6728:	3fc55555 	.word	0x3fc55555
    672c:	3fe00000 	.word	0x3fe00000
    6730:	bfc55555 	.word	0xbfc55555

00006734 <floor>:
    6734:	e92d4ff7 	push	{r0, r1, r2, r4, r5, r6, r7, r8, r9, sl, fp, lr}
    6738:	e59f610c 	ldr	r6, [pc, #268]	; 684c <floor+0x118>
    673c:	e1a0a081 	lsl	sl, r1, #1
    6740:	e1a0aaaa 	lsr	sl, sl, #21
    6744:	e15a0006 	cmp	sl, r6
    6748:	e3a02000 	mov	r2, #0
    674c:	e3a03000 	mov	r3, #0
    6750:	d3a06000 	movle	r6, #0
    6754:	c3a06001 	movgt	r6, #1
    6758:	e1a09000 	mov	r9, r0
    675c:	e1a08001 	mov	r8, r1
    6760:	eb000346 	bl	7480 <__aeabi_dcmpeq>
    6764:	e3a05001 	mov	r5, #1
    6768:	e3500000 	cmp	r0, #0
    676c:	01a05000 	moveq	r5, r0
    6770:	e1865005 	orr	r5, r6, r5
    6774:	e31500ff 	tst	r5, #255	; 0xff
    6778:	11a00009 	movne	r0, r9
    677c:	11a01008 	movne	r1, r8
    6780:	1a00002f 	bne	6844 <floor+0x110>
    6784:	e1a06009 	mov	r6, r9
    6788:	e1a07008 	mov	r7, r8
    678c:	e3560000 	cmp	r6, #0
    6790:	e2d73000 	sbcs	r3, r7, #0
    6794:	e1a00009 	mov	r0, r9
    6798:	e1a01008 	mov	r1, r8
    679c:	e3a02000 	mov	r2, #0
    67a0:	e59f30a8 	ldr	r3, [pc, #168]	; 6850 <floor+0x11c>
    67a4:	aa000004 	bge	67bc <floor+0x88>
    67a8:	eb0000fa 	bl	6b98 <__aeabi_dsub>
    67ac:	e3a02000 	mov	r2, #0
    67b0:	e59f3098 	ldr	r3, [pc, #152]	; 6850 <floor+0x11c>
    67b4:	eb0000f8 	bl	6b9c <__adddf3>
    67b8:	ea000003 	b	67cc <floor+0x98>
    67bc:	eb0000f6 	bl	6b9c <__adddf3>
    67c0:	e3a02000 	mov	r2, #0
    67c4:	e59f3084 	ldr	r3, [pc, #132]	; 6850 <floor+0x11c>
    67c8:	eb0000f2 	bl	6b98 <__aeabi_dsub>
    67cc:	e1a03008 	mov	r3, r8
    67d0:	e1a02009 	mov	r2, r9
    67d4:	eb0000ef 	bl	6b98 <__aeabi_dsub>
    67d8:	e59f3074 	ldr	r3, [pc, #116]	; 6854 <floor+0x120>
    67dc:	e15a0003 	cmp	sl, r3
    67e0:	e1a04000 	mov	r4, r0
    67e4:	e1a05001 	mov	r5, r1
    67e8:	ca000006 	bgt	6808 <floor+0xd4>
    67ec:	e3560000 	cmp	r6, #0
    67f0:	e2d73000 	sbcs	r3, r7, #0
    67f4:	e1cd40f0 	strd	r4, [sp]
    67f8:	e3a00000 	mov	r0, #0
    67fc:	b59f1054 	ldrlt	r1, [pc, #84]	; 6858 <floor+0x124>
    6800:	a1a01000 	movge	r1, r0
    6804:	ea00000e 	b	6844 <floor+0x110>
    6808:	e3a02000 	mov	r2, #0
    680c:	e3a03000 	mov	r3, #0
    6810:	eb00032e 	bl	74d0 <__aeabi_dcmpgt>
    6814:	e1a01008 	mov	r1, r8
    6818:	e1a02004 	mov	r2, r4
    681c:	e1a03005 	mov	r3, r5
    6820:	e3500000 	cmp	r0, #0
    6824:	e1a00009 	mov	r0, r9
    6828:	0a000004 	beq	6840 <floor+0x10c>
    682c:	eb0000da 	bl	6b9c <__adddf3>
    6830:	e3a02000 	mov	r2, #0
    6834:	e59f3020 	ldr	r3, [pc, #32]	; 685c <floor+0x128>
    6838:	eb0000d6 	bl	6b98 <__aeabi_dsub>
    683c:	ea000000 	b	6844 <floor+0x110>
    6840:	eb0000d5 	bl	6b9c <__adddf3>
    6844:	e28dd00c 	add	sp, sp, #12
    6848:	e8bd8ff0 	pop	{r4, r5, r6, r7, r8, r9, sl, fp, pc}
    684c:	00000432 	.word	0x00000432
    6850:	43300000 	.word	0x43300000
    6854:	000003fe 	.word	0x000003fe
    6858:	bff00000 	.word	0xbff00000
    685c:	3ff00000 	.word	0x3ff00000

00006860 <scalbn>:
    6860:	e92d40f8 	push	{r3, r4, r5, r6, r7, lr}
    6864:	e59f70d8 	ldr	r7, [pc, #216]	; 6944 <scalbn+0xe4>
    6868:	e1a04000 	mov	r4, r0
    686c:	e1520007 	cmp	r2, r7
    6870:	e1a05001 	mov	r5, r1
    6874:	e1a06002 	mov	r6, r2
    6878:	da000012 	ble	68c8 <scalbn+0x68>
    687c:	e59f30c4 	ldr	r3, [pc, #196]	; 6948 <scalbn+0xe8>
    6880:	e3a02000 	mov	r2, #0
    6884:	eb0001af 	bl	6f48 <__aeabi_dmul>
    6888:	e2463fff 	sub	r3, r6, #1020	; 0x3fc
    688c:	e2433003 	sub	r3, r3, #3
    6890:	e1530007 	cmp	r3, r7
    6894:	e1a04000 	mov	r4, r0
    6898:	e1a05001 	mov	r5, r1
    689c:	da00001f 	ble	6920 <scalbn+0xc0>
    68a0:	e3a02000 	mov	r2, #0
    68a4:	e59f309c 	ldr	r3, [pc, #156]	; 6948 <scalbn+0xe8>
    68a8:	eb0001a6 	bl	6f48 <__aeabi_dmul>
    68ac:	e2466e7f 	sub	r6, r6, #2032	; 0x7f0
    68b0:	e246600e 	sub	r6, r6, #14
    68b4:	e1560007 	cmp	r6, r7
    68b8:	a1a06007 	movge	r6, r7
    68bc:	e1a04000 	mov	r4, r0
    68c0:	e1a05001 	mov	r5, r1
    68c4:	ea000016 	b	6924 <scalbn+0xc4>
    68c8:	e59f707c 	ldr	r7, [pc, #124]	; 694c <scalbn+0xec>
    68cc:	e1520007 	cmp	r2, r7
    68d0:	aa000013 	bge	6924 <scalbn+0xc4>
    68d4:	e3a03601 	mov	r3, #1048576	; 0x100000
    68d8:	e3a02000 	mov	r2, #0
    68dc:	eb000199 	bl	6f48 <__aeabi_dmul>
    68e0:	e2863fff 	add	r3, r6, #1020	; 0x3fc
    68e4:	e2833002 	add	r3, r3, #2
    68e8:	e1530007 	cmp	r3, r7
    68ec:	e1a04000 	mov	r4, r0
    68f0:	e1a05001 	mov	r5, r1
    68f4:	aa000009 	bge	6920 <scalbn+0xc0>
    68f8:	e3a02000 	mov	r2, #0
    68fc:	e3a03601 	mov	r3, #1048576	; 0x100000
    6900:	eb000190 	bl	6f48 <__aeabi_dmul>
    6904:	e2866e7f 	add	r6, r6, #2032	; 0x7f0
    6908:	e286600c 	add	r6, r6, #12
    690c:	e1560007 	cmp	r6, r7
    6910:	b1a06007 	movlt	r6, r7
    6914:	e1a04000 	mov	r4, r0
    6918:	e1a05001 	mov	r5, r1
    691c:	ea000000 	b	6924 <scalbn+0xc4>
    6920:	e1a06003 	mov	r6, r3
    6924:	e2866fff 	add	r6, r6, #1020	; 0x3fc
    6928:	e2866003 	add	r6, r6, #3
    692c:	e1a03a06 	lsl	r3, r6, #20
    6930:	e3a02000 	mov	r2, #0
    6934:	e1a00004 	mov	r0, r4
    6938:	e1a01005 	mov	r1, r5
    693c:	eb000181 	bl	6f48 <__aeabi_dmul>
    6940:	e8bd80f8 	pop	{r3, r4, r5, r6, r7, pc}
    6944:	000003ff 	.word	0x000003ff
    6948:	7fe00000 	.word	0x7fe00000
    694c:	fffffc02 	.word	0xfffffc02

00006950 <__aeabi_idiv>:
    6950:	e3510000 	cmp	r1, #0
    6954:	0a000081 	beq	6b60 <.divsi3_skip_div0_test+0x208>

00006958 <.divsi3_skip_div0_test>:
    6958:	e020c001 	eor	ip, r0, r1
    695c:	42611000 	rsbmi	r1, r1, #0
    6960:	e2512001 	subs	r2, r1, #1
    6964:	0a000070 	beq	6b2c <.divsi3_skip_div0_test+0x1d4>
    6968:	e1b03000 	movs	r3, r0
    696c:	42603000 	rsbmi	r3, r0, #0
    6970:	e1530001 	cmp	r3, r1
    6974:	9a00006f 	bls	6b38 <.divsi3_skip_div0_test+0x1e0>
    6978:	e1110002 	tst	r1, r2
    697c:	0a000071 	beq	6b48 <.divsi3_skip_div0_test+0x1f0>
    6980:	e16f2f13 	clz	r2, r3
    6984:	e16f0f11 	clz	r0, r1
    6988:	e0402002 	sub	r2, r0, r2
    698c:	e272201f 	rsbs	r2, r2, #31
    6990:	10822082 	addne	r2, r2, r2, lsl #1
    6994:	e3a00000 	mov	r0, #0
    6998:	108ff102 	addne	pc, pc, r2, lsl #2
    699c:	e1a00000 	nop			; (mov r0, r0)
    69a0:	e1530f81 	cmp	r3, r1, lsl #31
    69a4:	e0a00000 	adc	r0, r0, r0
    69a8:	20433f81 	subcs	r3, r3, r1, lsl #31
    69ac:	e1530f01 	cmp	r3, r1, lsl #30
    69b0:	e0a00000 	adc	r0, r0, r0
    69b4:	20433f01 	subcs	r3, r3, r1, lsl #30
    69b8:	e1530e81 	cmp	r3, r1, lsl #29
    69bc:	e0a00000 	adc	r0, r0, r0
    69c0:	20433e81 	subcs	r3, r3, r1, lsl #29
    69c4:	e1530e01 	cmp	r3, r1, lsl #28
    69c8:	e0a00000 	adc	r0, r0, r0
    69cc:	20433e01 	subcs	r3, r3, r1, lsl #28
    69d0:	e1530d81 	cmp	r3, r1, lsl #27
    69d4:	e0a00000 	adc	r0, r0, r0
    69d8:	20433d81 	subcs	r3, r3, r1, lsl #27
    69dc:	e1530d01 	cmp	r3, r1, lsl #26
    69e0:	e0a00000 	adc	r0, r0, r0
    69e4:	20433d01 	subcs	r3, r3, r1, lsl #26
    69e8:	e1530c81 	cmp	r3, r1, lsl #25
    69ec:	e0a00000 	adc	r0, r0, r0
    69f0:	20433c81 	subcs	r3, r3, r1, lsl #25
    69f4:	e1530c01 	cmp	r3, r1, lsl #24
    69f8:	e0a00000 	adc	r0, r0, r0
    69fc:	20433c01 	subcs	r3, r3, r1, lsl #24
    6a00:	e1530b81 	cmp	r3, r1, lsl #23
    6a04:	e0a00000 	adc	r0, r0, r0
    6a08:	20433b81 	subcs	r3, r3, r1, lsl #23
    6a0c:	e1530b01 	cmp	r3, r1, lsl #22
    6a10:	e0a00000 	adc	r0, r0, r0
    6a14:	20433b01 	subcs	r3, r3, r1, lsl #22
    6a18:	e1530a81 	cmp	r3, r1, lsl #21
    6a1c:	e0a00000 	adc	r0, r0, r0
    6a20:	20433a81 	subcs	r3, r3, r1, lsl #21
    6a24:	e1530a01 	cmp	r3, r1, lsl #20
    6a28:	e0a00000 	adc	r0, r0, r0
    6a2c:	20433a01 	subcs	r3, r3, r1, lsl #20
    6a30:	e1530981 	cmp	r3, r1, lsl #19
    6a34:	e0a00000 	adc	r0, r0, r0
    6a38:	20433981 	subcs	r3, r3, r1, lsl #19
    6a3c:	e1530901 	cmp	r3, r1, lsl #18
    6a40:	e0a00000 	adc	r0, r0, r0
    6a44:	20433901 	subcs	r3, r3, r1, lsl #18
    6a48:	e1530881 	cmp	r3, r1, lsl #17
    6a4c:	e0a00000 	adc	r0, r0, r0
    6a50:	20433881 	subcs	r3, r3, r1, lsl #17
    6a54:	e1530801 	cmp	r3, r1, lsl #16
    6a58:	e0a00000 	adc	r0, r0, r0
    6a5c:	20433801 	subcs	r3, r3, r1, lsl #16
    6a60:	e1530781 	cmp	r3, r1, lsl #15
    6a64:	e0a00000 	adc	r0, r0, r0
    6a68:	20433781 	subcs	r3, r3, r1, lsl #15
    6a6c:	e1530701 	cmp	r3, r1, lsl #14
    6a70:	e0a00000 	adc	r0, r0, r0
    6a74:	20433701 	subcs	r3, r3, r1, lsl #14
    6a78:	e1530681 	cmp	r3, r1, lsl #13
    6a7c:	e0a00000 	adc	r0, r0, r0
    6a80:	20433681 	subcs	r3, r3, r1, lsl #13
    6a84:	e1530601 	cmp	r3, r1, lsl #12
    6a88:	e0a00000 	adc	r0, r0, r0
    6a8c:	20433601 	subcs	r3, r3, r1, lsl #12
    6a90:	e1530581 	cmp	r3, r1, lsl #11
    6a94:	e0a00000 	adc	r0, r0, r0
    6a98:	20433581 	subcs	r3, r3, r1, lsl #11
    6a9c:	e1530501 	cmp	r3, r1, lsl #10
    6aa0:	e0a00000 	adc	r0, r0, r0
    6aa4:	20433501 	subcs	r3, r3, r1, lsl #10
    6aa8:	e1530481 	cmp	r3, r1, lsl #9
    6aac:	e0a00000 	adc	r0, r0, r0
    6ab0:	20433481 	subcs	r3, r3, r1, lsl #9
    6ab4:	e1530401 	cmp	r3, r1, lsl #8
    6ab8:	e0a00000 	adc	r0, r0, r0
    6abc:	20433401 	subcs	r3, r3, r1, lsl #8
    6ac0:	e1530381 	cmp	r3, r1, lsl #7
    6ac4:	e0a00000 	adc	r0, r0, r0
    6ac8:	20433381 	subcs	r3, r3, r1, lsl #7
    6acc:	e1530301 	cmp	r3, r1, lsl #6
    6ad0:	e0a00000 	adc	r0, r0, r0
    6ad4:	20433301 	subcs	r3, r3, r1, lsl #6
    6ad8:	e1530281 	cmp	r3, r1, lsl #5
    6adc:	e0a00000 	adc	r0, r0, r0
    6ae0:	20433281 	subcs	r3, r3, r1, lsl #5
    6ae4:	e1530201 	cmp	r3, r1, lsl #4
    6ae8:	e0a00000 	adc	r0, r0, r0
    6aec:	20433201 	subcs	r3, r3, r1, lsl #4
    6af0:	e1530181 	cmp	r3, r1, lsl #3
    6af4:	e0a00000 	adc	r0, r0, r0
    6af8:	20433181 	subcs	r3, r3, r1, lsl #3
    6afc:	e1530101 	cmp	r3, r1, lsl #2
    6b00:	e0a00000 	adc	r0, r0, r0
    6b04:	20433101 	subcs	r3, r3, r1, lsl #2
    6b08:	e1530081 	cmp	r3, r1, lsl #1
    6b0c:	e0a00000 	adc	r0, r0, r0
    6b10:	20433081 	subcs	r3, r3, r1, lsl #1
    6b14:	e1530001 	cmp	r3, r1
    6b18:	e0a00000 	adc	r0, r0, r0
    6b1c:	20433001 	subcs	r3, r3, r1
    6b20:	e35c0000 	cmp	ip, #0
    6b24:	42600000 	rsbmi	r0, r0, #0
    6b28:	e12fff1e 	bx	lr
    6b2c:	e13c0000 	teq	ip, r0
    6b30:	42600000 	rsbmi	r0, r0, #0
    6b34:	e12fff1e 	bx	lr
    6b38:	33a00000 	movcc	r0, #0
    6b3c:	01a00fcc 	asreq	r0, ip, #31
    6b40:	03800001 	orreq	r0, r0, #1
    6b44:	e12fff1e 	bx	lr
    6b48:	e16f2f11 	clz	r2, r1
    6b4c:	e262201f 	rsb	r2, r2, #31
    6b50:	e35c0000 	cmp	ip, #0
    6b54:	e1a00233 	lsr	r0, r3, r2
    6b58:	42600000 	rsbmi	r0, r0, #0
    6b5c:	e12fff1e 	bx	lr
    6b60:	e3500000 	cmp	r0, #0
    6b64:	c3e00102 	mvngt	r0, #-2147483648	; 0x80000000
    6b68:	b3a00102 	movlt	r0, #-2147483648	; 0x80000000
    6b6c:	ea000443 	b	7c80 <__aeabi_idiv0>

00006b70 <__aeabi_idivmod>:
    6b70:	e3510000 	cmp	r1, #0
    6b74:	0afffff9 	beq	6b60 <.divsi3_skip_div0_test+0x208>
    6b78:	e92d4003 	push	{r0, r1, lr}
    6b7c:	ebffff75 	bl	6958 <.divsi3_skip_div0_test>
    6b80:	e8bd4006 	pop	{r1, r2, lr}
    6b84:	e0030092 	mul	r3, r2, r0
    6b88:	e0411003 	sub	r1, r1, r3
    6b8c:	e12fff1e 	bx	lr

00006b90 <__aeabi_drsub>:
    6b90:	e2211102 	eor	r1, r1, #-2147483648	; 0x80000000
    6b94:	ea000000 	b	6b9c <__adddf3>

00006b98 <__aeabi_dsub>:
    6b98:	e2233102 	eor	r3, r3, #-2147483648	; 0x80000000

00006b9c <__adddf3>:
    6b9c:	e92d4030 	push	{r4, r5, lr}
    6ba0:	e1a04081 	lsl	r4, r1, #1
    6ba4:	e1a05083 	lsl	r5, r3, #1
    6ba8:	e1340005 	teq	r4, r5
    6bac:	01300002 	teqeq	r0, r2
    6bb0:	1194c000 	orrsne	ip, r4, r0
    6bb4:	1195c002 	orrsne	ip, r5, r2
    6bb8:	11f0cac4 	mvnsne	ip, r4, asr #21
    6bbc:	11f0cac5 	mvnsne	ip, r5, asr #21
    6bc0:	0a000079 	beq	6dac <__adddf3+0x210>
    6bc4:	e1a04aa4 	lsr	r4, r4, #21
    6bc8:	e0745aa5 	rsbs	r5, r4, r5, lsr #21
    6bcc:	b2655000 	rsblt	r5, r5, #0
    6bd0:	da000006 	ble	6bf0 <__adddf3+0x54>
    6bd4:	e0844005 	add	r4, r4, r5
    6bd8:	e0202002 	eor	r2, r0, r2
    6bdc:	e0213003 	eor	r3, r1, r3
    6be0:	e0220000 	eor	r0, r2, r0
    6be4:	e0231001 	eor	r1, r3, r1
    6be8:	e0202002 	eor	r2, r0, r2
    6bec:	e0213003 	eor	r3, r1, r3
    6bf0:	e3550036 	cmp	r5, #54	; 0x36
    6bf4:	88bd8030 	pophi	{r4, r5, pc}
    6bf8:	e3110102 	tst	r1, #-2147483648	; 0x80000000
    6bfc:	e1a01601 	lsl	r1, r1, #12
    6c00:	e3a0c601 	mov	ip, #1048576	; 0x100000
    6c04:	e18c1621 	orr	r1, ip, r1, lsr #12
    6c08:	0a000001 	beq	6c14 <__adddf3+0x78>
    6c0c:	e2700000 	rsbs	r0, r0, #0
    6c10:	e2e11000 	rsc	r1, r1, #0
    6c14:	e3130102 	tst	r3, #-2147483648	; 0x80000000
    6c18:	e1a03603 	lsl	r3, r3, #12
    6c1c:	e18c3623 	orr	r3, ip, r3, lsr #12
    6c20:	0a000001 	beq	6c2c <__adddf3+0x90>
    6c24:	e2722000 	rsbs	r2, r2, #0
    6c28:	e2e33000 	rsc	r3, r3, #0
    6c2c:	e1340005 	teq	r4, r5
    6c30:	0a000057 	beq	6d94 <__adddf3+0x1f8>
    6c34:	e2444001 	sub	r4, r4, #1
    6c38:	e275e020 	rsbs	lr, r5, #32
    6c3c:	ba000005 	blt	6c58 <__adddf3+0xbc>
    6c40:	e1a0ce12 	lsl	ip, r2, lr
    6c44:	e0900532 	adds	r0, r0, r2, lsr r5
    6c48:	e2a11000 	adc	r1, r1, #0
    6c4c:	e0900e13 	adds	r0, r0, r3, lsl lr
    6c50:	e0b11553 	adcs	r1, r1, r3, asr r5
    6c54:	ea000006 	b	6c74 <__adddf3+0xd8>
    6c58:	e2455020 	sub	r5, r5, #32
    6c5c:	e28ee020 	add	lr, lr, #32
    6c60:	e3520001 	cmp	r2, #1
    6c64:	e1a0ce13 	lsl	ip, r3, lr
    6c68:	238cc002 	orrcs	ip, ip, #2
    6c6c:	e0900553 	adds	r0, r0, r3, asr r5
    6c70:	e0b11fc3 	adcs	r1, r1, r3, asr #31
    6c74:	e2015102 	and	r5, r1, #-2147483648	; 0x80000000
    6c78:	5a000002 	bpl	6c88 <__adddf3+0xec>
    6c7c:	e27cc000 	rsbs	ip, ip, #0
    6c80:	e2f00000 	rscs	r0, r0, #0
    6c84:	e2e11000 	rsc	r1, r1, #0
    6c88:	e3510601 	cmp	r1, #1048576	; 0x100000
    6c8c:	3a00000e 	bcc	6ccc <__adddf3+0x130>
    6c90:	e3510602 	cmp	r1, #2097152	; 0x200000
    6c94:	3a000006 	bcc	6cb4 <__adddf3+0x118>
    6c98:	e1b010a1 	lsrs	r1, r1, #1
    6c9c:	e1b00060 	rrxs	r0, r0
    6ca0:	e1a0c06c 	rrx	ip, ip
    6ca4:	e2844001 	add	r4, r4, #1
    6ca8:	e1a02a84 	lsl	r2, r4, #21
    6cac:	e3720501 	cmn	r2, #4194304	; 0x400000
    6cb0:	2a000055 	bcs	6e0c <__adddf3+0x270>
    6cb4:	e35c0102 	cmp	ip, #-2147483648	; 0x80000000
    6cb8:	01b0c0a0 	lsrseq	ip, r0, #1
    6cbc:	e2b00000 	adcs	r0, r0, #0
    6cc0:	e0a11a04 	adc	r1, r1, r4, lsl #20
    6cc4:	e1811005 	orr	r1, r1, r5
    6cc8:	e8bd8030 	pop	{r4, r5, pc}
    6ccc:	e1b0c08c 	lsls	ip, ip, #1
    6cd0:	e0b00000 	adcs	r0, r0, r0
    6cd4:	e0a11001 	adc	r1, r1, r1
    6cd8:	e3110601 	tst	r1, #1048576	; 0x100000
    6cdc:	e2444001 	sub	r4, r4, #1
    6ce0:	1afffff3 	bne	6cb4 <__adddf3+0x118>
    6ce4:	e3310000 	teq	r1, #0
    6ce8:	01a01000 	moveq	r1, r0
    6cec:	03a00000 	moveq	r0, #0
    6cf0:	e16f3f11 	clz	r3, r1
    6cf4:	02833020 	addeq	r3, r3, #32
    6cf8:	e243300b 	sub	r3, r3, #11
    6cfc:	e2532020 	subs	r2, r3, #32
    6d00:	aa000007 	bge	6d24 <__adddf3+0x188>
    6d04:	e292200c 	adds	r2, r2, #12
    6d08:	da000004 	ble	6d20 <__adddf3+0x184>
    6d0c:	e282c014 	add	ip, r2, #20
    6d10:	e262200c 	rsb	r2, r2, #12
    6d14:	e1a00c11 	lsl	r0, r1, ip
    6d18:	e1a01231 	lsr	r1, r1, r2
    6d1c:	ea000004 	b	6d34 <__adddf3+0x198>
    6d20:	e2822014 	add	r2, r2, #20
    6d24:	d262c020 	rsble	ip, r2, #32
    6d28:	e1a01211 	lsl	r1, r1, r2
    6d2c:	d1811c30 	orrle	r1, r1, r0, lsr ip
    6d30:	d1a00210 	lslle	r0, r0, r2
    6d34:	e0544003 	subs	r4, r4, r3
    6d38:	a0811a04 	addge	r1, r1, r4, lsl #20
    6d3c:	a1811005 	orrge	r1, r1, r5
    6d40:	a8bd8030 	popge	{r4, r5, pc}
    6d44:	e1e04004 	mvn	r4, r4
    6d48:	e254401f 	subs	r4, r4, #31
    6d4c:	aa00000d 	bge	6d88 <__adddf3+0x1ec>
    6d50:	e294400c 	adds	r4, r4, #12
    6d54:	ca000005 	bgt	6d70 <__adddf3+0x1d4>
    6d58:	e2844014 	add	r4, r4, #20
    6d5c:	e2642020 	rsb	r2, r4, #32
    6d60:	e1a00430 	lsr	r0, r0, r4
    6d64:	e1800211 	orr	r0, r0, r1, lsl r2
    6d68:	e1851431 	orr	r1, r5, r1, lsr r4
    6d6c:	e8bd8030 	pop	{r4, r5, pc}
    6d70:	e264400c 	rsb	r4, r4, #12
    6d74:	e2642020 	rsb	r2, r4, #32
    6d78:	e1a00230 	lsr	r0, r0, r2
    6d7c:	e1800411 	orr	r0, r0, r1, lsl r4
    6d80:	e1a01005 	mov	r1, r5
    6d84:	e8bd8030 	pop	{r4, r5, pc}
    6d88:	e1a00431 	lsr	r0, r1, r4
    6d8c:	e1a01005 	mov	r1, r5
    6d90:	e8bd8030 	pop	{r4, r5, pc}
    6d94:	e3340000 	teq	r4, #0
    6d98:	e2233601 	eor	r3, r3, #1048576	; 0x100000
    6d9c:	02211601 	eoreq	r1, r1, #1048576	; 0x100000
    6da0:	02844001 	addeq	r4, r4, #1
    6da4:	12455001 	subne	r5, r5, #1
    6da8:	eaffffa1 	b	6c34 <__adddf3+0x98>
    6dac:	e1f0cac4 	mvns	ip, r4, asr #21
    6db0:	11f0cac5 	mvnsne	ip, r5, asr #21
    6db4:	0a000018 	beq	6e1c <__adddf3+0x280>
    6db8:	e1340005 	teq	r4, r5
    6dbc:	01300002 	teqeq	r0, r2
    6dc0:	0a000003 	beq	6dd4 <__adddf3+0x238>
    6dc4:	e194c000 	orrs	ip, r4, r0
    6dc8:	01a01003 	moveq	r1, r3
    6dcc:	01a00002 	moveq	r0, r2
    6dd0:	e8bd8030 	pop	{r4, r5, pc}
    6dd4:	e1310003 	teq	r1, r3
    6dd8:	13a01000 	movne	r1, #0
    6ddc:	13a00000 	movne	r0, #0
    6de0:	18bd8030 	popne	{r4, r5, pc}
    6de4:	e1b0caa4 	lsrs	ip, r4, #21
    6de8:	1a000003 	bne	6dfc <__adddf3+0x260>
    6dec:	e1b00080 	lsls	r0, r0, #1
    6df0:	e0b11001 	adcs	r1, r1, r1
    6df4:	23811102 	orrcs	r1, r1, #-2147483648	; 0x80000000
    6df8:	e8bd8030 	pop	{r4, r5, pc}
    6dfc:	e2944501 	adds	r4, r4, #4194304	; 0x400000
    6e00:	32811601 	addcc	r1, r1, #1048576	; 0x100000
    6e04:	38bd8030 	popcc	{r4, r5, pc}
    6e08:	e2015102 	and	r5, r1, #-2147483648	; 0x80000000
    6e0c:	e385147f 	orr	r1, r5, #2130706432	; 0x7f000000
    6e10:	e381160f 	orr	r1, r1, #15728640	; 0xf00000
    6e14:	e3a00000 	mov	r0, #0
    6e18:	e8bd8030 	pop	{r4, r5, pc}
    6e1c:	e1f0cac4 	mvns	ip, r4, asr #21
    6e20:	11a01003 	movne	r1, r3
    6e24:	11a00002 	movne	r0, r2
    6e28:	01f0cac5 	mvnseq	ip, r5, asr #21
    6e2c:	11a03001 	movne	r3, r1
    6e30:	11a02000 	movne	r2, r0
    6e34:	e1904601 	orrs	r4, r0, r1, lsl #12
    6e38:	01925603 	orrseq	r5, r2, r3, lsl #12
    6e3c:	01310003 	teqeq	r1, r3
    6e40:	13811702 	orrne	r1, r1, #524288	; 0x80000
    6e44:	e8bd8030 	pop	{r4, r5, pc}

00006e48 <__aeabi_ui2d>:
    6e48:	e3300000 	teq	r0, #0
    6e4c:	03a01000 	moveq	r1, #0
    6e50:	012fff1e 	bxeq	lr
    6e54:	e92d4030 	push	{r4, r5, lr}
    6e58:	e3a04b01 	mov	r4, #1024	; 0x400
    6e5c:	e2844032 	add	r4, r4, #50	; 0x32
    6e60:	e3a05000 	mov	r5, #0
    6e64:	e3a01000 	mov	r1, #0
    6e68:	eaffff9d 	b	6ce4 <__adddf3+0x148>

00006e6c <__aeabi_i2d>:
    6e6c:	e3300000 	teq	r0, #0
    6e70:	03a01000 	moveq	r1, #0
    6e74:	012fff1e 	bxeq	lr
    6e78:	e92d4030 	push	{r4, r5, lr}
    6e7c:	e3a04b01 	mov	r4, #1024	; 0x400
    6e80:	e2844032 	add	r4, r4, #50	; 0x32
    6e84:	e2105102 	ands	r5, r0, #-2147483648	; 0x80000000
    6e88:	42600000 	rsbmi	r0, r0, #0
    6e8c:	e3a01000 	mov	r1, #0
    6e90:	eaffff93 	b	6ce4 <__adddf3+0x148>

00006e94 <__aeabi_f2d>:
    6e94:	e1b02080 	lsls	r2, r0, #1
    6e98:	e1a011c2 	asr	r1, r2, #3
    6e9c:	e1a01061 	rrx	r1, r1
    6ea0:	e1a00e02 	lsl	r0, r2, #28
    6ea4:	121234ff 	andsne	r3, r2, #-16777216	; 0xff000000
    6ea8:	133304ff 	teqne	r3, #-16777216	; 0xff000000
    6eac:	1221130e 	eorne	r1, r1, #939524096	; 0x38000000
    6eb0:	112fff1e 	bxne	lr
    6eb4:	e3320000 	teq	r2, #0
    6eb8:	133304ff 	teqne	r3, #-16777216	; 0xff000000
    6ebc:	012fff1e 	bxeq	lr
    6ec0:	e92d4030 	push	{r4, r5, lr}
    6ec4:	e3a04d0e 	mov	r4, #896	; 0x380
    6ec8:	e2015102 	and	r5, r1, #-2147483648	; 0x80000000
    6ecc:	e3c11102 	bic	r1, r1, #-2147483648	; 0x80000000
    6ed0:	eaffff83 	b	6ce4 <__adddf3+0x148>

00006ed4 <__aeabi_ul2d>:
    6ed4:	e1902001 	orrs	r2, r0, r1
    6ed8:	012fff1e 	bxeq	lr
    6edc:	e92d4030 	push	{r4, r5, lr}
    6ee0:	e3a05000 	mov	r5, #0
    6ee4:	ea000006 	b	6f04 <__aeabi_l2d+0x1c>

00006ee8 <__aeabi_l2d>:
    6ee8:	e1902001 	orrs	r2, r0, r1
    6eec:	012fff1e 	bxeq	lr
    6ef0:	e92d4030 	push	{r4, r5, lr}
    6ef4:	e2115102 	ands	r5, r1, #-2147483648	; 0x80000000
    6ef8:	5a000001 	bpl	6f04 <__aeabi_l2d+0x1c>
    6efc:	e2700000 	rsbs	r0, r0, #0
    6f00:	e2e11000 	rsc	r1, r1, #0
    6f04:	e3a04b01 	mov	r4, #1024	; 0x400
    6f08:	e2844032 	add	r4, r4, #50	; 0x32
    6f0c:	e1b0cb21 	lsrs	ip, r1, #22
    6f10:	0affff5c 	beq	6c88 <__adddf3+0xec>
    6f14:	e3a02003 	mov	r2, #3
    6f18:	e1b0c1ac 	lsrs	ip, ip, #3
    6f1c:	12822003 	addne	r2, r2, #3
    6f20:	e1b0c1ac 	lsrs	ip, ip, #3
    6f24:	12822003 	addne	r2, r2, #3
    6f28:	e08221ac 	add	r2, r2, ip, lsr #3
    6f2c:	e2623020 	rsb	r3, r2, #32
    6f30:	e1a0c310 	lsl	ip, r0, r3
    6f34:	e1a00230 	lsr	r0, r0, r2
    6f38:	e1800311 	orr	r0, r0, r1, lsl r3
    6f3c:	e1a01231 	lsr	r1, r1, r2
    6f40:	e0844002 	add	r4, r4, r2
    6f44:	eaffff4f 	b	6c88 <__adddf3+0xec>

00006f48 <__aeabi_dmul>:
    6f48:	e92d4070 	push	{r4, r5, r6, lr}
    6f4c:	e3a0c0ff 	mov	ip, #255	; 0xff
    6f50:	e38ccc07 	orr	ip, ip, #1792	; 0x700
    6f54:	e01c4a21 	ands	r4, ip, r1, lsr #20
    6f58:	101c5a23 	andsne	r5, ip, r3, lsr #20
    6f5c:	1134000c 	teqne	r4, ip
    6f60:	1135000c 	teqne	r5, ip
    6f64:	0b00006f 	bleq	7128 <__aeabi_dmul+0x1e0>
    6f68:	e0844005 	add	r4, r4, r5
    6f6c:	e0216003 	eor	r6, r1, r3
    6f70:	e1c11a8c 	bic	r1, r1, ip, lsl #21
    6f74:	e1c33a8c 	bic	r3, r3, ip, lsl #21
    6f78:	e1905601 	orrs	r5, r0, r1, lsl #12
    6f7c:	11925603 	orrsne	r5, r2, r3, lsl #12
    6f80:	e3811601 	orr	r1, r1, #1048576	; 0x100000
    6f84:	e3833601 	orr	r3, r3, #1048576	; 0x100000
    6f88:	0a00001c 	beq	7000 <__aeabi_dmul+0xb8>
    6f8c:	e08ec290 	umull	ip, lr, r0, r2
    6f90:	e3a05000 	mov	r5, #0
    6f94:	e0a5e291 	umlal	lr, r5, r1, r2
    6f98:	e2062102 	and	r2, r6, #-2147483648	; 0x80000000
    6f9c:	e0a5e390 	umlal	lr, r5, r0, r3
    6fa0:	e3a06000 	mov	r6, #0
    6fa4:	e0a65391 	umlal	r5, r6, r1, r3
    6fa8:	e33c0000 	teq	ip, #0
    6fac:	138ee001 	orrne	lr, lr, #1
    6fb0:	e24440ff 	sub	r4, r4, #255	; 0xff
    6fb4:	e3560c02 	cmp	r6, #512	; 0x200
    6fb8:	e2c44c03 	sbc	r4, r4, #768	; 0x300
    6fbc:	2a000002 	bcs	6fcc <__aeabi_dmul+0x84>
    6fc0:	e1b0e08e 	lsls	lr, lr, #1
    6fc4:	e0b55005 	adcs	r5, r5, r5
    6fc8:	e0a66006 	adc	r6, r6, r6
    6fcc:	e1821586 	orr	r1, r2, r6, lsl #11
    6fd0:	e1811aa5 	orr	r1, r1, r5, lsr #21
    6fd4:	e1a00585 	lsl	r0, r5, #11
    6fd8:	e1800aae 	orr	r0, r0, lr, lsr #21
    6fdc:	e1a0e58e 	lsl	lr, lr, #11
    6fe0:	e254c0fd 	subs	ip, r4, #253	; 0xfd
    6fe4:	835c0c07 	cmphi	ip, #1792	; 0x700
    6fe8:	8a00000f 	bhi	702c <__aeabi_dmul+0xe4>
    6fec:	e35e0102 	cmp	lr, #-2147483648	; 0x80000000
    6ff0:	01b0e0a0 	lsrseq	lr, r0, #1
    6ff4:	e2b00000 	adcs	r0, r0, #0
    6ff8:	e0a11a04 	adc	r1, r1, r4, lsl #20
    6ffc:	e8bd8070 	pop	{r4, r5, r6, pc}
    7000:	e2066102 	and	r6, r6, #-2147483648	; 0x80000000
    7004:	e1861001 	orr	r1, r6, r1
    7008:	e1800002 	orr	r0, r0, r2
    700c:	e0211003 	eor	r1, r1, r3
    7010:	e05440ac 	subs	r4, r4, ip, lsr #1
    7014:	c074500c 	rsbsgt	r5, r4, ip
    7018:	c1811a04 	orrgt	r1, r1, r4, lsl #20
    701c:	c8bd8070 	popgt	{r4, r5, r6, pc}
    7020:	e3811601 	orr	r1, r1, #1048576	; 0x100000
    7024:	e3a0e000 	mov	lr, #0
    7028:	e2544001 	subs	r4, r4, #1
    702c:	ca000058 	bgt	7194 <__aeabi_dmul+0x24c>
    7030:	e3740036 	cmn	r4, #54	; 0x36
    7034:	d3a00000 	movle	r0, #0
    7038:	d2011102 	andle	r1, r1, #-2147483648	; 0x80000000
    703c:	d8bd8070 	pople	{r4, r5, r6, pc}
    7040:	e2644000 	rsb	r4, r4, #0
    7044:	e2544020 	subs	r4, r4, #32
    7048:	aa000018 	bge	70b0 <__aeabi_dmul+0x168>
    704c:	e294400c 	adds	r4, r4, #12
    7050:	ca00000b 	bgt	7084 <__aeabi_dmul+0x13c>
    7054:	e2844014 	add	r4, r4, #20
    7058:	e2645020 	rsb	r5, r4, #32
    705c:	e1a03510 	lsl	r3, r0, r5
    7060:	e1a00430 	lsr	r0, r0, r4
    7064:	e1800511 	orr	r0, r0, r1, lsl r5
    7068:	e2012102 	and	r2, r1, #-2147483648	; 0x80000000
    706c:	e3c11102 	bic	r1, r1, #-2147483648	; 0x80000000
    7070:	e0900fa3 	adds	r0, r0, r3, lsr #31
    7074:	e0a21431 	adc	r1, r2, r1, lsr r4
    7078:	e19ee083 	orrs	lr, lr, r3, lsl #1
    707c:	01c00fa3 	biceq	r0, r0, r3, lsr #31
    7080:	e8bd8070 	pop	{r4, r5, r6, pc}
    7084:	e264400c 	rsb	r4, r4, #12
    7088:	e2645020 	rsb	r5, r4, #32
    708c:	e1a03410 	lsl	r3, r0, r4
    7090:	e1a00530 	lsr	r0, r0, r5
    7094:	e1800411 	orr	r0, r0, r1, lsl r4
    7098:	e2011102 	and	r1, r1, #-2147483648	; 0x80000000
    709c:	e0900fa3 	adds	r0, r0, r3, lsr #31
    70a0:	e2a11000 	adc	r1, r1, #0
    70a4:	e19ee083 	orrs	lr, lr, r3, lsl #1
    70a8:	01c00fa3 	biceq	r0, r0, r3, lsr #31
    70ac:	e8bd8070 	pop	{r4, r5, r6, pc}
    70b0:	e2645020 	rsb	r5, r4, #32
    70b4:	e18ee510 	orr	lr, lr, r0, lsl r5
    70b8:	e1a03430 	lsr	r3, r0, r4
    70bc:	e1833511 	orr	r3, r3, r1, lsl r5
    70c0:	e1a00431 	lsr	r0, r1, r4
    70c4:	e2011102 	and	r1, r1, #-2147483648	; 0x80000000
    70c8:	e1c00431 	bic	r0, r0, r1, lsr r4
    70cc:	e0800fa3 	add	r0, r0, r3, lsr #31
    70d0:	e19ee083 	orrs	lr, lr, r3, lsl #1
    70d4:	01c00fa3 	biceq	r0, r0, r3, lsr #31
    70d8:	e8bd8070 	pop	{r4, r5, r6, pc}
    70dc:	e3340000 	teq	r4, #0
    70e0:	1a000008 	bne	7108 <__aeabi_dmul+0x1c0>
    70e4:	e2016102 	and	r6, r1, #-2147483648	; 0x80000000
    70e8:	e1b00080 	lsls	r0, r0, #1
    70ec:	e0a11001 	adc	r1, r1, r1
    70f0:	e3110601 	tst	r1, #1048576	; 0x100000
    70f4:	02444001 	subeq	r4, r4, #1
    70f8:	0afffffa 	beq	70e8 <__aeabi_dmul+0x1a0>
    70fc:	e1811006 	orr	r1, r1, r6
    7100:	e3350000 	teq	r5, #0
    7104:	112fff1e 	bxne	lr
    7108:	e2036102 	and	r6, r3, #-2147483648	; 0x80000000
    710c:	e1b02082 	lsls	r2, r2, #1
    7110:	e0a33003 	adc	r3, r3, r3
    7114:	e3130601 	tst	r3, #1048576	; 0x100000
    7118:	02455001 	subeq	r5, r5, #1
    711c:	0afffffa 	beq	710c <__aeabi_dmul+0x1c4>
    7120:	e1833006 	orr	r3, r3, r6
    7124:	e12fff1e 	bx	lr
    7128:	e134000c 	teq	r4, ip
    712c:	e00c5a23 	and	r5, ip, r3, lsr #20
    7130:	1135000c 	teqne	r5, ip
    7134:	0a000006 	beq	7154 <__aeabi_dmul+0x20c>
    7138:	e1906081 	orrs	r6, r0, r1, lsl #1
    713c:	11926083 	orrsne	r6, r2, r3, lsl #1
    7140:	1affffe5 	bne	70dc <__aeabi_dmul+0x194>
    7144:	e0211003 	eor	r1, r1, r3
    7148:	e2011102 	and	r1, r1, #-2147483648	; 0x80000000
    714c:	e3a00000 	mov	r0, #0
    7150:	e8bd8070 	pop	{r4, r5, r6, pc}
    7154:	e1906081 	orrs	r6, r0, r1, lsl #1
    7158:	01a00002 	moveq	r0, r2
    715c:	01a01003 	moveq	r1, r3
    7160:	11926083 	orrsne	r6, r2, r3, lsl #1
    7164:	0a00000f 	beq	71a8 <__aeabi_dmul+0x260>
    7168:	e134000c 	teq	r4, ip
    716c:	1a000001 	bne	7178 <__aeabi_dmul+0x230>
    7170:	e1906601 	orrs	r6, r0, r1, lsl #12
    7174:	1a00000b 	bne	71a8 <__aeabi_dmul+0x260>
    7178:	e135000c 	teq	r5, ip
    717c:	1a000003 	bne	7190 <__aeabi_dmul+0x248>
    7180:	e1926603 	orrs	r6, r2, r3, lsl #12
    7184:	11a00002 	movne	r0, r2
    7188:	11a01003 	movne	r1, r3
    718c:	1a000005 	bne	71a8 <__aeabi_dmul+0x260>
    7190:	e0211003 	eor	r1, r1, r3
    7194:	e2011102 	and	r1, r1, #-2147483648	; 0x80000000
    7198:	e381147f 	orr	r1, r1, #2130706432	; 0x7f000000
    719c:	e381160f 	orr	r1, r1, #15728640	; 0xf00000
    71a0:	e3a00000 	mov	r0, #0
    71a4:	e8bd8070 	pop	{r4, r5, r6, pc}
    71a8:	e381147f 	orr	r1, r1, #2130706432	; 0x7f000000
    71ac:	e381173e 	orr	r1, r1, #16252928	; 0xf80000
    71b0:	e8bd8070 	pop	{r4, r5, r6, pc}

000071b4 <__aeabi_ddiv>:
    71b4:	e92d4070 	push	{r4, r5, r6, lr}
    71b8:	e3a0c0ff 	mov	ip, #255	; 0xff
    71bc:	e38ccc07 	orr	ip, ip, #1792	; 0x700
    71c0:	e01c4a21 	ands	r4, ip, r1, lsr #20
    71c4:	101c5a23 	andsne	r5, ip, r3, lsr #20
    71c8:	1134000c 	teqne	r4, ip
    71cc:	1135000c 	teqne	r5, ip
    71d0:	0b00005c 	bleq	7348 <__aeabi_ddiv+0x194>
    71d4:	e0444005 	sub	r4, r4, r5
    71d8:	e021e003 	eor	lr, r1, r3
    71dc:	e1925603 	orrs	r5, r2, r3, lsl #12
    71e0:	e1a01601 	lsl	r1, r1, #12
    71e4:	0a00004b 	beq	7318 <__aeabi_ddiv+0x164>
    71e8:	e1a03603 	lsl	r3, r3, #12
    71ec:	e3a05201 	mov	r5, #268435456	; 0x10000000
    71f0:	e1853223 	orr	r3, r5, r3, lsr #4
    71f4:	e1833c22 	orr	r3, r3, r2, lsr #24
    71f8:	e1a02402 	lsl	r2, r2, #8
    71fc:	e1855221 	orr	r5, r5, r1, lsr #4
    7200:	e1855c20 	orr	r5, r5, r0, lsr #24
    7204:	e1a06400 	lsl	r6, r0, #8
    7208:	e20e1102 	and	r1, lr, #-2147483648	; 0x80000000
    720c:	e1550003 	cmp	r5, r3
    7210:	01560002 	cmpeq	r6, r2
    7214:	e2a440fd 	adc	r4, r4, #253	; 0xfd
    7218:	e2844c03 	add	r4, r4, #768	; 0x300
    721c:	2a000001 	bcs	7228 <__aeabi_ddiv+0x74>
    7220:	e1b030a3 	lsrs	r3, r3, #1
    7224:	e1a02062 	rrx	r2, r2
    7228:	e0566002 	subs	r6, r6, r2
    722c:	e0c55003 	sbc	r5, r5, r3
    7230:	e1b030a3 	lsrs	r3, r3, #1
    7234:	e1a02062 	rrx	r2, r2
    7238:	e3a00601 	mov	r0, #1048576	; 0x100000
    723c:	e3a0c702 	mov	ip, #524288	; 0x80000
    7240:	e056e002 	subs	lr, r6, r2
    7244:	e0d5e003 	sbcs	lr, r5, r3
    7248:	20466002 	subcs	r6, r6, r2
    724c:	21a0500e 	movcs	r5, lr
    7250:	2180000c 	orrcs	r0, r0, ip
    7254:	e1b030a3 	lsrs	r3, r3, #1
    7258:	e1a02062 	rrx	r2, r2
    725c:	e056e002 	subs	lr, r6, r2
    7260:	e0d5e003 	sbcs	lr, r5, r3
    7264:	20466002 	subcs	r6, r6, r2
    7268:	21a0500e 	movcs	r5, lr
    726c:	218000ac 	orrcs	r0, r0, ip, lsr #1
    7270:	e1b030a3 	lsrs	r3, r3, #1
    7274:	e1a02062 	rrx	r2, r2
    7278:	e056e002 	subs	lr, r6, r2
    727c:	e0d5e003 	sbcs	lr, r5, r3
    7280:	20466002 	subcs	r6, r6, r2
    7284:	21a0500e 	movcs	r5, lr
    7288:	2180012c 	orrcs	r0, r0, ip, lsr #2
    728c:	e1b030a3 	lsrs	r3, r3, #1
    7290:	e1a02062 	rrx	r2, r2
    7294:	e056e002 	subs	lr, r6, r2
    7298:	e0d5e003 	sbcs	lr, r5, r3
    729c:	20466002 	subcs	r6, r6, r2
    72a0:	21a0500e 	movcs	r5, lr
    72a4:	218001ac 	orrcs	r0, r0, ip, lsr #3
    72a8:	e195e006 	orrs	lr, r5, r6
    72ac:	0a00000d 	beq	72e8 <__aeabi_ddiv+0x134>
    72b0:	e1a05205 	lsl	r5, r5, #4
    72b4:	e1855e26 	orr	r5, r5, r6, lsr #28
    72b8:	e1a06206 	lsl	r6, r6, #4
    72bc:	e1a03183 	lsl	r3, r3, #3
    72c0:	e1833ea2 	orr	r3, r3, r2, lsr #29
    72c4:	e1a02182 	lsl	r2, r2, #3
    72c8:	e1b0c22c 	lsrs	ip, ip, #4
    72cc:	1affffdb 	bne	7240 <__aeabi_ddiv+0x8c>
    72d0:	e3110601 	tst	r1, #1048576	; 0x100000
    72d4:	1a000006 	bne	72f4 <__aeabi_ddiv+0x140>
    72d8:	e1811000 	orr	r1, r1, r0
    72dc:	e3a00000 	mov	r0, #0
    72e0:	e3a0c102 	mov	ip, #-2147483648	; 0x80000000
    72e4:	eaffffd5 	b	7240 <__aeabi_ddiv+0x8c>
    72e8:	e3110601 	tst	r1, #1048576	; 0x100000
    72ec:	01811000 	orreq	r1, r1, r0
    72f0:	03a00000 	moveq	r0, #0
    72f4:	e254c0fd 	subs	ip, r4, #253	; 0xfd
    72f8:	835c0c07 	cmphi	ip, #1792	; 0x700
    72fc:	8affff4a 	bhi	702c <__aeabi_dmul+0xe4>
    7300:	e055c003 	subs	ip, r5, r3
    7304:	0056c002 	subseq	ip, r6, r2
    7308:	01b0c0a0 	lsrseq	ip, r0, #1
    730c:	e2b00000 	adcs	r0, r0, #0
    7310:	e0a11a04 	adc	r1, r1, r4, lsl #20
    7314:	e8bd8070 	pop	{r4, r5, r6, pc}
    7318:	e20ee102 	and	lr, lr, #-2147483648	; 0x80000000
    731c:	e18e1621 	orr	r1, lr, r1, lsr #12
    7320:	e09440ac 	adds	r4, r4, ip, lsr #1
    7324:	c074500c 	rsbsgt	r5, r4, ip
    7328:	c1811a04 	orrgt	r1, r1, r4, lsl #20
    732c:	c8bd8070 	popgt	{r4, r5, r6, pc}
    7330:	e3811601 	orr	r1, r1, #1048576	; 0x100000
    7334:	e3a0e000 	mov	lr, #0
    7338:	e2544001 	subs	r4, r4, #1
    733c:	eaffff3a 	b	702c <__aeabi_dmul+0xe4>
    7340:	e185e006 	orr	lr, r5, r6
    7344:	eaffff38 	b	702c <__aeabi_dmul+0xe4>
    7348:	e00c5a23 	and	r5, ip, r3, lsr #20
    734c:	e134000c 	teq	r4, ip
    7350:	0135000c 	teqeq	r5, ip
    7354:	0affff93 	beq	71a8 <__aeabi_dmul+0x260>
    7358:	e134000c 	teq	r4, ip
    735c:	1a000006 	bne	737c <__aeabi_ddiv+0x1c8>
    7360:	e1904601 	orrs	r4, r0, r1, lsl #12
    7364:	1affff8f 	bne	71a8 <__aeabi_dmul+0x260>
    7368:	e135000c 	teq	r5, ip
    736c:	1affff87 	bne	7190 <__aeabi_dmul+0x248>
    7370:	e1a00002 	mov	r0, r2
    7374:	e1a01003 	mov	r1, r3
    7378:	eaffff8a 	b	71a8 <__aeabi_dmul+0x260>
    737c:	e135000c 	teq	r5, ip
    7380:	1a000004 	bne	7398 <__aeabi_ddiv+0x1e4>
    7384:	e1925603 	orrs	r5, r2, r3, lsl #12
    7388:	0affff6d 	beq	7144 <__aeabi_dmul+0x1fc>
    738c:	e1a00002 	mov	r0, r2
    7390:	e1a01003 	mov	r1, r3
    7394:	eaffff83 	b	71a8 <__aeabi_dmul+0x260>
    7398:	e1906081 	orrs	r6, r0, r1, lsl #1
    739c:	11926083 	orrsne	r6, r2, r3, lsl #1
    73a0:	1affff4d 	bne	70dc <__aeabi_dmul+0x194>
    73a4:	e1904081 	orrs	r4, r0, r1, lsl #1
    73a8:	1affff78 	bne	7190 <__aeabi_dmul+0x248>
    73ac:	e1925083 	orrs	r5, r2, r3, lsl #1
    73b0:	1affff63 	bne	7144 <__aeabi_dmul+0x1fc>
    73b4:	eaffff7b 	b	71a8 <__aeabi_dmul+0x260>

000073b8 <__gedf2>:
    73b8:	e3e0c000 	mvn	ip, #0
    73bc:	ea000002 	b	73cc <__cmpdf2+0x4>

000073c0 <__ledf2>:
    73c0:	e3a0c001 	mov	ip, #1
    73c4:	ea000000 	b	73cc <__cmpdf2+0x4>

000073c8 <__cmpdf2>:
    73c8:	e3a0c001 	mov	ip, #1
    73cc:	e52dc004 	push	{ip}		; (str ip, [sp, #-4]!)
    73d0:	e1a0c081 	lsl	ip, r1, #1
    73d4:	e1f0cacc 	mvns	ip, ip, asr #21
    73d8:	e1a0c083 	lsl	ip, r3, #1
    73dc:	11f0cacc 	mvnsne	ip, ip, asr #21
    73e0:	0a00000e 	beq	7420 <__cmpdf2+0x58>
    73e4:	e28dd004 	add	sp, sp, #4
    73e8:	e190c081 	orrs	ip, r0, r1, lsl #1
    73ec:	0192c083 	orrseq	ip, r2, r3, lsl #1
    73f0:	11310003 	teqne	r1, r3
    73f4:	01300002 	teqeq	r0, r2
    73f8:	03a00000 	moveq	r0, #0
    73fc:	012fff1e 	bxeq	lr
    7400:	e3700000 	cmn	r0, #0
    7404:	e1310003 	teq	r1, r3
    7408:	51510003 	cmppl	r1, r3
    740c:	01500002 	cmpeq	r0, r2
    7410:	21a00fc3 	asrcs	r0, r3, #31
    7414:	31e00fc3 	mvncc	r0, r3, asr #31
    7418:	e3800001 	orr	r0, r0, #1
    741c:	e12fff1e 	bx	lr
    7420:	e1a0c081 	lsl	ip, r1, #1
    7424:	e1f0cacc 	mvns	ip, ip, asr #21
    7428:	1a000001 	bne	7434 <__cmpdf2+0x6c>
    742c:	e190c601 	orrs	ip, r0, r1, lsl #12
    7430:	1a000004 	bne	7448 <__cmpdf2+0x80>
    7434:	e1a0c083 	lsl	ip, r3, #1
    7438:	e1f0cacc 	mvns	ip, ip, asr #21
    743c:	1affffe8 	bne	73e4 <__cmpdf2+0x1c>
    7440:	e192c603 	orrs	ip, r2, r3, lsl #12
    7444:	0affffe6 	beq	73e4 <__cmpdf2+0x1c>
    7448:	e49d0004 	pop	{r0}		; (ldr r0, [sp], #4)
    744c:	e12fff1e 	bx	lr

00007450 <__aeabi_cdrcmple>:
    7450:	e1a0c000 	mov	ip, r0
    7454:	e1a00002 	mov	r0, r2
    7458:	e1a0200c 	mov	r2, ip
    745c:	e1a0c001 	mov	ip, r1
    7460:	e1a01003 	mov	r1, r3
    7464:	e1a0300c 	mov	r3, ip
    7468:	eaffffff 	b	746c <__aeabi_cdcmpeq>

0000746c <__aeabi_cdcmpeq>:
    746c:	e92d4001 	push	{r0, lr}
    7470:	ebffffd4 	bl	73c8 <__cmpdf2>
    7474:	e3500000 	cmp	r0, #0
    7478:	43700000 	cmnmi	r0, #0
    747c:	e8bd8001 	pop	{r0, pc}

00007480 <__aeabi_dcmpeq>:
    7480:	e52de008 	str	lr, [sp, #-8]!
    7484:	ebfffff8 	bl	746c <__aeabi_cdcmpeq>
    7488:	03a00001 	moveq	r0, #1
    748c:	13a00000 	movne	r0, #0
    7490:	e49df008 	ldr	pc, [sp], #8

00007494 <__aeabi_dcmplt>:
    7494:	e52de008 	str	lr, [sp, #-8]!
    7498:	ebfffff3 	bl	746c <__aeabi_cdcmpeq>
    749c:	33a00001 	movcc	r0, #1
    74a0:	23a00000 	movcs	r0, #0
    74a4:	e49df008 	ldr	pc, [sp], #8

000074a8 <__aeabi_dcmple>:
    74a8:	e52de008 	str	lr, [sp, #-8]!
    74ac:	ebffffee 	bl	746c <__aeabi_cdcmpeq>
    74b0:	93a00001 	movls	r0, #1
    74b4:	83a00000 	movhi	r0, #0
    74b8:	e49df008 	ldr	pc, [sp], #8

000074bc <__aeabi_dcmpge>:
    74bc:	e52de008 	str	lr, [sp, #-8]!
    74c0:	ebffffe2 	bl	7450 <__aeabi_cdrcmple>
    74c4:	93a00001 	movls	r0, #1
    74c8:	83a00000 	movhi	r0, #0
    74cc:	e49df008 	ldr	pc, [sp], #8

000074d0 <__aeabi_dcmpgt>:
    74d0:	e52de008 	str	lr, [sp, #-8]!
    74d4:	ebffffdd 	bl	7450 <__aeabi_cdrcmple>
    74d8:	33a00001 	movcc	r0, #1
    74dc:	23a00000 	movcs	r0, #0
    74e0:	e49df008 	ldr	pc, [sp], #8

000074e4 <__aeabi_d2iz>:
    74e4:	e1a02081 	lsl	r2, r1, #1
    74e8:	e2922602 	adds	r2, r2, #2097152	; 0x200000
    74ec:	2a00000c 	bcs	7524 <__aeabi_d2iz+0x40>
    74f0:	5a000009 	bpl	751c <__aeabi_d2iz+0x38>
    74f4:	e3e03e3e 	mvn	r3, #992	; 0x3e0
    74f8:	e0532ac2 	subs	r2, r3, r2, asr #21
    74fc:	9a00000a 	bls	752c <__aeabi_d2iz+0x48>
    7500:	e1a03581 	lsl	r3, r1, #11
    7504:	e3833102 	orr	r3, r3, #-2147483648	; 0x80000000
    7508:	e1833aa0 	orr	r3, r3, r0, lsr #21
    750c:	e3110102 	tst	r1, #-2147483648	; 0x80000000
    7510:	e1a00233 	lsr	r0, r3, r2
    7514:	12600000 	rsbne	r0, r0, #0
    7518:	e12fff1e 	bx	lr
    751c:	e3a00000 	mov	r0, #0
    7520:	e12fff1e 	bx	lr
    7524:	e1900601 	orrs	r0, r0, r1, lsl #12
    7528:	1a000002 	bne	7538 <__aeabi_d2iz+0x54>
    752c:	e2110102 	ands	r0, r1, #-2147483648	; 0x80000000
    7530:	03e00102 	mvneq	r0, #-2147483648	; 0x80000000
    7534:	e12fff1e 	bx	lr
    7538:	e3a00000 	mov	r0, #0
    753c:	e12fff1e 	bx	lr

00007540 <__aeabi_d2f>:
    7540:	e1a02081 	lsl	r2, r1, #1
    7544:	e2523207 	subs	r3, r2, #1879048192	; 0x70000000
    7548:	2253c602 	subscs	ip, r3, #2097152	; 0x200000
    754c:	227cc57f 	rsbscs	ip, ip, #532676608	; 0x1fc00000
    7550:	9a000006 	bls	7570 <__aeabi_d2f+0x30>
    7554:	e201c102 	and	ip, r1, #-2147483648	; 0x80000000
    7558:	e1a02180 	lsl	r2, r0, #3
    755c:	e18c0ea0 	orr	r0, ip, r0, lsr #29
    7560:	e3520102 	cmp	r2, #-2147483648	; 0x80000000
    7564:	e0a00103 	adc	r0, r0, r3, lsl #2
    7568:	03c00001 	biceq	r0, r0, #1
    756c:	e12fff1e 	bx	lr
    7570:	e3110101 	tst	r1, #1073741824	; 0x40000000
    7574:	1a00000f 	bne	75b8 <__aeabi_d2f+0x78>
    7578:	e293262e 	adds	r2, r3, #48234496	; 0x2e00000
    757c:	b2010102 	andlt	r0, r1, #-2147483648	; 0x80000000
    7580:	b12fff1e 	bxlt	lr
    7584:	e3811601 	orr	r1, r1, #1048576	; 0x100000
    7588:	e1a02aa2 	lsr	r2, r2, #21
    758c:	e2622018 	rsb	r2, r2, #24
    7590:	e262c020 	rsb	ip, r2, #32
    7594:	e1b03c10 	lsls	r3, r0, ip
    7598:	e1a00230 	lsr	r0, r0, r2
    759c:	13800001 	orrne	r0, r0, #1
    75a0:	e1a03581 	lsl	r3, r1, #11
    75a4:	e1a035a3 	lsr	r3, r3, #11
    75a8:	e1800c13 	orr	r0, r0, r3, lsl ip
    75ac:	e1a03233 	lsr	r3, r3, r2
    75b0:	e1a03083 	lsl	r3, r3, #1
    75b4:	eaffffe6 	b	7554 <__aeabi_d2f+0x14>
    75b8:	e1f03ac2 	mvns	r3, r2, asr #21
    75bc:	1a000003 	bne	75d0 <__aeabi_d2f+0x90>
    75c0:	e1903601 	orrs	r3, r0, r1, lsl #12
    75c4:	13a0047f 	movne	r0, #2130706432	; 0x7f000000
    75c8:	13800503 	orrne	r0, r0, #12582912	; 0xc00000
    75cc:	112fff1e 	bxne	lr
    75d0:	e2010102 	and	r0, r1, #-2147483648	; 0x80000000
    75d4:	e380047f 	orr	r0, r0, #2130706432	; 0x7f000000
    75d8:	e3800502 	orr	r0, r0, #8388608	; 0x800000
    75dc:	e12fff1e 	bx	lr

000075e0 <__aeabi_frsub>:
    75e0:	e2200102 	eor	r0, r0, #-2147483648	; 0x80000000
    75e4:	ea000000 	b	75ec <__addsf3>

000075e8 <__aeabi_fsub>:
    75e8:	e2211102 	eor	r1, r1, #-2147483648	; 0x80000000

000075ec <__addsf3>:
    75ec:	e1b02080 	lsls	r2, r0, #1
    75f0:	11b03081 	lslsne	r3, r1, #1
    75f4:	11320003 	teqne	r2, r3
    75f8:	11f0cc42 	mvnsne	ip, r2, asr #24
    75fc:	11f0cc43 	mvnsne	ip, r3, asr #24
    7600:	0a00003c 	beq	76f8 <__addsf3+0x10c>
    7604:	e1a02c22 	lsr	r2, r2, #24
    7608:	e0723c23 	rsbs	r3, r2, r3, lsr #24
    760c:	c0822003 	addgt	r2, r2, r3
    7610:	c0201001 	eorgt	r1, r0, r1
    7614:	c0210000 	eorgt	r0, r1, r0
    7618:	c0201001 	eorgt	r1, r0, r1
    761c:	b2633000 	rsblt	r3, r3, #0
    7620:	e3530019 	cmp	r3, #25
    7624:	812fff1e 	bxhi	lr
    7628:	e3100102 	tst	r0, #-2147483648	; 0x80000000
    762c:	e3800502 	orr	r0, r0, #8388608	; 0x800000
    7630:	e3c004ff 	bic	r0, r0, #-16777216	; 0xff000000
    7634:	12600000 	rsbne	r0, r0, #0
    7638:	e3110102 	tst	r1, #-2147483648	; 0x80000000
    763c:	e3811502 	orr	r1, r1, #8388608	; 0x800000
    7640:	e3c114ff 	bic	r1, r1, #-16777216	; 0xff000000
    7644:	12611000 	rsbne	r1, r1, #0
    7648:	e1320003 	teq	r2, r3
    764c:	0a000023 	beq	76e0 <__addsf3+0xf4>
    7650:	e2422001 	sub	r2, r2, #1
    7654:	e0900351 	adds	r0, r0, r1, asr r3
    7658:	e2633020 	rsb	r3, r3, #32
    765c:	e1a01311 	lsl	r1, r1, r3
    7660:	e2003102 	and	r3, r0, #-2147483648	; 0x80000000
    7664:	5a000001 	bpl	7670 <__addsf3+0x84>
    7668:	e2711000 	rsbs	r1, r1, #0
    766c:	e2e00000 	rsc	r0, r0, #0
    7670:	e3500502 	cmp	r0, #8388608	; 0x800000
    7674:	3a00000b 	bcc	76a8 <__addsf3+0xbc>
    7678:	e3500401 	cmp	r0, #16777216	; 0x1000000
    767c:	3a000004 	bcc	7694 <__addsf3+0xa8>
    7680:	e1b000a0 	lsrs	r0, r0, #1
    7684:	e1a01061 	rrx	r1, r1
    7688:	e2822001 	add	r2, r2, #1
    768c:	e35200fe 	cmp	r2, #254	; 0xfe
    7690:	2a00002d 	bcs	774c <__addsf3+0x160>
    7694:	e3510102 	cmp	r1, #-2147483648	; 0x80000000
    7698:	e0a00b82 	adc	r0, r0, r2, lsl #23
    769c:	03c00001 	biceq	r0, r0, #1
    76a0:	e1800003 	orr	r0, r0, r3
    76a4:	e12fff1e 	bx	lr
    76a8:	e1b01081 	lsls	r1, r1, #1
    76ac:	e0a00000 	adc	r0, r0, r0
    76b0:	e3100502 	tst	r0, #8388608	; 0x800000
    76b4:	e2422001 	sub	r2, r2, #1
    76b8:	1afffff5 	bne	7694 <__addsf3+0xa8>
    76bc:	e16fcf10 	clz	ip, r0
    76c0:	e24cc008 	sub	ip, ip, #8
    76c4:	e052200c 	subs	r2, r2, ip
    76c8:	e1a00c10 	lsl	r0, r0, ip
    76cc:	a0800b82 	addge	r0, r0, r2, lsl #23
    76d0:	b2622000 	rsblt	r2, r2, #0
    76d4:	a1800003 	orrge	r0, r0, r3
    76d8:	b1830230 	orrlt	r0, r3, r0, lsr r2
    76dc:	e12fff1e 	bx	lr
    76e0:	e3320000 	teq	r2, #0
    76e4:	e2211502 	eor	r1, r1, #8388608	; 0x800000
    76e8:	02200502 	eoreq	r0, r0, #8388608	; 0x800000
    76ec:	02822001 	addeq	r2, r2, #1
    76f0:	12433001 	subne	r3, r3, #1
    76f4:	eaffffd5 	b	7650 <__addsf3+0x64>
    76f8:	e1a03081 	lsl	r3, r1, #1
    76fc:	e1f0cc42 	mvns	ip, r2, asr #24
    7700:	11f0cc43 	mvnsne	ip, r3, asr #24
    7704:	0a000013 	beq	7758 <__addsf3+0x16c>
    7708:	e1320003 	teq	r2, r3
    770c:	0a000002 	beq	771c <__addsf3+0x130>
    7710:	e3320000 	teq	r2, #0
    7714:	01a00001 	moveq	r0, r1
    7718:	e12fff1e 	bx	lr
    771c:	e1300001 	teq	r0, r1
    7720:	13a00000 	movne	r0, #0
    7724:	112fff1e 	bxne	lr
    7728:	e31204ff 	tst	r2, #-16777216	; 0xff000000
    772c:	1a000002 	bne	773c <__addsf3+0x150>
    7730:	e1b00080 	lsls	r0, r0, #1
    7734:	23800102 	orrcs	r0, r0, #-2147483648	; 0x80000000
    7738:	e12fff1e 	bx	lr
    773c:	e2922402 	adds	r2, r2, #33554432	; 0x2000000
    7740:	32800502 	addcc	r0, r0, #8388608	; 0x800000
    7744:	312fff1e 	bxcc	lr
    7748:	e2003102 	and	r3, r0, #-2147483648	; 0x80000000
    774c:	e383047f 	orr	r0, r3, #2130706432	; 0x7f000000
    7750:	e3800502 	orr	r0, r0, #8388608	; 0x800000
    7754:	e12fff1e 	bx	lr
    7758:	e1f02c42 	mvns	r2, r2, asr #24
    775c:	11a00001 	movne	r0, r1
    7760:	01f03c43 	mvnseq	r3, r3, asr #24
    7764:	11a01000 	movne	r1, r0
    7768:	e1b02480 	lsls	r2, r0, #9
    776c:	01b03481 	lslseq	r3, r1, #9
    7770:	01300001 	teqeq	r0, r1
    7774:	13800501 	orrne	r0, r0, #4194304	; 0x400000
    7778:	e12fff1e 	bx	lr

0000777c <__aeabi_ui2f>:
    777c:	e3a03000 	mov	r3, #0
    7780:	ea000001 	b	778c <__aeabi_i2f+0x8>

00007784 <__aeabi_i2f>:
    7784:	e2103102 	ands	r3, r0, #-2147483648	; 0x80000000
    7788:	42600000 	rsbmi	r0, r0, #0
    778c:	e1b0c000 	movs	ip, r0
    7790:	012fff1e 	bxeq	lr
    7794:	e383344b 	orr	r3, r3, #1258291200	; 0x4b000000
    7798:	e1a01000 	mov	r1, r0
    779c:	e3a00000 	mov	r0, #0
    77a0:	ea00000f 	b	77e4 <__aeabi_l2f+0x30>

000077a4 <__aeabi_ul2f>:
    77a4:	e1902001 	orrs	r2, r0, r1
    77a8:	012fff1e 	bxeq	lr
    77ac:	e3a03000 	mov	r3, #0
    77b0:	ea000005 	b	77cc <__aeabi_l2f+0x18>

000077b4 <__aeabi_l2f>:
    77b4:	e1902001 	orrs	r2, r0, r1
    77b8:	012fff1e 	bxeq	lr
    77bc:	e2113102 	ands	r3, r1, #-2147483648	; 0x80000000
    77c0:	5a000001 	bpl	77cc <__aeabi_l2f+0x18>
    77c4:	e2700000 	rsbs	r0, r0, #0
    77c8:	e2e11000 	rsc	r1, r1, #0
    77cc:	e1b0c001 	movs	ip, r1
    77d0:	01a0c000 	moveq	ip, r0
    77d4:	01a01000 	moveq	r1, r0
    77d8:	03a00000 	moveq	r0, #0
    77dc:	e383345b 	orr	r3, r3, #1526726656	; 0x5b000000
    77e0:	02433201 	subeq	r3, r3, #268435456	; 0x10000000
    77e4:	e2433502 	sub	r3, r3, #8388608	; 0x800000
    77e8:	e16f2f1c 	clz	r2, ip
    77ec:	e2522008 	subs	r2, r2, #8
    77f0:	e0433b82 	sub	r3, r3, r2, lsl #23
    77f4:	ba000006 	blt	7814 <__aeabi_l2f+0x60>
    77f8:	e0833211 	add	r3, r3, r1, lsl r2
    77fc:	e1a0c210 	lsl	ip, r0, r2
    7800:	e2622020 	rsb	r2, r2, #32
    7804:	e35c0102 	cmp	ip, #-2147483648	; 0x80000000
    7808:	e0a30230 	adc	r0, r3, r0, lsr r2
    780c:	03c00001 	biceq	r0, r0, #1
    7810:	e12fff1e 	bx	lr
    7814:	e2822020 	add	r2, r2, #32
    7818:	e1a0c211 	lsl	ip, r1, r2
    781c:	e2622020 	rsb	r2, r2, #32
    7820:	e190008c 	orrs	r0, r0, ip, lsl #1
    7824:	e0a30231 	adc	r0, r3, r1, lsr r2
    7828:	01c00fac 	biceq	r0, r0, ip, lsr #31
    782c:	e12fff1e 	bx	lr

00007830 <__aeabi_fmul>:
    7830:	e3a0c0ff 	mov	ip, #255	; 0xff
    7834:	e01c2ba0 	ands	r2, ip, r0, lsr #23
    7838:	101c3ba1 	andsne	r3, ip, r1, lsr #23
    783c:	1132000c 	teqne	r2, ip
    7840:	1133000c 	teqne	r3, ip
    7844:	0a00003e 	beq	7944 <__aeabi_fmul+0x114>
    7848:	e0822003 	add	r2, r2, r3
    784c:	e020c001 	eor	ip, r0, r1
    7850:	e1b00480 	lsls	r0, r0, #9
    7854:	11b01481 	lslsne	r1, r1, #9
    7858:	0a000010 	beq	78a0 <__aeabi_fmul+0x70>
    785c:	e3a03302 	mov	r3, #134217728	; 0x8000000
    7860:	e18302a0 	orr	r0, r3, r0, lsr #5
    7864:	e18312a1 	orr	r1, r3, r1, lsr #5
    7868:	e0813190 	umull	r3, r1, r0, r1
    786c:	e20c0102 	and	r0, ip, #-2147483648	; 0x80000000
    7870:	e3510502 	cmp	r1, #8388608	; 0x800000
    7874:	31a01081 	lslcc	r1, r1, #1
    7878:	31811fa3 	orrcc	r1, r1, r3, lsr #31
    787c:	31a03083 	lslcc	r3, r3, #1
    7880:	e1800001 	orr	r0, r0, r1
    7884:	e2c2207f 	sbc	r2, r2, #127	; 0x7f
    7888:	e35200fd 	cmp	r2, #253	; 0xfd
    788c:	8a00000f 	bhi	78d0 <__aeabi_fmul+0xa0>
    7890:	e3530102 	cmp	r3, #-2147483648	; 0x80000000
    7894:	e0a00b82 	adc	r0, r0, r2, lsl #23
    7898:	03c00001 	biceq	r0, r0, #1
    789c:	e12fff1e 	bx	lr
    78a0:	e3300000 	teq	r0, #0
    78a4:	e20cc102 	and	ip, ip, #-2147483648	; 0x80000000
    78a8:	01a01481 	lsleq	r1, r1, #9
    78ac:	e18c04a0 	orr	r0, ip, r0, lsr #9
    78b0:	e18004a1 	orr	r0, r0, r1, lsr #9
    78b4:	e252207f 	subs	r2, r2, #127	; 0x7f
    78b8:	c27230ff 	rsbsgt	r3, r2, #255	; 0xff
    78bc:	c1800b82 	orrgt	r0, r0, r2, lsl #23
    78c0:	c12fff1e 	bxgt	lr
    78c4:	e3800502 	orr	r0, r0, #8388608	; 0x800000
    78c8:	e3a03000 	mov	r3, #0
    78cc:	e2522001 	subs	r2, r2, #1
    78d0:	ca000035 	bgt	79ac <__aeabi_fmul+0x17c>
    78d4:	e3720019 	cmn	r2, #25
    78d8:	d2000102 	andle	r0, r0, #-2147483648	; 0x80000000
    78dc:	d12fff1e 	bxle	lr
    78e0:	e2622000 	rsb	r2, r2, #0
    78e4:	e1b01080 	lsls	r1, r0, #1
    78e8:	e1a01231 	lsr	r1, r1, r2
    78ec:	e2622020 	rsb	r2, r2, #32
    78f0:	e1a0c210 	lsl	ip, r0, r2
    78f4:	e1b00061 	rrxs	r0, r1
    78f8:	e2a00000 	adc	r0, r0, #0
    78fc:	e193308c 	orrs	r3, r3, ip, lsl #1
    7900:	01c00fac 	biceq	r0, r0, ip, lsr #31
    7904:	e12fff1e 	bx	lr
    7908:	e3320000 	teq	r2, #0
    790c:	e200c102 	and	ip, r0, #-2147483648	; 0x80000000
    7910:	01a00080 	lsleq	r0, r0, #1
    7914:	03100502 	tsteq	r0, #8388608	; 0x800000
    7918:	02422001 	subeq	r2, r2, #1
    791c:	0afffffb 	beq	7910 <__aeabi_fmul+0xe0>
    7920:	e180000c 	orr	r0, r0, ip
    7924:	e3330000 	teq	r3, #0
    7928:	e201c102 	and	ip, r1, #-2147483648	; 0x80000000
    792c:	01a01081 	lsleq	r1, r1, #1
    7930:	03110502 	tsteq	r1, #8388608	; 0x800000
    7934:	02433001 	subeq	r3, r3, #1
    7938:	0afffffb 	beq	792c <__aeabi_fmul+0xfc>
    793c:	e181100c 	orr	r1, r1, ip
    7940:	eaffffc0 	b	7848 <__aeabi_fmul+0x18>
    7944:	e00c3ba1 	and	r3, ip, r1, lsr #23
    7948:	e132000c 	teq	r2, ip
    794c:	1133000c 	teqne	r3, ip
    7950:	0a000005 	beq	796c <__aeabi_fmul+0x13c>
    7954:	e3d0c102 	bics	ip, r0, #-2147483648	; 0x80000000
    7958:	13d1c102 	bicsne	ip, r1, #-2147483648	; 0x80000000
    795c:	1affffe9 	bne	7908 <__aeabi_fmul+0xd8>
    7960:	e0200001 	eor	r0, r0, r1
    7964:	e2000102 	and	r0, r0, #-2147483648	; 0x80000000
    7968:	e12fff1e 	bx	lr
    796c:	e3300000 	teq	r0, #0
    7970:	13300102 	teqne	r0, #-2147483648	; 0x80000000
    7974:	01a00001 	moveq	r0, r1
    7978:	13310000 	teqne	r1, #0
    797c:	13310102 	teqne	r1, #-2147483648	; 0x80000000
    7980:	0a00000d 	beq	79bc <__aeabi_fmul+0x18c>
    7984:	e132000c 	teq	r2, ip
    7988:	1a000001 	bne	7994 <__aeabi_fmul+0x164>
    798c:	e1b02480 	lsls	r2, r0, #9
    7990:	1a000009 	bne	79bc <__aeabi_fmul+0x18c>
    7994:	e133000c 	teq	r3, ip
    7998:	1a000002 	bne	79a8 <__aeabi_fmul+0x178>
    799c:	e1b03481 	lsls	r3, r1, #9
    79a0:	11a00001 	movne	r0, r1
    79a4:	1a000004 	bne	79bc <__aeabi_fmul+0x18c>
    79a8:	e0200001 	eor	r0, r0, r1
    79ac:	e2000102 	and	r0, r0, #-2147483648	; 0x80000000
    79b0:	e380047f 	orr	r0, r0, #2130706432	; 0x7f000000
    79b4:	e3800502 	orr	r0, r0, #8388608	; 0x800000
    79b8:	e12fff1e 	bx	lr
    79bc:	e380047f 	orr	r0, r0, #2130706432	; 0x7f000000
    79c0:	e3800503 	orr	r0, r0, #12582912	; 0xc00000
    79c4:	e12fff1e 	bx	lr

000079c8 <__aeabi_fdiv>:
    79c8:	e3a0c0ff 	mov	ip, #255	; 0xff
    79cc:	e01c2ba0 	ands	r2, ip, r0, lsr #23
    79d0:	101c3ba1 	andsne	r3, ip, r1, lsr #23
    79d4:	1132000c 	teqne	r2, ip
    79d8:	1133000c 	teqne	r3, ip
    79dc:	0a00003a 	beq	7acc <__aeabi_fdiv+0x104>
    79e0:	e0422003 	sub	r2, r2, r3
    79e4:	e020c001 	eor	ip, r0, r1
    79e8:	e1b01481 	lsls	r1, r1, #9
    79ec:	e1a00480 	lsl	r0, r0, #9
    79f0:	0a00001c 	beq	7a68 <__aeabi_fdiv+0xa0>
    79f4:	e3a03201 	mov	r3, #268435456	; 0x10000000
    79f8:	e1831221 	orr	r1, r3, r1, lsr #4
    79fc:	e1833220 	orr	r3, r3, r0, lsr #4
    7a00:	e20c0102 	and	r0, ip, #-2147483648	; 0x80000000
    7a04:	e1530001 	cmp	r3, r1
    7a08:	31a03083 	lslcc	r3, r3, #1
    7a0c:	e2a2207d 	adc	r2, r2, #125	; 0x7d
    7a10:	e3a0c502 	mov	ip, #8388608	; 0x800000
    7a14:	e1530001 	cmp	r3, r1
    7a18:	20433001 	subcs	r3, r3, r1
    7a1c:	2180000c 	orrcs	r0, r0, ip
    7a20:	e15300a1 	cmp	r3, r1, lsr #1
    7a24:	204330a1 	subcs	r3, r3, r1, lsr #1
    7a28:	218000ac 	orrcs	r0, r0, ip, lsr #1
    7a2c:	e1530121 	cmp	r3, r1, lsr #2
    7a30:	20433121 	subcs	r3, r3, r1, lsr #2
    7a34:	2180012c 	orrcs	r0, r0, ip, lsr #2
    7a38:	e15301a1 	cmp	r3, r1, lsr #3
    7a3c:	204331a1 	subcs	r3, r3, r1, lsr #3
    7a40:	218001ac 	orrcs	r0, r0, ip, lsr #3
    7a44:	e1b03203 	lsls	r3, r3, #4
    7a48:	11b0c22c 	lsrsne	ip, ip, #4
    7a4c:	1afffff0 	bne	7a14 <__aeabi_fdiv+0x4c>
    7a50:	e35200fd 	cmp	r2, #253	; 0xfd
    7a54:	8affff9d 	bhi	78d0 <__aeabi_fmul+0xa0>
    7a58:	e1530001 	cmp	r3, r1
    7a5c:	e0a00b82 	adc	r0, r0, r2, lsl #23
    7a60:	03c00001 	biceq	r0, r0, #1
    7a64:	e12fff1e 	bx	lr
    7a68:	e20cc102 	and	ip, ip, #-2147483648	; 0x80000000
    7a6c:	e18c04a0 	orr	r0, ip, r0, lsr #9
    7a70:	e292207f 	adds	r2, r2, #127	; 0x7f
    7a74:	c27230ff 	rsbsgt	r3, r2, #255	; 0xff
    7a78:	c1800b82 	orrgt	r0, r0, r2, lsl #23
    7a7c:	c12fff1e 	bxgt	lr
    7a80:	e3800502 	orr	r0, r0, #8388608	; 0x800000
    7a84:	e3a03000 	mov	r3, #0
    7a88:	e2522001 	subs	r2, r2, #1
    7a8c:	eaffff8f 	b	78d0 <__aeabi_fmul+0xa0>
    7a90:	e3320000 	teq	r2, #0
    7a94:	e200c102 	and	ip, r0, #-2147483648	; 0x80000000
    7a98:	01a00080 	lsleq	r0, r0, #1
    7a9c:	03100502 	tsteq	r0, #8388608	; 0x800000
    7aa0:	02422001 	subeq	r2, r2, #1
    7aa4:	0afffffb 	beq	7a98 <__aeabi_fdiv+0xd0>
    7aa8:	e180000c 	orr	r0, r0, ip
    7aac:	e3330000 	teq	r3, #0
    7ab0:	e201c102 	and	ip, r1, #-2147483648	; 0x80000000
    7ab4:	01a01081 	lsleq	r1, r1, #1
    7ab8:	03110502 	tsteq	r1, #8388608	; 0x800000
    7abc:	02433001 	subeq	r3, r3, #1
    7ac0:	0afffffb 	beq	7ab4 <__aeabi_fdiv+0xec>
    7ac4:	e181100c 	orr	r1, r1, ip
    7ac8:	eaffffc4 	b	79e0 <__aeabi_fdiv+0x18>
    7acc:	e00c3ba1 	and	r3, ip, r1, lsr #23
    7ad0:	e132000c 	teq	r2, ip
    7ad4:	1a000005 	bne	7af0 <__aeabi_fdiv+0x128>
    7ad8:	e1b02480 	lsls	r2, r0, #9
    7adc:	1affffb6 	bne	79bc <__aeabi_fmul+0x18c>
    7ae0:	e133000c 	teq	r3, ip
    7ae4:	1affffaf 	bne	79a8 <__aeabi_fmul+0x178>
    7ae8:	e1a00001 	mov	r0, r1
    7aec:	eaffffb2 	b	79bc <__aeabi_fmul+0x18c>
    7af0:	e133000c 	teq	r3, ip
    7af4:	1a000003 	bne	7b08 <__aeabi_fdiv+0x140>
    7af8:	e1b03481 	lsls	r3, r1, #9
    7afc:	0affff97 	beq	7960 <__aeabi_fmul+0x130>
    7b00:	e1a00001 	mov	r0, r1
    7b04:	eaffffac 	b	79bc <__aeabi_fmul+0x18c>
    7b08:	e3d0c102 	bics	ip, r0, #-2147483648	; 0x80000000
    7b0c:	13d1c102 	bicsne	ip, r1, #-2147483648	; 0x80000000
    7b10:	1affffde 	bne	7a90 <__aeabi_fdiv+0xc8>
    7b14:	e3d02102 	bics	r2, r0, #-2147483648	; 0x80000000
    7b18:	1affffa2 	bne	79a8 <__aeabi_fmul+0x178>
    7b1c:	e3d13102 	bics	r3, r1, #-2147483648	; 0x80000000
    7b20:	1affff8e 	bne	7960 <__aeabi_fmul+0x130>
    7b24:	eaffffa4 	b	79bc <__aeabi_fmul+0x18c>

00007b28 <__gesf2>:
    7b28:	e3e0c000 	mvn	ip, #0
    7b2c:	ea000002 	b	7b3c <__cmpsf2+0x4>

00007b30 <__lesf2>:
    7b30:	e3a0c001 	mov	ip, #1
    7b34:	ea000000 	b	7b3c <__cmpsf2+0x4>

00007b38 <__cmpsf2>:
    7b38:	e3a0c001 	mov	ip, #1
    7b3c:	e52dc004 	push	{ip}		; (str ip, [sp, #-4]!)
    7b40:	e1a02080 	lsl	r2, r0, #1
    7b44:	e1a03081 	lsl	r3, r1, #1
    7b48:	e1f0cc42 	mvns	ip, r2, asr #24
    7b4c:	11f0cc43 	mvnsne	ip, r3, asr #24
    7b50:	0a000007 	beq	7b74 <__cmpsf2+0x3c>
    7b54:	e28dd004 	add	sp, sp, #4
    7b58:	e192c0a3 	orrs	ip, r2, r3, lsr #1
    7b5c:	11300001 	teqne	r0, r1
    7b60:	50520003 	subspl	r0, r2, r3
    7b64:	81a00fc1 	asrhi	r0, r1, #31
    7b68:	31e00fc1 	mvncc	r0, r1, asr #31
    7b6c:	13800001 	orrne	r0, r0, #1
    7b70:	e12fff1e 	bx	lr
    7b74:	e1f0cc42 	mvns	ip, r2, asr #24
    7b78:	1a000001 	bne	7b84 <__cmpsf2+0x4c>
    7b7c:	e1b0c480 	lsls	ip, r0, #9
    7b80:	1a000003 	bne	7b94 <__cmpsf2+0x5c>
    7b84:	e1f0cc43 	mvns	ip, r3, asr #24
    7b88:	1afffff1 	bne	7b54 <__cmpsf2+0x1c>
    7b8c:	e1b0c481 	lsls	ip, r1, #9
    7b90:	0affffef 	beq	7b54 <__cmpsf2+0x1c>
    7b94:	e49d0004 	pop	{r0}		; (ldr r0, [sp], #4)
    7b98:	e12fff1e 	bx	lr

00007b9c <__aeabi_cfrcmple>:
    7b9c:	e1a0c000 	mov	ip, r0
    7ba0:	e1a00001 	mov	r0, r1
    7ba4:	e1a0100c 	mov	r1, ip
    7ba8:	eaffffff 	b	7bac <__aeabi_cfcmpeq>

00007bac <__aeabi_cfcmpeq>:
    7bac:	e92d400f 	push	{r0, r1, r2, r3, lr}
    7bb0:	ebffffe0 	bl	7b38 <__cmpsf2>
    7bb4:	e3500000 	cmp	r0, #0
    7bb8:	43700000 	cmnmi	r0, #0
    7bbc:	e8bd800f 	pop	{r0, r1, r2, r3, pc}

00007bc0 <__aeabi_fcmpeq>:
    7bc0:	e52de008 	str	lr, [sp, #-8]!
    7bc4:	ebfffff8 	bl	7bac <__aeabi_cfcmpeq>
    7bc8:	03a00001 	moveq	r0, #1
    7bcc:	13a00000 	movne	r0, #0
    7bd0:	e49df008 	ldr	pc, [sp], #8

00007bd4 <__aeabi_fcmplt>:
    7bd4:	e52de008 	str	lr, [sp, #-8]!
    7bd8:	ebfffff3 	bl	7bac <__aeabi_cfcmpeq>
    7bdc:	33a00001 	movcc	r0, #1
    7be0:	23a00000 	movcs	r0, #0
    7be4:	e49df008 	ldr	pc, [sp], #8

00007be8 <__aeabi_fcmple>:
    7be8:	e52de008 	str	lr, [sp, #-8]!
    7bec:	ebffffee 	bl	7bac <__aeabi_cfcmpeq>
    7bf0:	93a00001 	movls	r0, #1
    7bf4:	83a00000 	movhi	r0, #0
    7bf8:	e49df008 	ldr	pc, [sp], #8

00007bfc <__aeabi_fcmpge>:
    7bfc:	e52de008 	str	lr, [sp, #-8]!
    7c00:	ebffffe5 	bl	7b9c <__aeabi_cfrcmple>
    7c04:	93a00001 	movls	r0, #1
    7c08:	83a00000 	movhi	r0, #0
    7c0c:	e49df008 	ldr	pc, [sp], #8

00007c10 <__aeabi_fcmpgt>:
    7c10:	e52de008 	str	lr, [sp, #-8]!
    7c14:	ebffffe0 	bl	7b9c <__aeabi_cfrcmple>
    7c18:	33a00001 	movcc	r0, #1
    7c1c:	23a00000 	movcs	r0, #0
    7c20:	e49df008 	ldr	pc, [sp], #8

00007c24 <__aeabi_f2iz>:
    7c24:	e1a02080 	lsl	r2, r0, #1
    7c28:	e352047f 	cmp	r2, #2130706432	; 0x7f000000
    7c2c:	3a000008 	bcc	7c54 <__aeabi_f2iz+0x30>
    7c30:	e3a0309e 	mov	r3, #158	; 0x9e
    7c34:	e0532c22 	subs	r2, r3, r2, lsr #24
    7c38:	9a000007 	bls	7c5c <__aeabi_f2iz+0x38>
    7c3c:	e1a03400 	lsl	r3, r0, #8
    7c40:	e3833102 	orr	r3, r3, #-2147483648	; 0x80000000
    7c44:	e3100102 	tst	r0, #-2147483648	; 0x80000000
    7c48:	e1a00233 	lsr	r0, r3, r2
    7c4c:	12600000 	rsbne	r0, r0, #0
    7c50:	e12fff1e 	bx	lr
    7c54:	e3a00000 	mov	r0, #0
    7c58:	e12fff1e 	bx	lr
    7c5c:	e3720061 	cmn	r2, #97	; 0x61
    7c60:	1a000001 	bne	7c6c <__aeabi_f2iz+0x48>
    7c64:	e1b02480 	lsls	r2, r0, #9
    7c68:	1a000002 	bne	7c78 <__aeabi_f2iz+0x54>
    7c6c:	e2100102 	ands	r0, r0, #-2147483648	; 0x80000000
    7c70:	03e00102 	mvneq	r0, #-2147483648	; 0x80000000
    7c74:	e12fff1e 	bx	lr
    7c78:	e3a00000 	mov	r0, #0
    7c7c:	e12fff1e 	bx	lr

00007c80 <__aeabi_idiv0>:
    7c80:	e92d4002 	push	{r1, lr}
    7c84:	e3a00008 	mov	r0, #8
    7c88:	ebfff3e9 	bl	4c34 <raise>
    7c8c:	e8bd8002 	pop	{r1, pc}

00007c90 <__proc_aplx_from_arm>:
    7c90:	e59fc000 	ldr	ip, [pc]	; 7c98 <__proc_aplx_from_arm+0x8>
    7c94:	e12fff1c 	bx	ip
    7c98:	00000241 	.word	0x00000241
    7c9c:	00000000 	.word	0x00000000
    7ca0:	73696854 	.word	0x73696854
    7ca4:	20736920 	.word	0x20736920
    7ca8:	20656874 	.word	0x20656874
    7cac:	7473616d 	.word	0x7473616d
    7cb0:	6e207265 	.word	0x6e207265
    7cb4:	0a65646f 	.word	0x0a65646f
    7cb8:	00000000 	.word	0x00000000
    7cbc:	63286669 	.word	0x63286669
    7cc0:	4965726f 	.word	0x4965726f
    7cc4:	253d3d44 	.word	0x253d3d44
    7cc8:	26262064 	.word	0x26262064
    7ccc:	69686320 	.word	0x69686320
    7cd0:	3d444970 	.word	0x3d444970
    7cd4:	2964253d 	.word	0x2964253d
    7cd8:	00000a7b 	.word	0x00000a7b
    7cdc:	5f772009 	.word	0x5f772009
    7ce0:	20785f56 	.word	0x20785f56
    7ce4:	6425203d 	.word	0x6425203d
    7ce8:	312f302e 	.word	0x312f302e
    7cec:	2e303030 	.word	0x2e303030
    7cf0:	000a3b30 	.word	0x000a3b30
    7cf4:	5f772009 	.word	0x5f772009
    7cf8:	20795f56 	.word	0x20795f56
    7cfc:	6425203d 	.word	0x6425203d
    7d00:	312f302e 	.word	0x312f302e
    7d04:	2e303030 	.word	0x2e303030
    7d08:	000a3b30 	.word	0x000a3b30
    7d0c:	5f772009 	.word	0x5f772009
    7d10:	68745f41 	.word	0x68745f41
    7d14:	20617465 	.word	0x20617465
    7d18:	6425203d 	.word	0x6425203d
    7d1c:	312f302e 	.word	0x312f302e
    7d20:	2e303030 	.word	0x2e303030
    7d24:	000a3b30 	.word	0x000a3b30
    7d28:	5f772009 	.word	0x5f772009
    7d2c:	73705f41 	.word	0x73705f41
    7d30:	203d2069 	.word	0x203d2069
    7d34:	302e6425 	.word	0x302e6425
    7d38:	3030312f 	.word	0x3030312f
    7d3c:	3b302e30 	.word	0x3b302e30
    7d40:	0000000a 	.word	0x0000000a
    7d44:	00000a7d 	.word	0x00000a7d

00007d48 <init_jk>:
    7d48:	00000003 00000004 00000004 00000006     ................

00007d58 <ipio2>:
    7d58:	00a2f983 006e4e44 001529fc 002757d1     ....DNn..)...W'.
    7d68:	00f534dd 00c0db62 0095993c 00439041     .4..b...<...A.C.
    7d78:	00fe5163 00abdebb 00c561b7 00246e3a     cQ.......a..:n$.
    7d88:	00424dd2 00e00649 002eea09 00d1921c     .MB.I...........
    7d98:	00fe1deb 001cb129 00a73ee8 008235f5     ....)....>...5..
    7da8:	002ebb44 0084e99c 007026b4 005f7e41     D........&p.A~_.
    7db8:	003991d6 00398353 0039f49c 00845f8b     ..9.S.9...9.._..
    7dc8:	00bdf928 003b1ff8 0097ffde 0005980f     (.....;.........
    7dd8:	00ef2f11 008b5a0a 006d1f6d 00367ecf     ./...Z..m.m..~6.
    7de8:	0027cb09 00b74f46 003f669e 005fea2d     ..'.FO...f?.-._.
    7df8:	007527ba 00c7ebe5 00f17b3d 000739f7     .'u.....={...9..
    7e08:	008a5292 00ea6bfb 005fb11f 008d5d08     .R...k...._..]..
    7e18:	00560330 0046fc7b 006babf0 00cfbc20     0.V.{.F...k. ...
    7e28:	009af436 001da9e3 0091615e 00e61b08     6.......^a......
    7e38:	00659985 005f14a0 0068408d 00ffd880     ..e..._..@h.....
    7e48:	004d7327 00310606 001556ca 0073a8c9     'sM...1..V....s.
    7e58:	0060e27b 00c08c6b                       {.`.k...

00007e60 <PIo2>:
    7e60:	40000000 3ff921fb 00000000 3e74442d     ...@.!.?....-Dt>
    7e70:	80000000 3cf84698 60000000 3b78cc51     .....F.<...`Q.x;
    7e80:	80000000 39f01b83 40000000 387a2520     .......9...@ %z8
    7e90:	80000000 36e38222 00000000 3569f31d     ...."..6......i5
