
leds.elf:     file format elf32-littlearm

SYMBOL TABLE:
00000000 l    d  APLX	00000000 APLX
00000000 l    d  RO_DATA	00000000 RO_DATA
00400000 l    d  RW_DATA	00000000 RW_DATA
00400028 l    d  ZI_DATA	00000000 ZI_DATA
00000000 l    d  .ARM.attributes	00000000 .ARM.attributes
00000000 l    d  .comment	00000000 .comment
00000000 l    df *ABS*	00000000 sark_init.o
00000001 l       *ABS*	00000000 SARK_API
00000001 l       *ABS*	00000000 GNU
00000012 l       *ABS*	00000000 NUM_CPUS
00000011 l       *ABS*	00000000 MAX_CPU
00000006 l       *ABS*	00000000 NUM_LINKS
00000005 l       *ABS*	00000000 MAX_LINK
00000000 l       *ABS*	00000000 ITCM_BASE
00008000 l       *ABS*	00000000 ITCM_SIZE
00008000 l       *ABS*	00000000 ITCM_TOP
00007fc0 l       *ABS*	00000000 ITCM_TOP_64
00007e00 l       *ABS*	00000000 ITCM_TOP_512
00400000 l       *ABS*	00000000 DTCM_BASE
00010000 l       *ABS*	00000000 DTCM_SIZE
00410000 l       *ABS*	00000000 DTCM_TOP
70000000 l       *ABS*	00000000 SDRAM_BASE
08000000 l       *ABS*	00000000 SDRAM_SIZE
78000000 l       *ABS*	00000000 SDRAM_TOP
f5000000 l       *ABS*	00000000 SYSRAM_BASE
00008000 l       *ABS*	00000000 SYSRAM_SIZE
f5008000 l       *ABS*	00000000 SYSRAM_TOP
f6000000 l       *ABS*	00000000 ROM_BASE
00008000 l       *ABS*	00000000 ROM_SIZE
f6008000 l       *ABS*	00000000 ROM_TOP
10000000 l       *ABS*	00000000 CC_BASE
00000000 l       *ABS*	00000000 CC_TCR
00000004 l       *ABS*	00000000 CC_TXDATA
00000008 l       *ABS*	00000000 CC_TXKEY
0000000c l       *ABS*	00000000 CC_RSR
00000010 l       *ABS*	00000000 CC_RXDATA
00000014 l       *ABS*	00000000 CC_RXKEY
00000018 l       *ABS*	00000000 CC_SAR
0000001c l       *ABS*	00000000 CC_TEST
11000000 l       *ABS*	00000000 TIMER_BASE
00000000 l       *ABS*	00000000 T1_LOAD
00000004 l       *ABS*	00000000 T1_COUNT
00000008 l       *ABS*	00000000 T1_CONTROL
0000000c l       *ABS*	00000000 T1_INT_CLR
00000010 l       *ABS*	00000000 T1_RAW_INT
00000014 l       *ABS*	00000000 T1_MASK_INT
00000018 l       *ABS*	00000000 T1_BG_LOAD
00000020 l       *ABS*	00000000 T2_LOAD
00000024 l       *ABS*	00000000 T2_COUNT
00000028 l       *ABS*	00000000 T2_CONTROL
0000002c l       *ABS*	00000000 T2_INT_CLR
00000030 l       *ABS*	00000000 T2_RAW_INT
00000034 l       *ABS*	00000000 T2_MASK_INT
00000038 l       *ABS*	00000000 T2_BG_LOAD
1f000000 l       *ABS*	00000000 VIC_BASE
00000000 l       *ABS*	00000000 VIC_IRQST
00000004 l       *ABS*	00000000 VIC_FIQST
00000008 l       *ABS*	00000000 VIC_RAW
0000000c l       *ABS*	00000000 VIC_SELECT
00000010 l       *ABS*	00000000 VIC_ENABLE
00000014 l       *ABS*	00000000 VIC_DISABLE
00000018 l       *ABS*	00000000 VIC_SOFT_SET
0000001c l       *ABS*	00000000 VIC_SOFT_CLR
00000020 l       *ABS*	00000000 VIC_PROTECT
00000030 l       *ABS*	00000000 VIC_VADDR
00000034 l       *ABS*	00000000 VIC_DEFADDR
00000100 l       *ABS*	00000000 VIC_ADDR0
00000104 l       *ABS*	00000000 VIC_ADDR1
00000108 l       *ABS*	00000000 VIC_ADDR2
0000010c l       *ABS*	00000000 VIC_ADDR3
00000110 l       *ABS*	00000000 VIC_ADDR4
00000114 l       *ABS*	00000000 VIC_ADDR5
00000118 l       *ABS*	00000000 VIC_ADDR6
0000011c l       *ABS*	00000000 VIC_ADDR7
00000120 l       *ABS*	00000000 VIC_ADDR8
00000124 l       *ABS*	00000000 VIC_ADDR9
00000128 l       *ABS*	00000000 VIC_ADDR10
0000012c l       *ABS*	00000000 VIC_ADDR11
00000130 l       *ABS*	00000000 VIC_ADDR12
00000134 l       *ABS*	00000000 VIC_ADDR13
00000138 l       *ABS*	00000000 VIC_ADDR14
0000013c l       *ABS*	00000000 VIC_ADDR15
00000200 l       *ABS*	00000000 VIC_CNTL0
00000204 l       *ABS*	00000000 VIC_CNTL1
00000208 l       *ABS*	00000000 VIC_CNTL2
0000020c l       *ABS*	00000000 VIC_CNTL3
00000210 l       *ABS*	00000000 VIC_CNTL4
00000214 l       *ABS*	00000000 VIC_CNTL5
00000218 l       *ABS*	00000000 VIC_CNTL6
0000021c l       *ABS*	00000000 VIC_CNTL7
00000220 l       *ABS*	00000000 VIC_CNTL8
00000224 l       *ABS*	00000000 VIC_CNTL9
00000228 l       *ABS*	00000000 VIC_CNTL10
0000022c l       *ABS*	00000000 VIC_CNTL11
00000230 l       *ABS*	00000000 VIC_CNTL12
00000234 l       *ABS*	00000000 VIC_CNTL13
00000238 l       *ABS*	00000000 VIC_CNTL14
0000023c l       *ABS*	00000000 VIC_CNTL15
00000000 l       *ABS*	00000000 WDOG_INT
00000001 l       *ABS*	00000000 SOFTWARE_INT
00000002 l       *ABS*	00000000 COMM_RX_INT
00000003 l       *ABS*	00000000 COMM_TX_INT
00000004 l       *ABS*	00000000 TIMER1_INT
00000005 l       *ABS*	00000000 TIMER2_INT
00000006 l       *ABS*	00000000 CC_RDY_INT
00000007 l       *ABS*	00000000 CC_RPE_INT
00000008 l       *ABS*	00000000 CC_RFE_INT
00000009 l       *ABS*	00000000 CC_TFL_INT
0000000a l       *ABS*	00000000 CC_TOV_INT
0000000b l       *ABS*	00000000 CC_TMT_INT
0000000c l       *ABS*	00000000 DMA_DONE_INT
0000000d l       *ABS*	00000000 DMA_ERR_INT
0000000e l       *ABS*	00000000 DMA_TO_INT
0000000f l       *ABS*	00000000 RTR_DIAG_INT
00000010 l       *ABS*	00000000 RTR_DUMP_INT
00000011 l       *ABS*	00000000 RTR_ERR_INT
00000012 l       *ABS*	00000000 CPU_INT
00000013 l       *ABS*	00000000 ETH_TX_INT
00000014 l       *ABS*	00000000 ETH_RX_INT
00000015 l       *ABS*	00000000 ETH_PHY_INT
00000016 l       *ABS*	00000000 SLOW_CLK_INT
00000017 l       *ABS*	00000000 CC_TNF_INT
00000018 l       *ABS*	00000000 CC_MC_INT
00000019 l       *ABS*	00000000 CC_P2P_INT
0000001a l       *ABS*	00000000 CC_NN_INT
0000001b l       *ABS*	00000000 CC_FR_INT
0000001c l       *ABS*	00000000 EXT0_INT
0000001d l       *ABS*	00000000 EXT1_INT
0000001e l       *ABS*	00000000 EXT2_INT
0000001f l       *ABS*	00000000 EXT3_INT
30000000 l       *ABS*	00000000 DMA_BASE
00000180 l       *ABS*	00000000 DMA_CRCT
00000004 l       *ABS*	00000000 DMA_ADRS
00000008 l       *ABS*	00000000 DMA_ADRT
0000000c l       *ABS*	00000000 DMA_DESC
00000010 l       *ABS*	00000000 DMA_CTRL
00000014 l       *ABS*	00000000 DMA_STAT
00000018 l       *ABS*	00000000 DMA_GCTL
0000001c l       *ABS*	00000000 DMA_CRCC
00000020 l       *ABS*	00000000 DMA_CRCR
00000024 l       *ABS*	00000000 DMA_TMTV
00000028 l       *ABS*	00000000 DMA_SCTL
00000040 l       *ABS*	00000000 DMA_STAT0
00000044 l       *ABS*	00000000 DMA_STAT1
00000048 l       *ABS*	00000000 DMA_STAT2
0000004c l       *ABS*	00000000 DMA_STAT3
00000050 l       *ABS*	00000000 DMA_STAT4
00000054 l       *ABS*	00000000 DMA_STAT5
00000058 l       *ABS*	00000000 DMA_STAT6
0000005c l       *ABS*	00000000 DMA_STAT7
00000104 l       *ABS*	00000000 DMA_AD2S
00000108 l       *ABS*	00000000 DMA_AD2T
0000010c l       *ABS*	00000000 DMA_DES2
f0000000 l       *ABS*	00000000 PL340_BASE
00000000 l       *ABS*	00000000 MC_STAT
00000004 l       *ABS*	00000000 MC_CMD
00000008 l       *ABS*	00000000 MC_DIRC
0000000c l       *ABS*	00000000 MC_MCFG
00000010 l       *ABS*	00000000 MC_REFP
00000014 l       *ABS*	00000000 MC_CASL
00000018 l       *ABS*	00000000 MC_DQSS
0000001c l       *ABS*	00000000 MC_MRD
00000020 l       *ABS*	00000000 MC_RAS
00000024 l       *ABS*	00000000 MC_RC
00000028 l       *ABS*	00000000 MC_RCD
0000002c l       *ABS*	00000000 MC_RFC
00000030 l       *ABS*	00000000 MC_RP
00000034 l       *ABS*	00000000 MC_RRD
00000038 l       *ABS*	00000000 MC_WR
0000003c l       *ABS*	00000000 MC_WTR
00000040 l       *ABS*	00000000 MC_XP
00000044 l       *ABS*	00000000 MC_XSR
00000048 l       *ABS*	00000000 MC_ESR
0000004c l       *ABS*	00000000 MC_MCFG2
00000050 l       *ABS*	00000000 MC_MCFG3
00000100 l       *ABS*	00000000 MC_QOS0
00000104 l       *ABS*	00000000 MC_QOS1
00000108 l       *ABS*	00000000 MC_QOS2
0000010c l       *ABS*	00000000 MC_QOS3
00000110 l       *ABS*	00000000 MC_QOS4
00000114 l       *ABS*	00000000 MC_QOS5
00000118 l       *ABS*	00000000 MC_QOS6
0000011c l       *ABS*	00000000 MC_QOS7
00000120 l       *ABS*	00000000 MC_QOS8
00000124 l       *ABS*	00000000 MC_QOS9
00000128 l       *ABS*	00000000 MC_QOS10
0000012c l       *ABS*	00000000 MC_QOS11
00000130 l       *ABS*	00000000 MC_QOS12
00000134 l       *ABS*	00000000 MC_QOS13
00000138 l       *ABS*	00000000 MC_QOS14
0000013c l       *ABS*	00000000 MC_QOS15
00000200 l       *ABS*	00000000 MC_CCFG0
00000204 l       *ABS*	00000000 MC_CCFG1
00000208 l       *ABS*	00000000 MC_CCFG2
0000020c l       *ABS*	00000000 MC_CCFG3
00000300 l       *ABS*	00000000 DLL_STATUS
00000304 l       *ABS*	00000000 DLL_CONFIG0
00000308 l       *ABS*	00000000 DLL_CONFIG1
f1000000 l       *ABS*	00000000 RTR_BASE
00000000 l       *ABS*	00000000 RTR_CONTROL
00000004 l       *ABS*	00000000 RTR_STATUS
00000008 l       *ABS*	00000000 RTR_EHDR
0000000c l       *ABS*	00000000 RTR_EKEY
00000010 l       *ABS*	00000000 RTR_EDAT
00000014 l       *ABS*	00000000 RTR_ESTAT
00000018 l       *ABS*	00000000 RTR_DHDR
0000001c l       *ABS*	00000000 RTR_DKEY
00000020 l       *ABS*	00000000 RTR_DDAT
00000024 l       *ABS*	00000000 RTR_DLINK
00000028 l       *ABS*	00000000 RTR_DSTAT
0000002c l       *ABS*	00000000 RTR_DGEN
00000200 l       *ABS*	00000000 RTR_DGF0
00000204 l       *ABS*	00000000 RTR_DGF1
00000208 l       *ABS*	00000000 RTR_DGF2
0000020c l       *ABS*	00000000 RTR_DGF3
00000210 l       *ABS*	00000000 RTR_DGF4
00000214 l       *ABS*	00000000 RTR_DGF5
00000218 l       *ABS*	00000000 RTR_DGF6
0000021c l       *ABS*	00000000 RTR_DGF7
00000300 l       *ABS*	00000000 RTR_DGC0
00000304 l       *ABS*	00000000 RTR_DGC1
00000308 l       *ABS*	00000000 RTR_DGC2
0000030c l       *ABS*	00000000 RTR_DGC3
00000310 l       *ABS*	00000000 RTR_DGC4
00000314 l       *ABS*	00000000 RTR_DGC5
00000318 l       *ABS*	00000000 RTR_DGC6
0000031c l       *ABS*	00000000 RTR_DGC7
00000220 l       *ABS*	00000000 RTR_DGF8
00000224 l       *ABS*	00000000 RTR_DGF9
00000228 l       *ABS*	00000000 RTR_DGF10
0000022c l       *ABS*	00000000 RTR_DGF11
00000230 l       *ABS*	00000000 RTR_DGF12
00000234 l       *ABS*	00000000 RTR_DGF13
00000238 l       *ABS*	00000000 RTR_DGF14
0000023c l       *ABS*	00000000 RTR_DGF15
00000320 l       *ABS*	00000000 RTR_DGC8
00000324 l       *ABS*	00000000 RTR_DGC9
00000328 l       *ABS*	00000000 RTR_DGC10
0000032c l       *ABS*	00000000 RTR_DGC11
00000330 l       *ABS*	00000000 RTR_DGC12
00000334 l       *ABS*	00000000 RTR_DGC13
00000338 l       *ABS*	00000000 RTR_DGC14
0000033c l       *ABS*	00000000 RTR_DGC15
00000f00 l       *ABS*	00000000 RTR_TST1
00000f04 l       *ABS*	00000000 RTR_TST2
00002000 l       *ABS*	00000000 P2P_TABLE_SIZE
00000400 l       *ABS*	00000000 MC_TABLE_SIZE
00000018 l       *ABS*	00000000 MC_RAM_WIDTH
00ffffff l       *ABS*	00000000 MC_RAM_MASK
00000008 l       *ABS*	00000000 P2P_EPW
00000003 l       *ABS*	00000000 P2P_LOG_EPW
00000007 l       *ABS*	00000000 P2P_EMASK
00000003 l       *ABS*	00000000 P2P_BPE
00000007 l       *ABS*	00000000 P2P_BMASK
00db6db6 l       *ABS*	00000000 P2P_INIT
f1010000 l       *ABS*	00000000 RTR_P2P_BASE
f1018000 l       *ABS*	00000000 RTR_P2P_TOP
f1004000 l       *ABS*	00000000 RTR_MCRAM_BASE
f1005000 l       *ABS*	00000000 RTR_MCRAM_TOP
f1008000 l       *ABS*	00000000 RTR_MCKEY_BASE
f100c000 l       *ABS*	00000000 RTR_MCMASK_BASE
00000020 l       *ABS*	00000000 MC_CAM_WIDTH
f2000000 l       *ABS*	00000000 SYSCTL_BASE
5ec00000 l       *ABS*	00000000 SC_CODE
59111012 l       *ABS*	00000000 CHIP_ID
00000000 l       *ABS*	00000000 SC_CHIP_ID
00000004 l       *ABS*	00000000 SC_CPU_DIS
00000008 l       *ABS*	00000000 SC_SET_IRQ
0000000c l       *ABS*	00000000 SC_CLR_IRQ
00000010 l       *ABS*	00000000 SC_SET_OK
00000010 l       *ABS*	00000000 SC_CPU_OK
00000014 l       *ABS*	00000000 SC_CLR_OK
00000018 l       *ABS*	00000000 SC_SOFT_RST_L
0000001c l       *ABS*	00000000 SC_HARD_RST_L
00000020 l       *ABS*	00000000 SC_SUBS_RST_L
00000024 l       *ABS*	00000000 SC_SOFT_RST_P
00000028 l       *ABS*	00000000 SC_HARD_RST_P
0000002c l       *ABS*	00000000 SC_SUBS_RST_P
00000030 l       *ABS*	00000000 SC_RST_CODE
00000034 l       *ABS*	00000000 SC_MON_ID
00000038 l       *ABS*	00000000 SC_MISC_CTRL
0000003c l       *ABS*	00000000 GPIO_RES
00000040 l       *ABS*	00000000 GPIO_PORT
00000044 l       *ABS*	00000000 GPIO_DIR
00000048 l       *ABS*	00000000 GPIO_SET
0000004c l       *ABS*	00000000 GPIO_CLR
00000048 l       *ABS*	00000000 GPIO_READ
00000050 l       *ABS*	00000000 SC_PLL1
00000054 l       *ABS*	00000000 SC_PLL2
00000058 l       *ABS*	00000000 SC_FLAG
00000058 l       *ABS*	00000000 SC_SETFLAG
0000005c l       *ABS*	00000000 SC_CLRFLAG
00000060 l       *ABS*	00000000 SC_CLKMUX
00000064 l       *ABS*	00000000 SC_SLEEP
00000068 l       *ABS*	00000000 SC_TS0
0000006c l       *ABS*	00000000 SC_TS1
00000070 l       *ABS*	00000000 SC_TS2
00000080 l       *ABS*	00000000 SC_ARB0
00000100 l       *ABS*	00000000 SC_TAS0
00000180 l       *ABS*	00000000 SC_TAC0
00000200 l       *ABS*	00000000 SC_LINK_DIS
00000000 l       *ABS*	00000000 RST_POR
00000001 l       *ABS*	00000000 RST_WDT
00000002 l       *ABS*	00000000 RST_USER
00000003 l       *ABS*	00000000 RST_SW
00000004 l       *ABS*	00000000 RST_WDI
f3000000 l       *ABS*	00000000 WDOG_BASE
00000000 l       *ABS*	00000000 WD_LOAD
00000004 l       *ABS*	00000000 WD_COUNT
00000008 l       *ABS*	00000000 WD_CTRL
0000000c l       *ABS*	00000000 WD_INTCLR
00000010 l       *ABS*	00000000 WD_RAWINT
00000014 l       *ABS*	00000000 WD_MSKINT
00000c00 l       *ABS*	00000000 WD_LOCK
1acce551 l       *ABS*	00000000 WD_CODE
00000001 l       *ABS*	00000000 WD_INT_B
00000002 l       *ABS*	00000000 WD_RST_B
f4000000 l       *ABS*	00000000 ETH_BASE
f4000000 l       *ABS*	00000000 ETH_TX_BASE
00000600 l       *ABS*	00000000 ETH_TX_SIZE
f4000600 l       *ABS*	00000000 ETH_TX_TOP
f4004000 l       *ABS*	00000000 ETH_RX_BASE
00000c00 l       *ABS*	00000000 ETH_RX_SIZE
f4004c00 l       *ABS*	00000000 ETH_RX_TOP
f4008000 l       *ABS*	00000000 ETH_RX_DESC_RAM
f400c000 l       *ABS*	00000000 ETH_REGS
00000000 l       *ABS*	00000000 ETH_CONTROL
00000004 l       *ABS*	00000000 ETH_STATUS
00000008 l       *ABS*	00000000 ETH_TX_LEN
0000000c l       *ABS*	00000000 ETH_TX_CMD
00000010 l       *ABS*	00000000 ETH_RX_CMD
00000014 l       *ABS*	00000000 ETH_MAC_LO
00000018 l       *ABS*	00000000 ETH_MAC_HI
0000001c l       *ABS*	00000000 ETH_PHY_CTRL
00000020 l       *ABS*	00000000 ETH_INT_CLR
00000024 l       *ABS*	00000000 ETH_RX_BUF_RP
0000002c l       *ABS*	00000000 ETH_RX_DESC_RP
00000001 l       *ABS*	00000000 ETH_TX_CLR
00000010 l       *ABS*	00000000 ETH_RX_CLR
00000001 l       *ABS*	00000000 PHY_CTRL_NRST
00000002 l       *ABS*	00000000 PHY_CTRL_DIN
00000004 l       *ABS*	00000000 PHY_CTRL_DOUT
00000008 l       *ABS*	00000000 PHY_CTRL_OE
00000010 l       *ABS*	00000000 PHY_CTRL_CLK
00000000 l       *ABS*	00000000 PKT_MC
00400000 l       *ABS*	00000000 PKT_P2P
00800000 l       *ABS*	00000000 PKT_NN
00a00000 l       *ABS*	00000000 PKT_NND
00c00000 l       *ABS*	00000000 PKT_FR
00c00000 l       *ABS*	00000000 PKT_MASK
00030000 l       *ABS*	00000000 P2P_TYPE_BITS
00000000 l       *ABS*	00000000 TCR_MC
00400000 l       *ABS*	00000000 TCR_P2P
00800000 l       *ABS*	00000000 TCR_NN
00a00000 l       *ABS*	00000000 TCR_NND
00c00000 l       *ABS*	00000000 TCR_FR
00020000 l       *ABS*	00000000 TCR_PAYLOAD
00020000 l       *ABS*	00000000 RSR_PAYLOAD
00020000 l       *ABS*	00000000 TCR_MC_P
00420000 l       *ABS*	00000000 TCR_P2P_P
00820000 l       *ABS*	00000000 TCR_NN_P
00a20000 l       *ABS*	00000000 TCR_NND_P
00c20000 l       *ABS*	00000000 TCR_FR_P
00000000 l       *ABS*	00000000 PHY_CONTROL
00000001 l       *ABS*	00000000 PHY_STATUS
00000002 l       *ABS*	00000000 PHY_ID1
00000003 l       *ABS*	00000000 PHY_ID2
00000004 l       *ABS*	00000000 PHY_AUTO_ADV
00000005 l       *ABS*	00000000 PHY_AUTO_LPA
00000006 l       *ABS*	00000000 PHY_AUTO_EXP
00000010 l       *ABS*	00000000 PHY_SI_REV
00000011 l       *ABS*	00000000 PHY_MODE_CSR
00000012 l       *ABS*	00000000 PHY_SP_MODE
0000001a l       *ABS*	00000000 PHY_ERR_COUNT
0000001b l       *ABS*	00000000 PHY_SP_CSIR
0000001d l       *ABS*	00000000 PHY_INT_SRC
0000001e l       *ABS*	00000000 PHY_INT_MASK
0000001f l       *ABS*	00000000 PHY_SP_CSR
00000010 l       *ABS*	00000000 MODE_USER
00000011 l       *ABS*	00000000 MODE_FIQ
00000012 l       *ABS*	00000000 MODE_IRQ
00000013 l       *ABS*	00000000 MODE_SVC
00000017 l       *ABS*	00000000 MODE_ABT
0000001b l       *ABS*	00000000 MODE_UND
0000001f l       *ABS*	00000000 MODE_SYS
00000020 l       *ABS*	00000000 THUMB_BIT
00000080 l       *ABS*	00000000 IMASK_IRQ
00000040 l       *ABS*	00000000 IMASK_FIQ
000000c0 l       *ABS*	00000000 IMASK_ALL
00410000 l       *ABS*	00000000 IRQ_STACK
00000100 l       *ABS*	00000000 IRQ_SIZE
0040ff00 l       *ABS*	00000000 FIQ_STACK
00000100 l       *ABS*	00000000 FIQ_SIZE
0040fe00 l       *ABS*	00000000 SVC_STACK
00000014 l       *ABS*	00000000 MAX_CPUS
00000100 l       *ABS*	00000000 BUF_SIZE
00000000 l       *ABS*	00000000 NULL
00000000 l       *ABS*	00000000 MONITOR_CPU
ffff4000 l       *ABS*	00000000 ROM_IMAGE1
80000000 l       *ABS*	00000000 BIT_31
40000000 l       *ABS*	00000000 BIT_30
20000000 l       *ABS*	00000000 BIT_29
00000001 l       *ABS*	00000000 BIT_0
deaddead l       *ABS*	00000000 DEAD_WORD
00000000 l       *ABS*	00000000 SW_UNKNOWN
00000001 l       *ABS*	00000000 SW_SCAMP
ffffffff l       *ABS*	00000000 APLX_END
00000001 l       *ABS*	00000000 APLX_ACOPY
00000002 l       *ABS*	00000000 APLX_RCOPY
00000003 l       *ABS*	00000000 APLX_FILL
00000004 l       *ABS*	00000000 APLX_EXEC
00000010 l       *ABS*	00000000 APLX_SIZE
00000000 l       *ABS*	00000000 P2P_TYPE_SDP
01000000 l       *ABS*	00000000 P2P_CTRL
09000000 l       *ABS*	00000000 P2P_OPEN_REQ
01000000 l       *ABS*	00000000 P2P_OPEN_ACK
03000000 l       *ABS*	00000000 P2P_DATA_ACK
05000000 l       *ABS*	00000000 P2P_CLOSE_REQ
07000000 l       *ABS*	00000000 P2P_CLOSE_ACK
00000004 l       *ABS*	00000000 P2P_DEF_SQL
00000000 l       *ABS*	00000000 CMD_VER
00000001 l       *ABS*	00000000 CMD_RUN
00000002 l       *ABS*	00000000 CMD_READ
00000003 l       *ABS*	00000000 CMD_WRITE
00000004 l       *ABS*	00000000 CMD_APLX
0000000f l       *ABS*	00000000 CMD_AP_MAX
00000010 l       *ABS*	00000000 CMD_LINK_PROBE
00000011 l       *ABS*	00000000 CMD_LINK_READ
00000012 l       *ABS*	00000000 CMD_LINK_WRITE
00000013 l       *ABS*	00000000 CMD_xxx_19
00000014 l       *ABS*	00000000 CMD_NNP
00000015 l       *ABS*	00000000 CMD_P2PC
00000016 l       *ABS*	00000000 CMD_PING
00000017 l       *ABS*	00000000 CMD_FFD
00000018 l       *ABS*	00000000 CMD_AS
00000019 l       *ABS*	00000000 CMD_LED
0000001a l       *ABS*	00000000 CMD_IPTAG
0000001b l       *ABS*	00000000 CMD_SROM
00000040 l       *ABS*	00000000 CMD_TUBE
00000080 l       *ABS*	00000000 RC_OK
00000081 l       *ABS*	00000000 RC_LEN
00000082 l       *ABS*	00000000 RC_SUM
00000083 l       *ABS*	00000000 RC_CMD
00000084 l       *ABS*	00000000 RC_ARG
00000085 l       *ABS*	00000000 RC_PORT
00000086 l       *ABS*	00000000 RC_TIMEOUT
00000087 l       *ABS*	00000000 RC_ROUTE
00000088 l       *ABS*	00000000 RC_CPU
00000089 l       *ABS*	00000000 RC_DEAD
0000008a l       *ABS*	00000000 RC_BUF
0000008b l       *ABS*	00000000 RC_P2P_NOREPLY
0000008c l       *ABS*	00000000 RC_P2P_REJECT
0000008d l       *ABS*	00000000 RC_P2P_BUSY
0000008e l       *ABS*	00000000 RC_P2P_TIMEOUT
0000008f l       *ABS*	00000000 RC_PKT_TX
00000000 l       *ABS*	00000000 TYPE_BYTE
00000001 l       *ABS*	00000000 TYPE_HALF
00000002 l       *ABS*	00000000 TYPE_WORD
00000000 l       *ABS*	00000000 IPTAG_NEW
00000001 l       *ABS*	00000000 IPTAG_SET
00000002 l       *ABS*	00000000 IPTAG_GET
00000003 l       *ABS*	00000000 IPTAG_CLR
00000004 l       *ABS*	00000000 IPTAG_AUTO
00000004 l       *ABS*	00000000 IPTAG_MAX
00008000 l       *ABS*	00000000 IPTAG_VALID
00004000 l       *ABS*	00000000 IPTAG_TRANS
00002000 l       *ABS*	00000000 IPTAG_ARP
000000ff l       *ABS*	00000000 TAG_NONE
00000000 l       *ABS*	00000000 TAG_HOST
00000080 l       *ABS*	00000000 SDPF_REPLY
00000040 l       *ABS*	00000000 SDPF_xxx_40
00000020 l       *ABS*	00000000 SDPF_SUM
00000010 l       *ABS*	00000000 SDPF_DP2P
00000008 l       *ABS*	00000000 SDPF_DLINK
00000007 l       *ABS*	00000000 SDPF_LMASK
00000000 l       *ABS*	00000000 LOCK_MSG
00000001 l       *ABS*	00000000 LOCK_MBOX
00000002 l       *ABS*	00000000 LOCK_ETHER
00000003 l       *ABS*	00000000 LOCK_GPIO
00000004 l       *ABS*	00000000 LOCK_API_ROOT
00000000 l       *ABS*	00000000 NN_CMD_SIG0
00000001 l       *ABS*	00000000 NN_CMD_RTRC
00000002 l       *ABS*	00000000 NN_CMD_LTPC
00000003 l       *ABS*	00000000 NN_CMD_SP_3
00000004 l       *ABS*	00000000 NN_CMD_SIG1
00000005 l       *ABS*	00000000 NN_CMD_P2PC
00000006 l       *ABS*	00000000 NN_CMD_FFS
00000007 l       *ABS*	00000000 NN_CMD_SP_7
00000008 l       *ABS*	00000000 NN_CMD_PING
00000009 l       *ABS*	00000000 NN_CMD_P2PB
0000000a l       *ABS*	00000000 NN_CMD_SDP
0000000b l       *ABS*	00000000 NN_CMD_SP_11
0000000c l       *ABS*	00000000 NN_CMD_FBS
0000000d l       *ABS*	00000000 NN_CMD_FBD
0000000e l       *ABS*	00000000 NN_CMD_FBE
0000000f l       *ABS*	00000000 NN_CMD_FFE
5a000000 l       *ABS*	00000000 NN_SDP_KEY
0000000a l       *ABS*	00000000 CLK_XTAL_MHZ
0007011e l       *ABS*	00000000 PLL_300
00070128 l       *ABS*	00000000 PLL_400
0007011a l       *ABS*	00000000 PLL_260
00070121 l       *ABS*	00000000 PLL_330
00000050 l       *ABS*	00000000 PLL_LOCK_TIME
809488a5 l       *ABS*	00000000 PLL_CLK_SEL
00000004 l       *ABS*	00000000 SERIAL_SO
00000008 l       *ABS*	00000000 SERIAL_SI
00000010 l       *ABS*	00000000 SERIAL_CLK
00000020 l       *ABS*	00000000 SERIAL_NCS
00000038 l       *ABS*	00000000 SERIAL_OE
0000003f l       *ABS*	00000000 GPIO_HW_VER
00000000 l       *ABS*	00000000 HW_VER_S2
00000008 l       *ABS*	00000000 HW_VER_S3
00000001 l       *ABS*	00000000 LED_0
80000000 l       *ABS*	00000000 SDRAM_TQ
40000000 l       *ABS*	00000000 SDRAM_DPD
20000000 l       *ABS*	00000000 SDRAM_HERE
00000001 l       *ABS*	00000000 SER_OUT_0
00000002 l       *ABS*	00000000 SER_OUT_1
00000003 l       *ABS*	00000000 SER_OUT
00000040 l       *ABS*	00000000 SER_IN_0
00000080 l       *ABS*	00000000 SER_IN_1
000000c0 l       *ABS*	00000000 SER_IN
000000c0 l       *ABS*	00000000 FAIL_RESET
000000c1 l       *ABS*	00000000 FAIL_ROMX
000000c2 l       *ABS*	00000000 FAIL_ITCM0
000000c3 l       *ABS*	00000000 FAIL_ITCM1
000000c4 l       *ABS*	00000000 FAIL_DTCM
000000c5 l       *ABS*	00000000 FAIL_TIMER
000000c6 l       *ABS*	00000000 FAIL_VIC
000000c7 l       *ABS*	00000000 FAIL_CC
000000c8 l       *ABS*	00000000 FAIL_DMA
000000c9 l       *ABS*	00000000 FAIL_MP
000000ca l       *ABS*	00000000 FAIL_LATE
000000cb l       *ABS*	00000000 FAIL_MANUF
000000cc l       *ABS*	00000000 FAIL_SLEEP
000000cf l       *ABS*	00000000 FAIL_TLM
000000a0 l       *ABS*	00000000 FAIL_VEC
00000020 l       *ABS*	00000000 SV_SSIZE
00000060 l       *ABS*	00000000 SV_USIZE
00000080 l       *ABS*	00000000 SV_ISIZE
00000020 l       *ABS*	00000000 SV_VSIZE
00000040 l       *ABS*	00000000 SV_PSIZE
00000040 l       *ABS*	00000000 SV_RSIZE
000000a0 l       *ABS*	00000000 SV_MSIZE
000000a0 l       *ABS*	00000000 SV_ASIZE
f5007fe0 l       *ABS*	00000000 SV_SBASE
f5007f80 l       *ABS*	00000000 SV_UBASE
f5007f00 l       *ABS*	00000000 SV_IBASE
f5007f00 l       *ABS*	00000000 SV_BASE
f5007ee0 l       *ABS*	00000000 SV_VBASE
f5007ec0 l       *ABS*	00000000 SV_PBASE
f5007e80 l       *ABS*	00000000 SV_RBASE
f5007de0 l       *ABS*	00000000 SV_ABASE
f5007d40 l       *ABS*	00000000 SV_MBASE
f5007fe0 l       *ABS*	00000000 SROM_FLAG_BASE
f5007f80 l       *ABS*	00000000 STATUS_MAP_BASE
f5007ee0 l       *ABS*	00000000 RST_BLOCK_BASE
00008000 l       *ABS*	00000000 SRF_PRESENT
000000f0 l       *ABS*	00000000 SRF_HW_VER
00000008 l       *ABS*	00000000 SRF_PHY_INIT
00000004 l       *ABS*	00000000 SRF_PHY_RST
00000002 l       *ABS*	00000000 SRF_HI_LED
00000001 l       *ABS*	00000000 SRF_ETH
00000000 l       *ABS*	00000000 SRF_NONE
00000010 l       *ABS*	00000000 RTE_RESET
00000011 l       *ABS*	00000000 RTE_UNDEF
00000012 l       *ABS*	00000000 RTE_SVC
00000013 l       *ABS*	00000000 RTE_PABT
00000014 l       *ABS*	00000000 RTE_DABT
00000015 l       *ABS*	00000000 RTE_ADDR
00000016 l       *ABS*	00000000 RTE_IRQ
00000017 l       *ABS*	00000000 RTE_FIQ
00000000 l       APLX	00000000 aplx_table
00000020 l       RO_DATA	00000000 reset_vec
00000024 l       RO_DATA	00000000 undef_vec
00000028 l       RO_DATA	00000000 svc_vec
0000002c l       RO_DATA	00000000 pabt_vec
00000030 l       RO_DATA	00000000 dabt_vec
00000034 l       RO_DATA	00000000 addr_vec
0000003c l       RO_DATA	00000000 fiq_vec
00000040 l       RO_DATA	00000000 reset_han
00000088 l       RO_DATA	00000000 undef_err
000000c0 l       RO_DATA	00000000 svc_han
00000098 l       RO_DATA	00000000 pabt_err
000000a0 l       RO_DATA	00000000 dabt_err
000000a8 l       RO_DATA	00000000 addr_err
00000038 l       RO_DATA	00000000 irq_vec
000000b0 l       RO_DATA	00000000 irq_err
000000b8 l       RO_DATA	00000000 fiq_err
00001000 l       *ABS*	00000000 RTS_STACK
0040f000 l       *ABS*	00000000 C_STACK
00000080 l       RO_DATA	00000000 reset_err
00000090 l       RO_DATA	00000000 svc_err
000000e4 l       RO_DATA	00000000 svc_tube
000000e8 l       RO_DATA	00000000 svc_exit
00000184 l       RO_DATA	00000000 wc2
0000016c l       RO_DATA	00000000 wc1
00000260 l       RO_DATA	00000000 aplx_loader
00000248 l       RO_DATA	00000000 ap0
00000278 l       RO_DATA	00000000 aplx_copy
00000274 l       RO_DATA	00000000 aplx_rcopy
00000286 l       RO_DATA	00000000 aplx_fill
00000296 l       RO_DATA	00000000 aplx_exec
0000028c l       RO_DATA	00000000 ap1
00000000 l    df *ABS*	00000000 sark.c
000002b0 l     F RO_DATA	0000004c shm_msg_free
004002c0 l     O ZI_DATA	00000004 msg_root
004002c4 l     O ZI_DATA	00000004 msg_count
004002c8 l     O ZI_DATA	00000004 msg_max
004002cc l     O ZI_DATA	00000490 msg_bufs
0040075c l     O ZI_DATA	00000004 tube_msg
00000000 l    df *ABS*	00000000 spin1_isr.c
00400010 l     O RW_DATA	00000004 prng_seed
00400760 l     O ZI_DATA	00000004 prng_seed_ext
00000000 l    df *ABS*	00000000 spin1_api.c
00000f28 l     F RO_DATA	0000023c barrier_setup
00400014 l     O RW_DATA	00000004 nchips
0040001c l     O RW_DATA	00000004 ncores
00400020 l     O RW_DATA	00000004 dma_id
00400024 l     O RW_DATA	00000004 current_addr
00400764 l     O ZI_DATA	00000001 rootChip
00400766 l     O ZI_DATA	00000002 rootAddr
00400768 l     O ZI_DATA	00000004 my_chip
0040076c l     O ZI_DATA	00000004 my_ncores
00400774 l     O ZI_DATA	00000004 timer_tick
00400778 l     O ZI_DATA	00000004 warnings
0040077c l     O ZI_DATA	00000004 fullq
00400780 l     O ZI_DATA	00000004 dfull
00400784 l     O ZI_DATA	00000004 pfull
0040078c l     O ZI_DATA	00000004 run
00400790 l     O ZI_DATA	00000320 task_queue
00000000 l    df *ABS*	00000000 spinn_io.c
00002f20 l     O RO_DATA	00000011 hex
00400abc l     O ZI_DATA	00000004 sp_ptr
00000000 l    df *ABS*	00000000 
00000000 l    df *ABS*	00000000 leds.c
00000000 l    df *ABS*	00000000 
00003070 l     F RO_DATA	0000000c __proc_aplx_from_arm
00001828 g     F RO_DATA	00000650 spin1_start
00002f70 g     F RO_DATA	00000034 send_angles
00400ab0 g     O ZI_DATA	00000004 barrier_rdygo
00400028 g     O ZI_DATA	00000004 barrier_rdy1_cnt
00001f04 g     F RO_DATA	00000010 spin1_get_core_id
00000040 g       *ABS*	00000000 RO_FROM
00000240 g     F RO_DATA	00000000 proc_aplx
00000380 g     F RO_DATA	00000034 spin1_msg_free
00001164 g     F RO_DATA	00000078 spin1_callback_on
000021e4 g     F RO_DATA	00000050 spin1_trigger_user_event
00002cd4 g     O RO_DATA	00000008 S3_LEDS
0040002c g     O ZI_DATA	00000004 barrier_rdy2_cnt
00001618 g     F RO_DATA	00000020 spin1_memcpy
00002cdc g     O RO_DATA	00000008 S2_LEDS
000013e4 g     F RO_DATA	00000088 clean_up
00000be8 g     F RO_DATA	00000024 dma_error_isr
00000cb4 g     F RO_DATA	00000060 timer1_isr
00001330 g     F RO_DATA	000000b4 spin1_application_core_map
00000d14 g     F RO_DATA	00000068 soft_int_isr
000016c0 g     F RO_DATA	00000168 spin1_send_mc_packet
00000ee8 g     F RO_DATA	00000040 spin1_rand
00002fb4 g     F RO_DATA	000000bc c_main
00000140 g     F RO_DATA	00000000 bx
00002234 g     F RO_DATA	00000244 rts_init
000027e8 g     F RO_DATA	000000d8 io_put_hex
00001ea8 g     F RO_DATA	00000010 irq_enable
000003b4 g     F RO_DATA	000000fc sark_setup
00001ea0 g     F RO_DATA	00000008 spin1_mode_restore
00001e90 g     F RO_DATA	00000010 spin1_irq_disable
00002150 g     F RO_DATA	00000094 spin1_schedule_callback
00000da4 g     F RO_DATA	00000090 dma_done_fiqsr
0000122c g     F RO_DATA	00000104 spin1_set_core_map
00400000 g       *ABS*	00000000 RW_TO
00400030 g     O ZI_DATA	00000004 def_fiq_isr
00400034 g     O ZI_DATA	0000002c diagnostics
000002fc g     F RO_DATA	00000030 sark_error
00400ac0 g       ZI_DATA	00000000 HEAP_BASE
0000020c g     F RO_DATA	00000000 svc_put_char
000028c0 g     F RO_DATA	00000190 io_put_fixed
00400060 g     O ZI_DATA	00000004 phys_cpu
004002b0 g     O ZI_DATA	00000004 phi
00001e78 g     F RO_DATA	00000018 send_mc_packet_fulfil
00400064 g     O ZI_DATA	00000004 user_arg1
00000214 g     F RO_DATA	00000000 schedule
00001eb8 g     F RO_DATA	00000008 wait_for_irq
00400068 g     O ZI_DATA	00000004 virt_cpu
00002478 g     F RO_DATA	0000006c rts_cleanup
00000b44 g     F RO_DATA	000000a4 cc_tx_empty_isr
00000a54 g     F RO_DATA	000000c8 barrier_packet_handler
00002f38 g     F RO_DATA	00000038 process_mc_packet
00000d7c g     F RO_DATA	00000028 cc_rx_ready_fiqsr
00400ab4 g     O ZI_DATA	00000004 barrier_go
00001f14 g     F RO_DATA	00000014 spin1_get_chip_id
004002b4 g     O ZI_DATA	00000004 theta
00400ab8 g     O ZI_DATA	00000001 user_pending
0000169c g     F RO_DATA	00000024 spin1_flush_tx_packet_queue
00002030 g     F RO_DATA	00000038 spin1_kill
0000120c g     F RO_DATA	00000010 spin1_get_simulation_time
0000313c g       *ABS*	00000000 RW_FROM
000004b0 g     F RO_DATA	0000015c spin1_send_sdp_msg
000025b4 g     F RO_DATA	00000108 io_put_int
00001ee0 g     F RO_DATA	00000024 spin1_get_id
00400000 g       *ABS*	00000000 DTCM_BASE
00002530 g     F RO_DATA	00000084 io_put_str
00400788 g     O ZI_DATA	00000004 exit_val
00001ec0 g     F RO_DATA	00000010 spin1_fiq_disable
0000151c g     F RO_DATA	00000028 spin1_delay_us
000000f8 g       RO_DATA	00000000 cpu_int
000026bc g     F RO_DATA	000000e4 io_put_uint
00000028 g       *ABS*	00000000 RW_LENGTH
00000e78 g     F RO_DATA	00000050 soft_int_fiqsr
00400018 g     O RW_DATA	00000004 fiq_event
0040006c g     O ZI_DATA	00000001 leadAp
000001c0 g     F RO_DATA	00000000 snooze
0000121c g     F RO_DATA	00000010 spin1_set_timer_tick
00000b1c g     F RO_DATA	00000028 cc_rx_error_isr
00002fa4 g     F RO_DATA	00000010 reset_leds
00400070 g     O ZI_DATA	00000004 thrown
00000a14 g     F RO_DATA	00000040 cc_rx_ready_isr
00002068 g     F RO_DATA	00000038 spin1_malloc
000001c8 g     F RO_DATA	00000000 str_cpy
00400000 g     O RW_DATA	00000010 core_map
0000146c g     F RO_DATA	00000004 report_debug
00001f28 g     F RO_DATA	0000008c spin1_set_mc_table_entry
00000000 g       *ABS*	00000000 RO_TO
00400028 g       *ABS*	00000000 ZI_TO
00002a50 g     F RO_DATA	00000274 io_printf
00400074 g     O ZI_DATA	00000148 dma_queue
000014f4 g     F RO_DATA	00000028 spin1_stop
004002b8 g     O ZI_DATA	00000004 coreID
00001470 g     F RO_DATA	00000084 report_warns
00000c0c g     F RO_DATA	000000a8 dma_done_isr
00400770 g     O ZI_DATA	00000004 ticks
00001544 g     F RO_DATA	000000d4 spin1_dma_transfer
000020a0 g     F RO_DATA	000000b0 schedule_sysmode
000027a0 g     F RO_DATA	00000048 io_put_zhex
00000ec8 g     F RO_DATA	00000020 spin1_srand
00000154 g     F RO_DATA	00000000 word_cpy
004002bc g     O ZI_DATA	00000004 chipID
000011dc g     F RO_DATA	00000030 spin1_callback_off
00000e34 g     F RO_DATA	00000044 timer1_fiqsr
0000032c g     F RO_DATA	00000054 spin1_msg_get
004001bc g     O ZI_DATA	00000004 user_arg0
000001a8 g     F RO_DATA	00000000 cpu_int_off
00001638 g     F RO_DATA	00000064 spin1_flush_rx_packet_queue
00000000 g       *ABS*	00000000 ITCM_BASE
0000060c g     F RO_DATA	0000005c svc_putc
004001c0 g     O ZI_DATA	00000028 callback
00001fb4 g     F RO_DATA	0000007c spin1_led_control
000001b8 g     F RO_DATA	00000000 cpu_mode_set
000000f4 g       RO_DATA	00000000 null_int
000024e4 g     F RO_DATA	0000004c io_put_char
000001dc g     F RO_DATA	00000000 div10
00001ed0 g     F RO_DATA	00000010 spin1_int_disable
0000310c g       *ABS*	00000000 RO_LENGTH
00000a98 g       *ABS*	00000000 ZI_LENGTH
00000668 g     F RO_DATA	000003ac cpu_int_c
00000144 g     F RO_DATA	00000000 copy_msg
004001e8 g     O ZI_DATA	000000c8 tx_packet_queue



Disassembly of section APLX:

00000000 <aplx_table>:
   0:	00000002 	.word	0x00000002
   4:	00000000 	.word	0x00000000
   8:	00000040 	.word	0x00000040
   c:	0000310c 	.word	0x0000310c
  10:	00000002 	.word	0x00000002
  14:	00400000 	.word	0x00400000
  18:	0000313c 	.word	0x0000313c
  1c:	00000028 	.word	0x00000028
  20:	00000003 	.word	0x00000003
  24:	00400028 	.word	0x00400028
  28:	00000a98 	.word	0x00000a98
  2c:	00000000 	.word	0x00000000
  30:	00000004 	.word	0x00000004
	...

Disassembly of section RO_DATA:

00000000 <reset_vec-0x20>:
       0:	e59ff018 	ldr	pc, [pc, #24]	; 20 <reset_vec>
       4:	e59ff018 	ldr	pc, [pc, #24]	; 24 <undef_vec>
       8:	e59ff018 	ldr	pc, [pc, #24]	; 28 <svc_vec>
       c:	e59ff018 	ldr	pc, [pc, #24]	; 2c <pabt_vec>
      10:	e59ff018 	ldr	pc, [pc, #24]	; 30 <dabt_vec>
      14:	e59ff018 	ldr	pc, [pc, #24]	; 34 <addr_vec>
      18:	e51ffff0 	ldr	pc, [pc, #-4080]	; fffff030 <ROM_IMAGE1+0xb030>
      1c:	e59ff018 	ldr	pc, [pc, #24]	; 3c <fiq_vec>

00000020 <reset_vec>:
      20:	00000040 	.word	0x00000040

00000024 <undef_vec>:
      24:	00000088 	.word	0x00000088

00000028 <svc_vec>:
      28:	000000c0 	.word	0x000000c0

0000002c <pabt_vec>:
      2c:	00000098 	.word	0x00000098

00000030 <dabt_vec>:
      30:	000000a0 	.word	0x000000a0

00000034 <addr_vec>:
      34:	000000a8 	.word	0x000000a8

00000038 <irq_vec>:
      38:	000000b0 	.word	0x000000b0

0000003c <fiq_vec>:
      3c:	000000b8 	.word	0x000000b8

00000040 <reset_han>:
      40:	e321f0d2 	msr	CPSR_c, #210	; 0xd2
      44:	e3a0d841 	mov	sp, #4259840	; 0x410000
      48:	e321f0d1 	msr	CPSR_c, #209	; 0xd1
      4c:	e59fd0dc 	ldr	sp, [pc, #220]	; 130 <MC_QOS12>
      50:	e321f0d3 	msr	CPSR_c, #211	; 0xd3
      54:	e59fd0d8 	ldr	sp, [pc, #216]	; 134 <MC_QOS13>
      58:	e321f0df 	msr	CPSR_c, #223	; 0xdf
      5c:	e59fd0d4 	ldr	sp, [pc, #212]	; 138 <MC_QOS14>
      60:	e28f0018 	add	r0, pc, #24
      64:	e24f104c 	sub	r1, pc, #76	; 0x4c
      68:	e5810000 	str	r0, [r1]
      6c:	eb0000d0 	bl	3b4 <sark_setup>
      70:	eb00086f 	bl	2234 <rts_init>
      74:	eb000bce 	bl	2fb4 <c_main>
      78:	eb0008fe 	bl	2478 <rts_cleanup>
      7c:	ea00004f 	b	1c0 <snooze>

00000080 <reset_err>:
      80:	e3a00010 	mov	r0, #16
      84:	ea00009c 	b	2fc <sark_error>

00000088 <undef_err>:
      88:	e3a00011 	mov	r0, #17
      8c:	ea00009a 	b	2fc <sark_error>

00000090 <svc_err>:
      90:	e3a00012 	mov	r0, #18
      94:	ea000098 	b	2fc <sark_error>

00000098 <pabt_err>:
      98:	e3a00013 	mov	r0, #19
      9c:	ea000096 	b	2fc <sark_error>

000000a0 <dabt_err>:
      a0:	e3a00014 	mov	r0, #20
      a4:	ea000094 	b	2fc <sark_error>

000000a8 <addr_err>:
      a8:	e3a00015 	mov	r0, #21
      ac:	ea000092 	b	2fc <sark_error>

000000b0 <irq_err>:
      b0:	e3a00016 	mov	r0, #22
      b4:	ea000090 	b	2fc <sark_error>

000000b8 <fiq_err>:
      b8:	e3a00017 	mov	r0, #23
      bc:	ea00008e 	b	2fc <sark_error>

000000c0 <svc_han>:
      c0:	e92d500c 	push	{r2, r3, ip, lr}
      c4:	e14fc000 	mrs	ip, SPSR
      c8:	e92d1002 	push	{r1, ip}
      cc:	e31c0020 	tst	ip, #32
      d0:	151ec002 	ldrne	ip, [lr, #-2]
      d4:	051ec004 	ldreq	ip, [lr, #-4]
      d8:	e21cc0ff 	ands	ip, ip, #255	; 0xff
      dc:	0a000000 	beq	e4 <svc_tube>
      e0:	eaffffea 	b	90 <svc_err>

000000e4 <svc_tube>:
      e4:	eb000148 	bl	60c <svc_putc>

000000e8 <svc_exit>:
      e8:	e8bd1002 	pop	{r1, ip}
      ec:	e16ff00c 	msr	SPSR_fsxc, ip
      f0:	e8fd900c 	ldm	sp!, {r2, r3, ip, pc}^

000000f4 <null_int>:
      f4:	e25ef004 	subs	pc, lr, #4

000000f8 <cpu_int>:
      f8:	e24ee004 	sub	lr, lr, #4
      fc:	e92d4001 	push	{r0, lr}
     100:	e14fe000 	mrs	lr, SPSR
     104:	e92d5000 	push	{ip, lr}
     108:	e321f01f 	msr	CPSR_c, #31
     10c:	e92d400e 	push	{r1, r2, r3, lr}
     110:	eb000154 	bl	668 <cpu_int_c>
     114:	e8bd400e 	pop	{r1, r2, r3, lr}
     118:	e321f092 	msr	CPSR_c, #146	; 0x92
     11c:	e3a0c41f 	mov	ip, #520093696	; 0x1f000000
     120:	e58cc030 	str	ip, [ip, #48]	; 0x30
     124:	e8bd5000 	pop	{ip, lr}
     128:	e16ff00e 	msr	SPSR_fsxc, lr
     12c:	e8fd8001 	ldm	sp!, {r0, pc}^
     130:	0040ff00 	.word	0x0040ff00
     134:	0040fe00 	.word	0x0040fe00
     138:	0040f000 	.word	0x0040f000
     13c:	00000000 	.word	0x00000000

00000140 <bx>:
     140:	e12fff10 	bx	r0

00000144 <copy_msg>:
     144:	e1d120b4 	ldrh	r2, [r1, #4]
     148:	e2800004 	add	r0, r0, #4
     14c:	e2811004 	add	r1, r1, #4
     150:	e2822004 	add	r2, r2, #4

00000154 <word_cpy>:
     154:	e3120003 	tst	r2, #3
     158:	13c22003 	bicne	r2, r2, #3
     15c:	12822004 	addne	r2, r2, #4
     160:	e92d4010 	push	{r4, lr}
     164:	e2522020 	subs	r2, r2, #32
     168:	3a000005 	bcc	184 <wc2>

0000016c <wc1>:
     16c:	e8b15018 	ldm	r1!, {r3, r4, ip, lr}
     170:	e8a05018 	stmia	r0!, {r3, r4, ip, lr}
     174:	e8b15018 	ldm	r1!, {r3, r4, ip, lr}
     178:	e8a05018 	stmia	r0!, {r3, r4, ip, lr}
     17c:	e2522020 	subs	r2, r2, #32
     180:	2afffff9 	bcs	16c <wc1>

00000184 <wc2>:
     184:	e1b0ce02 	lsls	ip, r2, #28
     188:	28b15018 	ldmcs	r1!, {r3, r4, ip, lr}
     18c:	28a05018 	stmiacs	r0!, {r3, r4, ip, lr}
     190:	48b10018 	ldmmi	r1!, {r3, r4}
     194:	48a00018 	stmiami	r0!, {r3, r4}
     198:	e1b0cf02 	lsls	ip, r2, #30
     19c:	24913004 	ldrcs	r3, [r1], #4
     1a0:	24803004 	strcs	r3, [r0], #4
     1a4:	e8bd8010 	pop	{r4, pc}

000001a8 <cpu_int_off>:
     1a8:	e10f0000 	mrs	r0, CPSR
     1ac:	e38010c0 	orr	r1, r0, #192	; 0xc0
     1b0:	e121f001 	msr	CPSR_c, r1
     1b4:	e12fff1e 	bx	lr

000001b8 <cpu_mode_set>:
     1b8:	e121f000 	msr	CPSR_c, r0
     1bc:	e12fff1e 	bx	lr

000001c0 <snooze>:
     1c0:	ee070f90 	mcr	15, 0, r0, cr7, cr0, {4}
     1c4:	eafffffd 	b	1c0 <snooze>

000001c8 <str_cpy>:
     1c8:	e4d12001 	ldrb	r2, [r1], #1
     1cc:	e3520000 	cmp	r2, #0
     1d0:	e4c02001 	strb	r2, [r0], #1
     1d4:	1afffffb 	bne	1c8 <str_cpy>
     1d8:	e12fff1e 	bx	lr

000001dc <div10>:
     1dc:	e241200a 	sub	r2, r1, #10
     1e0:	e0411121 	sub	r1, r1, r1, lsr #2
     1e4:	e0811221 	add	r1, r1, r1, lsr #4
     1e8:	e0811421 	add	r1, r1, r1, lsr #8
     1ec:	e0811821 	add	r1, r1, r1, lsr #16
     1f0:	e1a011a1 	lsr	r1, r1, #3
     1f4:	e0813101 	add	r3, r1, r1, lsl #2
     1f8:	e0522083 	subs	r2, r2, r3, lsl #1
     1fc:	52811001 	addpl	r1, r1, #1
     200:	4282200a 	addmi	r2, r2, #10
     204:	e8800006 	stm	r0, {r1, r2}
     208:	e12fff1e 	bx	lr

0000020c <svc_put_char>:
     20c:	ef000000 	svc	0x00000000
     210:	e12fff1e 	bx	lr

00000214 <schedule>:
     214:	e92d5000 	push	{ip, lr}
     218:	e10fc000 	mrs	ip, CPSR
     21c:	e3cce01f 	bic	lr, ip, #31
     220:	e38ee01f 	orr	lr, lr, #31
     224:	e121f00e 	msr	CPSR_c, lr
     228:	e92d5000 	push	{ip, lr}
     22c:	eb00079b 	bl	20a0 <schedule_sysmode>
     230:	e8bd5000 	pop	{ip, lr}
     234:	e121f00c 	msr	CPSR_c, ip
     238:	e8bd5000 	pop	{ip, lr}
     23c:	e12fff1e 	bx	lr

00000240 <proc_aplx>:
     240:	b5f0      	push	{r4, r5, r6, r7, lr}
     242:	4917      	ldr	r1, [pc, #92]	; (2a0 <aplx_exec+0xa>)
     244:	a206      	add	r2, pc, #24	; (adr r2, 260 <aplx_loader>)
     246:	2304      	movs	r3, #4

00000248 <ap0>:
     248:	caf0      	ldmia	r2!, {r4, r5, r6, r7}
     24a:	c1f0      	stmia	r1!, {r4, r5, r6, r7}
     24c:	3b01      	subs	r3, #1
     24e:	d1fb      	bne.n	248 <ap0>
     250:	393f      	subs	r1, #63	; 0x3f
     252:	4708      	bx	r1
	...

00000260 <aplx_loader>:
     260:	c81e      	ldmia	r0!, {r1, r2, r3, r4}
     262:	2901      	cmp	r1, #1
     264:	d008      	beq.n	278 <aplx_copy>
     266:	2902      	cmp	r1, #2
     268:	d004      	beq.n	274 <aplx_rcopy>
     26a:	2903      	cmp	r1, #3
     26c:	d00b      	beq.n	286 <aplx_fill>
     26e:	2904      	cmp	r1, #4
     270:	d011      	beq.n	296 <aplx_exec>
     272:	bdf0      	pop	{r4, r5, r6, r7, pc}

00000274 <aplx_rcopy>:
     274:	181b      	adds	r3, r3, r0
     276:	3b10      	subs	r3, #16

00000278 <aplx_copy>:
     278:	cbe2      	ldmia	r3!, {r1, r5, r6, r7}
     27a:	c2e2      	stmia	r2!, {r1, r5, r6, r7}
     27c:	cbe2      	ldmia	r3!, {r1, r5, r6, r7}
     27e:	c2e2      	stmia	r2!, {r1, r5, r6, r7}
     280:	3c20      	subs	r4, #32
     282:	d8f9      	bhi.n	278 <aplx_copy>
     284:	e7ec      	b.n	260 <aplx_loader>

00000286 <aplx_fill>:
     286:	1c25      	adds	r5, r4, #0
     288:	1c26      	adds	r6, r4, #0
     28a:	1c27      	adds	r7, r4, #0

0000028c <ap1>:
     28c:	c2f0      	stmia	r2!, {r4, r5, r6, r7}
     28e:	c2f0      	stmia	r2!, {r4, r5, r6, r7}
     290:	3b20      	subs	r3, #32
     292:	d8fb      	bhi.n	28c <ap1>
     294:	e7e4      	b.n	260 <aplx_loader>

00000296 <aplx_exec>:
     296:	4790      	blx	r2
     298:	e7e2      	b.n	260 <aplx_loader>
     29a:	0000      	movs	r0, r0
     29c:	0000      	movs	r0, r0
     29e:	0000      	movs	r0, r0
     2a0:	00007fc0 	.word	0x00007fc0
	...

000002b0 <shm_msg_free>:
     2b0:	e92d4010 	push	{r4, lr}
     2b4:	e1a04000 	mov	r4, r0
     2b8:	ebffffba 	bl	1a8 <cpu_int_off>
     2bc:	e3a024f2 	mov	r2, #-234881024	; 0xf2000000
     2c0:	e5923100 	ldr	r3, [r2, #256]	; 0x100
     2c4:	e3530000 	cmp	r3, #0
     2c8:	bafffffc 	blt	2c0 <shm_msg_free+0x10>
     2cc:	e59f3024 	ldr	r3, [pc, #36]	; 2f8 <shm_msg_free+0x48>
     2d0:	e5932f30 	ldr	r2, [r3, #3888]	; 0xf30
     2d4:	e5842000 	str	r2, [r4]
     2d8:	e5834f30 	str	r4, [r3, #3888]	; 0xf30
     2dc:	e5932f68 	ldr	r2, [r3, #3944]	; 0xf68
     2e0:	e2422001 	sub	r2, r2, #1
     2e4:	e5832f68 	str	r2, [r3, #3944]	; 0xf68
     2e8:	e3a034f2 	mov	r3, #-234881024	; 0xf2000000
     2ec:	e5933180 	ldr	r3, [r3, #384]	; 0x180
     2f0:	ebffffb0 	bl	1b8 <cpu_mode_set>
     2f4:	e8bd8010 	pop	{r4, pc}
     2f8:	f5007000 	.word	0xf5007000

000002fc <sark_error>:
     2fc:	e92d4008 	push	{r3, lr}
     300:	e59f301c 	ldr	r3, [pc, #28]	; 324 <RTR_DGC9>
     304:	e59f201c 	ldr	r2, [pc, #28]	; 328 <RTR_DGC10>
     308:	e5922000 	ldr	r2, [r2]
     30c:	e0832002 	add	r2, r3, r2
     310:	e5c20f40 	strb	r0, [r2, #3904]	; 0xf40
     314:	e3a02008 	mov	r2, #8
     318:	e5c32f2b 	strb	r2, [r3, #3883]	; 0xf2b
     31c:	ebffffa7 	bl	1c0 <snooze>
     320:	e8bd8008 	pop	{r3, pc}
     324:	f5007000 	.word	0xf5007000
     328:	00400068 	.word	0x00400068

0000032c <spin1_msg_get>:
     32c:	e92d4010 	push	{r4, lr}
     330:	ebffff9c 	bl	1a8 <cpu_int_off>
     334:	e59f3040 	ldr	r3, [pc, #64]	; 37c <RTR_DGC15+0x40>
     338:	e5934000 	ldr	r4, [r3]
     33c:	e3540000 	cmp	r4, #0
     340:	0a00000a 	beq	370 <RTR_DGC15+0x34>
     344:	e5942000 	ldr	r2, [r4]
     348:	e5832000 	str	r2, [r3]
     34c:	e3a02000 	mov	r2, #0
     350:	e5842000 	str	r2, [r4]
     354:	e5932004 	ldr	r2, [r3, #4]
     358:	e2822001 	add	r2, r2, #1
     35c:	e5832004 	str	r2, [r3, #4]
     360:	e5933008 	ldr	r3, [r3, #8]
     364:	e1520003 	cmp	r2, r3
     368:	859f300c 	ldrhi	r3, [pc, #12]	; 37c <RTR_DGC15+0x40>
     36c:	85832008 	strhi	r2, [r3, #8]
     370:	ebffff90 	bl	1b8 <cpu_mode_set>
     374:	e1a00004 	mov	r0, r4
     378:	e8bd8010 	pop	{r4, pc}
     37c:	004002c0 	.word	0x004002c0

00000380 <spin1_msg_free>:
     380:	e92d4010 	push	{r4, lr}
     384:	e1a04000 	mov	r4, r0
     388:	ebffff86 	bl	1a8 <cpu_int_off>
     38c:	e59f301c 	ldr	r3, [pc, #28]	; 3b0 <spin1_msg_free+0x30>
     390:	e5932000 	ldr	r2, [r3]
     394:	e5842000 	str	r2, [r4]
     398:	e5834000 	str	r4, [r3]
     39c:	e5932004 	ldr	r2, [r3, #4]
     3a0:	e2422001 	sub	r2, r2, #1
     3a4:	e5832004 	str	r2, [r3, #4]
     3a8:	ebffff82 	bl	1b8 <cpu_mode_set>
     3ac:	e8bd8010 	pop	{r4, pc}
     3b0:	004002c0 	.word	0x004002c0

000003b4 <sark_setup>:
     3b4:	e92d40f8 	push	{r3, r4, r5, r6, r7, lr}
     3b8:	e3a03203 	mov	r3, #805306368	; 0x30000000
     3bc:	e5933014 	ldr	r3, [r3, #20]
     3c0:	e1a03c23 	lsr	r3, r3, #24
     3c4:	e59f20c8 	ldr	r2, [pc, #200]	; 494 <MC_TABLE_SIZE+0x94>
     3c8:	e5823000 	str	r3, [r2]
     3cc:	e59f70c4 	ldr	r7, [pc, #196]	; 498 <MC_TABLE_SIZE+0x98>
     3d0:	e59f60c4 	ldr	r6, [pc, #196]	; 49c <MC_TABLE_SIZE+0x9c>
     3d4:	e0863003 	add	r3, r6, r3
     3d8:	e5d33f94 	ldrb	r3, [r3, #3988]	; 0xf94
     3dc:	e5873000 	str	r3, [r7]
     3e0:	e59f40b8 	ldr	r4, [pc, #184]	; 4a0 <MC_TABLE_SIZE+0xa0>
     3e4:	e284200c 	add	r2, r4, #12
     3e8:	e1a03004 	mov	r3, r4
     3ec:	e4832130 	str	r2, [r3], #304	; 0x130
     3f0:	e584300c 	str	r3, [r4, #12]
     3f4:	e2843f95 	add	r3, r4, #596	; 0x254
     3f8:	e5843130 	str	r3, [r4, #304]	; 0x130
     3fc:	e2843fde 	add	r3, r4, #888	; 0x378
     400:	e5843254 	str	r3, [r4, #596]	; 0x254
     404:	e3a05000 	mov	r5, #0
     408:	e5845378 	str	r5, [r4, #888]	; 0x378
     40c:	ebffffc6 	bl	32c <spin1_msg_get>
     410:	e584049c 	str	r0, [r4, #1180]	; 0x49c
     414:	e3a03007 	mov	r3, #7
     418:	e5c03008 	strb	r3, [r0, #8]
     41c:	e5c05009 	strb	r5, [r0, #9]
     420:	e3e02000 	mvn	r2, #0
     424:	e5c0200a 	strb	r2, [r0, #10]
     428:	e59f3074 	ldr	r3, [pc, #116]	; 4a4 <MC_TABLE_SIZE+0xa4>
     42c:	e19630b3 	ldrh	r3, [r6, r3]
     430:	e1c030bc 	strh	r3, [r0, #12]
     434:	e5973000 	ldr	r3, [r7]
     438:	e5c0300b 	strb	r3, [r0, #11]
     43c:	e3a03c0f 	mov	r3, #3840	; 0xf00
     440:	e19630b3 	ldrh	r3, [r6, r3]
     444:	e1c030be 	strh	r3, [r0, #14]
     448:	e3a03040 	mov	r3, #64	; 0x40
     44c:	e1c031b0 	strh	r3, [r0, #16]
     450:	e3a0300c 	mov	r3, #12
     454:	e1c030b4 	strh	r3, [r0, #4]
     458:	e3a0341f 	mov	r3, #520093696	; 0x1f000000
     45c:	e5833030 	str	r3, [r3, #48]	; 0x30
     460:	e583500c 	str	r5, [r3, #12]
     464:	e5832014 	str	r2, [r3, #20]
     468:	e59f2038 	ldr	r2, [pc, #56]	; 4a8 <MC_TABLE_SIZE+0xa8>
     46c:	e5832034 	str	r2, [r3, #52]	; 0x34
     470:	e59f2034 	ldr	r2, [pc, #52]	; 4ac <MC_TABLE_SIZE+0xac>
     474:	e5832100 	str	r2, [r3, #256]	; 0x100
     478:	e3a02032 	mov	r2, #50	; 0x32
     47c:	e5832200 	str	r2, [r3, #512]	; 0x200
     480:	e3a02701 	mov	r2, #262144	; 0x40000
     484:	e5832010 	str	r2, [r3, #16]
     488:	e3a0001f 	mov	r0, #31
     48c:	ebffff49 	bl	1b8 <cpu_mode_set>
     490:	e8bd80f8 	pop	{r3, r4, r5, r6, r7, pc}
     494:	00400060 	.word	0x00400060
     498:	00400068 	.word	0x00400068
     49c:	f5007000 	.word	0xf5007000
     4a0:	004002c0 	.word	0x004002c0
     4a4:	00000f04 	.word	0x00000f04
     4a8:	000000f4 	.word	0x000000f4
     4ac:	000000f8 	.word	0x000000f8

000004b0 <spin1_send_sdp_msg>:
     4b0:	e92d43f8 	push	{r3, r4, r5, r6, r7, r8, r9, lr}
     4b4:	e1a09000 	mov	r9, r0
     4b8:	e1a05001 	mov	r5, r1
     4bc:	e59f313c 	ldr	r3, [pc, #316]	; 600 <ETH_TX_SIZE>
     4c0:	e5938000 	ldr	r8, [r3]
     4c4:	e59f7138 	ldr	r7, [pc, #312]	; 604 <ETH_TX_SIZE+0x4>
     4c8:	e0874188 	add	r4, r7, r8, lsl #3
     4cc:	e5d43001 	ldrb	r3, [r4, #1]
     4d0:	e35300ff 	cmp	r3, #255	; 0xff
     4d4:	0a000034 	beq	5ac <spin1_send_sdp_msg+0xfc>
     4d8:	ebffff32 	bl	1a8 <cpu_int_off>
     4dc:	e3a024f2 	mov	r2, #-234881024	; 0xf2000000
     4e0:	e5923100 	ldr	r3, [r2, #256]	; 0x100
     4e4:	e3530000 	cmp	r3, #0
     4e8:	bafffffc 	blt	4e0 <spin1_send_sdp_msg+0x30>
     4ec:	e59f3114 	ldr	r3, [pc, #276]	; 608 <ETH_TX_SIZE+0x8>
     4f0:	e5936f30 	ldr	r6, [r3, #3888]	; 0xf30
     4f4:	e3560000 	cmp	r6, #0
     4f8:	0a00003b 	beq	5ec <spin1_send_sdp_msg+0x13c>
     4fc:	e5962000 	ldr	r2, [r6]
     500:	e5832f30 	str	r2, [r3, #3888]	; 0xf30
     504:	e3a02000 	mov	r2, #0
     508:	e5862000 	str	r2, [r6]
     50c:	e5932f68 	ldr	r2, [r3, #3944]	; 0xf68
     510:	e2822001 	add	r2, r2, #1
     514:	e5832f68 	str	r2, [r3, #3944]	; 0xf68
     518:	e5933f6c 	ldr	r3, [r3, #3948]	; 0xf6c
     51c:	e1520003 	cmp	r2, r3
     520:	859f30e0 	ldrhi	r3, [pc, #224]	; 608 <ETH_TX_SIZE+0x8>
     524:	85832f6c 	strhi	r2, [r3, #3948]	; 0xf6c
     528:	ea000023 	b	5bc <spin1_send_sdp_msg+0x10c>
     52c:	e5923104 	ldr	r3, [r2, #260]	; 0x104
     530:	e3530000 	cmp	r3, #0
     534:	bafffffc 	blt	52c <spin1_send_sdp_msg+0x7c>
     538:	e59f90c8 	ldr	r9, [pc, #200]	; 608 <ETH_TX_SIZE+0x8>
     53c:	e59f30bc 	ldr	r3, [pc, #188]	; 600 <ETH_TX_SIZE>
     540:	e5933000 	ldr	r3, [r3]
     544:	e5992f60 	ldr	r2, [r9, #3936]	; 0xf60
     548:	e3a01001 	mov	r1, #1
     54c:	e1823311 	orr	r3, r2, r1, lsl r3
     550:	e5893f60 	str	r3, [r9, #3936]	; 0xf60
     554:	e3a034f2 	mov	r3, #-234881024	; 0xf2000000
     558:	e5933184 	ldr	r3, [r3, #388]	; 0x184
     55c:	ebffff15 	bl	1b8 <cpu_mode_set>
     560:	e5991f10 	ldr	r1, [r9, #3856]	; 0xf10
     564:	e1a02009 	mov	r2, r9
     568:	ea000003 	b	57c <spin1_send_sdp_msg+0xcc>
     56c:	e5923f10 	ldr	r3, [r2, #3856]	; 0xf10
     570:	e0613003 	rsb	r3, r1, r3
     574:	e1530005 	cmp	r3, r5
     578:	8a000002 	bhi	588 <spin1_send_sdp_msg+0xd8>
     57c:	e5d43000 	ldrb	r3, [r4]
     580:	e3530000 	cmp	r3, #0
     584:	1afffff8 	bne	56c <spin1_send_sdp_msg+0xbc>
     588:	e7d73188 	ldrb	r3, [r7, r8, lsl #3]
     58c:	e3530000 	cmp	r3, #0
     590:	0a000007 	beq	5b4 <spin1_send_sdp_msg+0x104>
     594:	e1a00006 	mov	r0, r6
     598:	ebffff44 	bl	2b0 <shm_msg_free>
     59c:	e3e03000 	mvn	r3, #0
     5a0:	e5c43001 	strb	r3, [r4, #1]
     5a4:	e3a00000 	mov	r0, #0
     5a8:	e8bd83f8 	pop	{r3, r4, r5, r6, r7, r8, r9, pc}
     5ac:	e3a00000 	mov	r0, #0
     5b0:	e8bd83f8 	pop	{r3, r4, r5, r6, r7, r8, r9, pc}
     5b4:	e3a00001 	mov	r0, #1
     5b8:	e8bd83f8 	pop	{r3, r4, r5, r6, r7, r8, r9, pc}
     5bc:	e3a034f2 	mov	r3, #-234881024	; 0xf2000000
     5c0:	e5933180 	ldr	r3, [r3, #384]	; 0x180
     5c4:	ebfffefb 	bl	1b8 <cpu_mode_set>
     5c8:	e1a00006 	mov	r0, r6
     5cc:	e1a01009 	mov	r1, r9
     5d0:	ebfffedb 	bl	144 <copy_msg>
     5d4:	e5846004 	str	r6, [r4, #4]
     5d8:	e3a03001 	mov	r3, #1
     5dc:	e7c73188 	strb	r3, [r7, r8, lsl #3]
     5e0:	ebfffef0 	bl	1a8 <cpu_int_off>
     5e4:	e3a024f2 	mov	r2, #-234881024	; 0xf2000000
     5e8:	eaffffcf 	b	52c <spin1_send_sdp_msg+0x7c>
     5ec:	e3a034f2 	mov	r3, #-234881024	; 0xf2000000
     5f0:	e5933180 	ldr	r3, [r3, #384]	; 0x180
     5f4:	ebfffeef 	bl	1b8 <cpu_mode_set>
     5f8:	e3a00000 	mov	r0, #0
     5fc:	e8bd83f8 	pop	{r3, r4, r5, r6, r7, r8, r9, pc}
     600:	00400068 	.word	0x00400068
     604:	f5007d40 	.word	0xf5007d40
     608:	f5007000 	.word	0xf5007000

0000060c <svc_putc>:
     60c:	e92d4008 	push	{r3, lr}
     610:	e59f304c 	ldr	r3, [pc, #76]	; 664 <svc_putc+0x58>
     614:	e593349c 	ldr	r3, [r3, #1180]	; 0x49c
     618:	e1d320b4 	ldrh	r2, [r3, #4]
     61c:	e2821001 	add	r1, r2, #1
     620:	e1c310b4 	strh	r1, [r3, #4]
     624:	e0832002 	add	r2, r3, r2
     628:	e5c20008 	strb	r0, [r2, #8]
     62c:	e3500000 	cmp	r0, #0
     630:	1350000a 	cmpne	r0, #10
     634:	0a000002 	beq	644 <svc_putc+0x38>
     638:	e1d320b4 	ldrh	r2, [r3, #4]
     63c:	e3520f43 	cmp	r2, #268	; 0x10c
     640:	18bd8008 	popne	{r3, pc}
     644:	e1a00003 	mov	r0, r3
     648:	e3a01ffa 	mov	r1, #1000	; 0x3e8
     64c:	ebffff97 	bl	4b0 <spin1_send_sdp_msg>
     650:	e59f300c 	ldr	r3, [pc, #12]	; 664 <svc_putc+0x58>
     654:	e593349c 	ldr	r3, [r3, #1180]	; 0x49c
     658:	e3a0200c 	mov	r2, #12
     65c:	e1c320b4 	strh	r2, [r3, #4]
     660:	e8bd8008 	pop	{r3, pc}
     664:	004002c0 	.word	0x004002c0

00000668 <cpu_int_c>:
     668:	e92d4070 	push	{r4, r5, r6, lr}
     66c:	e59f3380 	ldr	r3, [pc, #896]	; 9f4 <cpu_int_c+0x38c>
     670:	e5933000 	ldr	r3, [r3]
     674:	e3a02001 	mov	r2, #1
     678:	e1a02312 	lsl	r2, r2, r3
     67c:	e282245e 	add	r2, r2, #1577058304	; 0x5e000000
     680:	e2822503 	add	r2, r2, #12582912	; 0xc00000
     684:	e3a034f2 	mov	r3, #-234881024	; 0xf2000000
     688:	e583200c 	str	r2, [r3, #12]
     68c:	e59f3364 	ldr	r3, [pc, #868]	; 9f8 <cpu_int_c+0x390>
     690:	e593c000 	ldr	ip, [r3]
     694:	e59f2360 	ldr	r2, [pc, #864]	; 9fc <cpu_int_c+0x394>
     698:	e082418c 	add	r4, r2, ip, lsl #3
     69c:	e7d2318c 	ldrb	r3, [r2, ip, lsl #3]
     6a0:	e20330ff 	and	r3, r3, #255	; 0xff
     6a4:	e5945004 	ldr	r5, [r4, #4]
     6a8:	e3530001 	cmp	r3, #1
     6ac:	1a0000c3 	bne	9c0 <cpu_int_c+0x358>
     6b0:	e3a03000 	mov	r3, #0
     6b4:	e7c2318c 	strb	r3, [r2, ip, lsl #3]
     6b8:	ebffff1b 	bl	32c <spin1_msg_get>
     6bc:	e2504000 	subs	r4, r0, #0
     6c0:	0a0000bb 	beq	9b4 <cpu_int_c+0x34c>
     6c4:	e1a00004 	mov	r0, r4
     6c8:	e1a01005 	mov	r1, r5
     6cc:	ebfffe9c 	bl	144 <copy_msg>
     6d0:	e1a00005 	mov	r0, r5
     6d4:	ebfffef5 	bl	2b0 <shm_msg_free>
     6d8:	e5d4500a 	ldrb	r5, [r4, #10]
     6dc:	e31500e0 	tst	r5, #224	; 0xe0
     6e0:	1a0000a3 	bne	974 <cpu_int_c+0x30c>
     6e4:	e1d430b4 	ldrh	r3, [r4, #4]
     6e8:	e3530017 	cmp	r3, #23
     6ec:	93a03081 	movls	r3, #129	; 0x81
     6f0:	91c431b0 	strhls	r3, [r4, #16]
     6f4:	93a0300c 	movls	r3, #12
     6f8:	9a00008e 	bls	938 <cpu_int_c+0x2d0>
     6fc:	e1d431b0 	ldrh	r3, [r4, #16]
     700:	e3a02080 	mov	r2, #128	; 0x80
     704:	e1c421b0 	strh	r2, [r4, #16]
     708:	e3530004 	cmp	r3, #4
     70c:	979ff103 	ldrls	pc, [pc, r3, lsl #2]
     710:	ea000079 	b	8fc <cpu_int_c+0x294>
     714:	00000728 	.word	0x00000728
     718:	00000774 	.word	0x00000774
     71c:	00000784 	.word	0x00000784
     720:	00000838 	.word	0x00000838
     724:	000008e8 	.word	0x000008e8
     728:	e59f32c4 	ldr	r3, [pc, #708]	; 9f4 <cpu_int_c+0x38c>
     72c:	e5932000 	ldr	r2, [r3]
     730:	e59f32c0 	ldr	r3, [pc, #704]	; 9f8 <cpu_int_c+0x390>
     734:	e5933000 	ldr	r3, [r3]
     738:	e0833402 	add	r3, r3, r2, lsl #8
     73c:	e3a02c0f 	mov	r2, #3840	; 0xf00
     740:	e59f12b8 	ldr	r1, [pc, #696]	; a00 <cpu_int_c+0x398>
     744:	e19120b2 	ldrh	r2, [r1, r2]
     748:	e0833802 	add	r3, r3, r2, lsl #16
     74c:	e5843014 	str	r3, [r4, #20]
     750:	e59f32ac 	ldr	r3, [pc, #684]	; a04 <cpu_int_c+0x39c>
     754:	e5843018 	str	r3, [r4, #24]
     758:	e59f32a8 	ldr	r3, [pc, #680]	; a08 <cpu_int_c+0x3a0>
     75c:	e584301c 	str	r3, [r4, #28]
     760:	e2840020 	add	r0, r4, #32
     764:	e59f12a0 	ldr	r1, [pc, #672]	; a0c <cpu_int_c+0x3a4>
     768:	ebfffe96 	bl	1c8 <str_cpy>
     76c:	e3a03027 	mov	r3, #39	; 0x27
     770:	ea000070 	b	938 <cpu_int_c+0x2d0>
     774:	e5940014 	ldr	r0, [r4, #20]
     778:	ebfffe70 	bl	140 <bx>
     77c:	e3a0300c 	mov	r3, #12
     780:	ea00006c 	b	938 <cpu_int_c+0x2d0>
     784:	e5942018 	ldr	r2, [r4, #24]
     788:	e594001c 	ldr	r0, [r4, #28]
     78c:	e3520c01 	cmp	r2, #256	; 0x100
     790:	93500002 	cmpls	r0, #2
     794:	83a03084 	movhi	r3, #132	; 0x84
     798:	81c431b0 	strhhi	r3, [r4, #16]
     79c:	83a02000 	movhi	r2, #0
     7a0:	8a000022 	bhi	830 <cpu_int_c+0x1c8>
     7a4:	e1a03004 	mov	r3, r4
     7a8:	e5b31014 	ldr	r1, [r3, #20]!
     7ac:	e3500000 	cmp	r0, #0
     7b0:	1a000009 	bne	7dc <cpu_int_c+0x174>
     7b4:	e3520000 	cmp	r2, #0
     7b8:	0a00001c 	beq	830 <cpu_int_c+0x1c8>
     7bc:	e1a0e003 	mov	lr, r3
     7c0:	e083c002 	add	ip, r3, r2
     7c4:	e06e0003 	rsb	r0, lr, r3
     7c8:	e7d00001 	ldrb	r0, [r0, r1]
     7cc:	e4c30001 	strb	r0, [r3], #1
     7d0:	e153000c 	cmp	r3, ip
     7d4:	1afffffa 	bne	7c4 <cpu_int_c+0x15c>
     7d8:	ea000014 	b	830 <cpu_int_c+0x1c8>
     7dc:	e3500001 	cmp	r0, #1
     7e0:	1a000009 	bne	80c <cpu_int_c+0x1a4>
     7e4:	e1b000a2 	lsrs	r0, r2, #1
     7e8:	0a000010 	beq	830 <cpu_int_c+0x1c8>
     7ec:	e1a0c003 	mov	ip, r3
     7f0:	e0830080 	add	r0, r3, r0, lsl #1
     7f4:	e06ce003 	rsb	lr, ip, r3
     7f8:	e19ee0b1 	ldrh	lr, [lr, r1]
     7fc:	e0c3e0b2 	strh	lr, [r3], #2
     800:	e1530000 	cmp	r3, r0
     804:	1afffffa 	bne	7f4 <cpu_int_c+0x18c>
     808:	ea000008 	b	830 <cpu_int_c+0x1c8>
     80c:	e1b0c122 	lsrs	ip, r2, #2
     810:	0a000006 	beq	830 <cpu_int_c+0x1c8>
     814:	e1a0e003 	mov	lr, r3
     818:	e083c10c 	add	ip, r3, ip, lsl #2
     81c:	e06e0003 	rsb	r0, lr, r3
     820:	e7900001 	ldr	r0, [r0, r1]
     824:	e4830004 	str	r0, [r3], #4
     828:	e153000c 	cmp	r3, ip
     82c:	1afffffa 	bne	81c <cpu_int_c+0x1b4>
     830:	e282300c 	add	r3, r2, #12
     834:	ea00003f 	b	938 <cpu_int_c+0x2d0>
     838:	e5943018 	ldr	r3, [r4, #24]
     83c:	e594001c 	ldr	r0, [r4, #28]
     840:	e3530c01 	cmp	r3, #256	; 0x100
     844:	93500002 	cmpls	r0, #2
     848:	83a03084 	movhi	r3, #132	; 0x84
     84c:	81c431b0 	strhhi	r3, [r4, #16]
     850:	83a0300c 	movhi	r3, #12
     854:	8a000037 	bhi	938 <cpu_int_c+0x2d0>
     858:	e5942014 	ldr	r2, [r4, #20]
     85c:	e2841020 	add	r1, r4, #32
     860:	e3500000 	cmp	r0, #0
     864:	1a000009 	bne	890 <cpu_int_c+0x228>
     868:	e3530000 	cmp	r3, #0
     86c:	0a000026 	beq	90c <cpu_int_c+0x2a4>
     870:	e0820003 	add	r0, r2, r3
     874:	e1a03002 	mov	r3, r2
     878:	e0622001 	rsb	r2, r2, r1
     87c:	e7d21003 	ldrb	r1, [r2, r3]
     880:	e4c31001 	strb	r1, [r3], #1
     884:	e1530000 	cmp	r3, r0
     888:	1afffffb 	bne	87c <cpu_int_c+0x214>
     88c:	ea000020 	b	914 <cpu_int_c+0x2ac>
     890:	e3500001 	cmp	r0, #1
     894:	1a000009 	bne	8c0 <cpu_int_c+0x258>
     898:	e1b030a3 	lsrs	r3, r3, #1
     89c:	0a00001e 	beq	91c <cpu_int_c+0x2b4>
     8a0:	e0820083 	add	r0, r2, r3, lsl #1
     8a4:	e1a03002 	mov	r3, r2
     8a8:	e0622001 	rsb	r2, r2, r1
     8ac:	e19210b3 	ldrh	r1, [r2, r3]
     8b0:	e0c310b2 	strh	r1, [r3], #2
     8b4:	e1530000 	cmp	r3, r0
     8b8:	1afffffb 	bne	8ac <cpu_int_c+0x244>
     8bc:	ea000018 	b	924 <cpu_int_c+0x2bc>
     8c0:	e1b03123 	lsrs	r3, r3, #2
     8c4:	0a000018 	beq	92c <cpu_int_c+0x2c4>
     8c8:	e0820103 	add	r0, r2, r3, lsl #2
     8cc:	e1a03002 	mov	r3, r2
     8d0:	e0622001 	rsb	r2, r2, r1
     8d4:	e7921003 	ldr	r1, [r2, r3]
     8d8:	e4831004 	str	r1, [r3], #4
     8dc:	e1530000 	cmp	r3, r0
     8e0:	1afffffb 	bne	8d4 <cpu_int_c+0x26c>
     8e4:	ea000012 	b	934 <cpu_int_c+0x2cc>
     8e8:	e5940014 	ldr	r0, [r4, #20]
     8ec:	e3a01000 	mov	r1, #0
     8f0:	eb0009de 	bl	3070 <__proc_aplx_from_arm>
     8f4:	e3a0300c 	mov	r3, #12
     8f8:	ea00000e 	b	938 <cpu_int_c+0x2d0>
     8fc:	e3a03083 	mov	r3, #131	; 0x83
     900:	e1c431b0 	strh	r3, [r4, #16]
     904:	e3a0300c 	mov	r3, #12
     908:	ea00000a 	b	938 <cpu_int_c+0x2d0>
     90c:	e3a0300c 	mov	r3, #12
     910:	ea000008 	b	938 <cpu_int_c+0x2d0>
     914:	e3a0300c 	mov	r3, #12
     918:	ea000006 	b	938 <cpu_int_c+0x2d0>
     91c:	e3a0300c 	mov	r3, #12
     920:	ea000004 	b	938 <cpu_int_c+0x2d0>
     924:	e3a0300c 	mov	r3, #12
     928:	ea000002 	b	938 <cpu_int_c+0x2d0>
     92c:	e3a0300c 	mov	r3, #12
     930:	ea000000 	b	938 <cpu_int_c+0x2d0>
     934:	e3a0300c 	mov	r3, #12
     938:	e1c430b4 	strh	r3, [r4, #4]
     93c:	e5d4200a 	ldrb	r2, [r4, #10]
     940:	e1d430bc 	ldrh	r3, [r4, #12]
     944:	e5d4100b 	ldrb	r1, [r4, #11]
     948:	e5c4100a 	strb	r1, [r4, #10]
     94c:	e5c4200b 	strb	r2, [r4, #11]
     950:	e1d420be 	ldrh	r2, [r4, #14]
     954:	e1c420bc 	strh	r2, [r4, #12]
     958:	e1c430be 	strh	r3, [r4, #14]
     95c:	e1a00004 	mov	r0, r4
     960:	e3a01ffa 	mov	r1, #1000	; 0x3e8
     964:	ebfffed1 	bl	4b0 <spin1_send_sdp_msg>
     968:	e1a00004 	mov	r0, r4
     96c:	ebfffe83 	bl	380 <spin1_msg_free>
     970:	e8bd8070 	pop	{r4, r5, r6, pc}
     974:	e59f3094 	ldr	r3, [pc, #148]	; a10 <cpu_int_c+0x3a8>
     978:	e5933018 	ldr	r3, [r3, #24]
     97c:	e3530000 	cmp	r3, #0
     980:	0a000008 	beq	9a8 <cpu_int_c+0x340>
     984:	ebfffe07 	bl	1a8 <cpu_int_off>
     988:	e1a06000 	mov	r6, r0
     98c:	e3a00003 	mov	r0, #3
     990:	e1a01004 	mov	r1, r4
     994:	e1a022a5 	lsr	r2, r5, #5
     998:	eb0005c0 	bl	20a0 <schedule_sysmode>
     99c:	e1a00006 	mov	r0, r6
     9a0:	ebfffe04 	bl	1b8 <cpu_mode_set>
     9a4:	e8bd8070 	pop	{r4, r5, r6, pc}
     9a8:	e1a00004 	mov	r0, r4
     9ac:	ebfffe73 	bl	380 <spin1_msg_free>
     9b0:	e8bd8070 	pop	{r4, r5, r6, pc}
     9b4:	e1a00005 	mov	r0, r5
     9b8:	ebfffe3c 	bl	2b0 <shm_msg_free>
     9bc:	e8bd8070 	pop	{r4, r5, r6, pc}
     9c0:	e3530002 	cmp	r3, #2
     9c4:	1a000004 	bne	9dc <cpu_int_c+0x374>
     9c8:	e3a01000 	mov	r1, #0
     9cc:	e7c2118c 	strb	r1, [r2, ip, lsl #3]
     9d0:	e1a00005 	mov	r0, r5
     9d4:	eb0009a5 	bl	3070 <__proc_aplx_from_arm>
     9d8:	e8bd8070 	pop	{r4, r5, r6, pc}
     9dc:	e3530003 	cmp	r3, #3
     9e0:	02855001 	addeq	r5, r5, #1
     9e4:	05845004 	streq	r5, [r4, #4]
     9e8:	03a03000 	moveq	r3, #0
     9ec:	07c2318c 	strbeq	r3, [r2, ip, lsl #3]
     9f0:	e8bd8070 	pop	{r4, r5, r6, pc}
     9f4:	00400060 	.word	0x00400060
     9f8:	00400068 	.word	0x00400068
     9fc:	f5007de0 	.word	0xf5007de0
     a00:	f5007000 	.word	0xf5007000
     a04:	005c0100 	.word	0x005c0100
     a08:	52fba5ae 	.word	0x52fba5ae
     a0c:	00002cc4 	.word	0x00002cc4
     a10:	004001c0 	.word	0x004001c0

00000a14 <cc_rx_ready_isr>:
     a14:	e24ee004 	sub	lr, lr, #4
     a18:	e92d500f 	push	{r0, r1, r2, r3, ip, lr}
     a1c:	e3a03201 	mov	r3, #268435456	; 0x10000000
     a20:	e5932010 	ldr	r2, [r3, #16]
     a24:	e5931014 	ldr	r1, [r3, #20]
     a28:	e59f3020 	ldr	r3, [pc, #32]	; a50 <cc_rx_ready_isr+0x3c>
     a2c:	e5933000 	ldr	r3, [r3]
     a30:	e3530000 	cmp	r3, #0
     a34:	0a000001 	beq	a40 <cc_rx_ready_isr+0x2c>
     a38:	e3a00000 	mov	r0, #0
     a3c:	ebfffdf4 	bl	214 <schedule>
     a40:	e3a02001 	mov	r2, #1
     a44:	e3a0341f 	mov	r3, #520093696	; 0x1f000000
     a48:	e5832030 	str	r2, [r3, #48]	; 0x30
     a4c:	e8fd900f 	ldm	sp!, {r0, r1, r2, r3, ip, pc}^
     a50:	004001c0 	.word	0x004001c0

00000a54 <barrier_packet_handler>:
     a54:	e92d000c 	push	{r2, r3}
     a58:	e3a03201 	mov	r3, #268435456	; 0x10000000
     a5c:	e5933014 	ldr	r3, [r3, #20]
     a60:	e283320f 	add	r3, r3, #-268435456	; 0xf0000000
     a64:	e2833b02 	add	r3, r3, #2048	; 0x800
     a68:	e3530003 	cmp	r3, #3
     a6c:	979ff103 	ldrls	pc, [pc, r3, lsl #2]
     a70:	ea00001e 	b	af0 <ZI_LENGTH+0x58>
     a74:	00000a94 	.word	0x00000a94
     a78:	00000a84 	.word	0x00000a84
     a7c:	00000acc 	.word	0x00000acc
     a80:	00000ae0 	.word	0x00000ae0
     a84:	e3a02001 	mov	r2, #1
     a88:	e59f3074 	ldr	r3, [pc, #116]	; b04 <ZI_LENGTH+0x6c>
     a8c:	e5832000 	str	r2, [r3]
     a90:	ea000016 	b	af0 <ZI_LENGTH+0x58>
     a94:	e59f306c 	ldr	r3, [pc, #108]	; b08 <ZI_LENGTH+0x70>
     a98:	e5933004 	ldr	r3, [r3, #4]
     a9c:	e3530000 	cmp	r3, #0
     aa0:	b3a0341f 	movlt	r3, #520093696	; 0x1f000000
     aa4:	b593200c 	ldrlt	r2, [r3, #12]
     aa8:	b3822040 	orrlt	r2, r2, #64	; 0x40
     aac:	b583200c 	strlt	r2, [r3, #12]
     ab0:	a59f2054 	ldrge	r2, [pc, #84]	; b0c <ZI_LENGTH+0x74>
     ab4:	a3a0341f 	movge	r3, #520093696	; 0x1f000000
     ab8:	a583210c 	strge	r2, [r3, #268]	; 0x10c
     abc:	e3a02001 	mov	r2, #1
     ac0:	e59f3048 	ldr	r3, [pc, #72]	; b10 <ZI_LENGTH+0x78>
     ac4:	e5832000 	str	r2, [r3]
     ac8:	ea000008 	b	af0 <ZI_LENGTH+0x58>
     acc:	e59f3040 	ldr	r3, [pc, #64]	; b14 <ZI_LENGTH+0x7c>
     ad0:	e5932000 	ldr	r2, [r3]
     ad4:	e2822001 	add	r2, r2, #1
     ad8:	e5832000 	str	r2, [r3]
     adc:	ea000003 	b	af0 <ZI_LENGTH+0x58>
     ae0:	e59f3030 	ldr	r3, [pc, #48]	; b18 <ZI_LENGTH+0x80>
     ae4:	e5932000 	ldr	r2, [r3]
     ae8:	e2822001 	add	r2, r2, #1
     aec:	e5832000 	str	r2, [r3]
     af0:	e3a02001 	mov	r2, #1
     af4:	e3a0341f 	mov	r3, #520093696	; 0x1f000000
     af8:	e5832030 	str	r2, [r3, #48]	; 0x30
     afc:	e8bd000c 	pop	{r2, r3}
     b00:	e25ef004 	subs	pc, lr, #4
     b04:	00400ab0 	.word	0x00400ab0
     b08:	004001c0 	.word	0x004001c0
     b0c:	00000a14 	.word	0x00000a14
     b10:	00400ab4 	.word	0x00400ab4
     b14:	00400028 	.word	0x00400028
     b18:	0040002c 	.word	0x0040002c

00000b1c <cc_rx_error_isr>:
     b1c:	e92d000c 	push	{r2, r3}
     b20:	e3a03201 	mov	r3, #268435456	; 0x10000000
     b24:	e5932014 	ldr	r2, [r3, #20]
     b28:	e3a02000 	mov	r2, #0
     b2c:	e583200c 	str	r2, [r3, #12]
     b30:	e3a02001 	mov	r2, #1
     b34:	e3a0341f 	mov	r3, #520093696	; 0x1f000000
     b38:	e5832030 	str	r2, [r3, #48]	; 0x30
     b3c:	e8bd000c 	pop	{r2, r3}
     b40:	e25ef004 	subs	pc, lr, #4

00000b44 <cc_tx_empty_isr>:
     b44:	e24ee004 	sub	lr, lr, #4
     b48:	e92d503f 	push	{r0, r1, r2, r3, r4, r5, ip, lr}
     b4c:	e3a02000 	mov	r2, #0
     b50:	e3a03201 	mov	r3, #268435456	; 0x10000000
     b54:	e5832000 	str	r2, [r3]
     b58:	e59f2084 	ldr	r2, [pc, #132]	; be4 <cc_tx_empty_isr+0xa0>
     b5c:	e5923000 	ldr	r3, [r2]
     b60:	e5922004 	ldr	r2, [r2, #4]
     b64:	e1530002 	cmp	r3, r2
     b68:	0a000019 	beq	bd4 <cc_tx_empty_isr+0x90>
     b6c:	e3a02201 	mov	r2, #268435456	; 0x10000000
     b70:	e5922000 	ldr	r2, [r2]
     b74:	e3120101 	tst	r2, #1073741824	; 0x40000000
     b78:	1a000011 	bne	bc4 <cc_tx_empty_isr+0x80>
     b7c:	e59f4060 	ldr	r4, [pc, #96]	; be4 <cc_tx_empty_isr+0xa0>
     b80:	e3a05201 	mov	r5, #268435456	; 0x10000000
     b84:	e0832083 	add	r2, r3, r3, lsl #1
     b88:	e0842102 	add	r2, r4, r2, lsl #2
     b8c:	e5920008 	ldr	r0, [r2, #8]
     b90:	e592100c 	ldr	r1, [r2, #12]
     b94:	e5922010 	ldr	r2, [r2, #16]
     b98:	e2833001 	add	r3, r3, #1
     b9c:	e203300f 	and	r3, r3, #15
     ba0:	e5843000 	str	r3, [r4]
     ba4:	eb0004b3 	bl	1e78 <send_mc_packet_fulfil>
     ba8:	e5943000 	ldr	r3, [r4]
     bac:	e5942004 	ldr	r2, [r4, #4]
     bb0:	e1530002 	cmp	r3, r2
     bb4:	0a000006 	beq	bd4 <cc_tx_empty_isr+0x90>
     bb8:	e5952000 	ldr	r2, [r5]
     bbc:	e3120101 	tst	r2, #1073741824	; 0x40000000
     bc0:	0affffef 	beq	b84 <cc_tx_empty_isr+0x40>
     bc4:	e3a02001 	mov	r2, #1
     bc8:	e3a0341f 	mov	r3, #520093696	; 0x1f000000
     bcc:	e5832030 	str	r2, [r3, #48]	; 0x30
     bd0:	e8fd903f 	ldm	sp!, {r0, r1, r2, r3, r4, r5, ip, pc}^
     bd4:	e3a02b02 	mov	r2, #2048	; 0x800
     bd8:	e3a0341f 	mov	r3, #520093696	; 0x1f000000
     bdc:	e5832014 	str	r2, [r3, #20]
     be0:	eafffff7 	b	bc4 <cc_tx_empty_isr+0x80>
     be4:	004001e8 	.word	0x004001e8

00000be8 <dma_error_isr>:
     be8:	e92d000c 	push	{r2, r3}
     bec:	e3a02020 	mov	r2, #32
     bf0:	e3a03203 	mov	r3, #805306368	; 0x30000000
     bf4:	e5832010 	str	r2, [r3, #16]
     bf8:	e3a02001 	mov	r2, #1
     bfc:	e3a0341f 	mov	r3, #520093696	; 0x1f000000
     c00:	e5832030 	str	r2, [r3, #48]	; 0x30
     c04:	e8bd000c 	pop	{r2, r3}
     c08:	e25ef004 	subs	pc, lr, #4

00000c0c <dma_done_isr>:
     c0c:	e24ee004 	sub	lr, lr, #4
     c10:	e92d503f 	push	{r0, r1, r2, r3, r4, r5, ip, lr}
     c14:	e3a02008 	mov	r2, #8
     c18:	e3a03203 	mov	r3, #805306368	; 0x30000000
     c1c:	e5832010 	str	r2, [r3, #16]
     c20:	e59f0084 	ldr	r0, [pc, #132]	; cac <dma_done_isr+0xa0>
     c24:	e5903000 	ldr	r3, [r0]
     c28:	e0832103 	add	r2, r3, r3, lsl #2
     c2c:	e0802102 	add	r2, r0, r2, lsl #2
     c30:	e5921008 	ldr	r1, [r2, #8]
     c34:	e592200c 	ldr	r2, [r2, #12]
     c38:	e2833001 	add	r3, r3, #1
     c3c:	e203300f 	and	r3, r3, #15
     c40:	e5803000 	str	r3, [r0]
     c44:	e5900004 	ldr	r0, [r0, #4]
     c48:	e1530000 	cmp	r3, r0
     c4c:	0a00000c 	beq	c84 <dma_done_isr+0x78>
     c50:	e59f0054 	ldr	r0, [pc, #84]	; cac <dma_done_isr+0xa0>
     c54:	e1a0c103 	lsl	ip, r3, #2
     c58:	e08c4003 	add	r4, ip, r3
     c5c:	e0804104 	add	r4, r0, r4, lsl #2
     c60:	e5945014 	ldr	r5, [r4, #20]
     c64:	e5944018 	ldr	r4, [r4, #24]
     c68:	e08c3003 	add	r3, ip, r3
     c6c:	e0800103 	add	r0, r0, r3, lsl #2
     c70:	e5900010 	ldr	r0, [r0, #16]
     c74:	e3a03203 	mov	r3, #805306368	; 0x30000000
     c78:	e5830004 	str	r0, [r3, #4]
     c7c:	e5835008 	str	r5, [r3, #8]
     c80:	e583400c 	str	r4, [r3, #12]
     c84:	e59f3024 	ldr	r3, [pc, #36]	; cb0 <dma_done_isr+0xa4>
     c88:	e5933008 	ldr	r3, [r3, #8]
     c8c:	e3530000 	cmp	r3, #0
     c90:	0a000001 	beq	c9c <dma_done_isr+0x90>
     c94:	e3a00001 	mov	r0, #1
     c98:	ebfffd5d 	bl	214 <schedule>
     c9c:	e3a02001 	mov	r2, #1
     ca0:	e3a0341f 	mov	r3, #520093696	; 0x1f000000
     ca4:	e5832030 	str	r2, [r3, #48]	; 0x30
     ca8:	e8fd903f 	ldm	sp!, {r0, r1, r2, r3, r4, r5, ip, pc}^
     cac:	00400074 	.word	0x00400074
     cb0:	004001c0 	.word	0x004001c0

00000cb4 <timer1_isr>:
     cb4:	e24ee004 	sub	lr, lr, #4
     cb8:	e92d500f 	push	{r0, r1, r2, r3, ip, lr}
     cbc:	e3a02001 	mov	r2, #1
     cc0:	e3a03411 	mov	r3, #285212672	; 0x11000000
     cc4:	e583200c 	str	r2, [r3, #12]
     cc8:	e59f303c 	ldr	r3, [pc, #60]	; d0c <timer1_isr+0x58>
     ccc:	e5932000 	ldr	r2, [r3]
     cd0:	e2822001 	add	r2, r2, #1
     cd4:	e5832000 	str	r2, [r3]
     cd8:	e59f3030 	ldr	r3, [pc, #48]	; d10 <timer1_isr+0x5c>
     cdc:	e5933010 	ldr	r3, [r3, #16]
     ce0:	e3530000 	cmp	r3, #0
     ce4:	0a000004 	beq	cfc <timer1_isr+0x48>
     ce8:	e59f301c 	ldr	r3, [pc, #28]	; d0c <timer1_isr+0x58>
     cec:	e5931000 	ldr	r1, [r3]
     cf0:	e3a00002 	mov	r0, #2
     cf4:	e3a02000 	mov	r2, #0
     cf8:	ebfffd45 	bl	214 <schedule>
     cfc:	e3a02001 	mov	r2, #1
     d00:	e3a0341f 	mov	r3, #520093696	; 0x1f000000
     d04:	e5832030 	str	r2, [r3, #48]	; 0x30
     d08:	e8fd900f 	ldm	sp!, {r0, r1, r2, r3, ip, pc}^
     d0c:	00400770 	.word	0x00400770
     d10:	004001c0 	.word	0x004001c0

00000d14 <soft_int_isr>:
     d14:	e24ee004 	sub	lr, lr, #4
     d18:	e92d500f 	push	{r0, r1, r2, r3, ip, lr}
     d1c:	e3a02002 	mov	r2, #2
     d20:	e3a0341f 	mov	r3, #520093696	; 0x1f000000
     d24:	e583201c 	str	r2, [r3, #28]
     d28:	e3a02000 	mov	r2, #0
     d2c:	e59f3038 	ldr	r3, [pc, #56]	; d6c <soft_int_isr+0x58>
     d30:	e5c32000 	strb	r2, [r3]
     d34:	e59f3034 	ldr	r3, [pc, #52]	; d70 <soft_int_isr+0x5c>
     d38:	e5933020 	ldr	r3, [r3, #32]
     d3c:	e1530002 	cmp	r3, r2
     d40:	0a000005 	beq	d5c <soft_int_isr+0x48>
     d44:	e3a00004 	mov	r0, #4
     d48:	e59f3024 	ldr	r3, [pc, #36]	; d74 <soft_int_isr+0x60>
     d4c:	e5931000 	ldr	r1, [r3]
     d50:	e59f3020 	ldr	r3, [pc, #32]	; d78 <soft_int_isr+0x64>
     d54:	e5932000 	ldr	r2, [r3]
     d58:	ebfffd2d 	bl	214 <schedule>
     d5c:	e3a02001 	mov	r2, #1
     d60:	e3a0341f 	mov	r3, #520093696	; 0x1f000000
     d64:	e5832030 	str	r2, [r3, #48]	; 0x30
     d68:	e8fd900f 	ldm	sp!, {r0, r1, r2, r3, ip, pc}^
     d6c:	00400ab8 	.word	0x00400ab8
     d70:	004001c0 	.word	0x004001c0
     d74:	004001bc 	.word	0x004001bc
     d78:	00400064 	.word	0x00400064

00000d7c <cc_rx_ready_fiqsr>:
     d7c:	e24ee004 	sub	lr, lr, #4
     d80:	e92d500f 	push	{r0, r1, r2, r3, ip, lr}
     d84:	e3a03201 	mov	r3, #268435456	; 0x10000000
     d88:	e5931010 	ldr	r1, [r3, #16]
     d8c:	e5930014 	ldr	r0, [r3, #20]
     d90:	e59f3008 	ldr	r3, [pc, #8]	; da0 <cc_rx_ready_fiqsr+0x24>
     d94:	e5933000 	ldr	r3, [r3]
     d98:	e12fff33 	blx	r3
     d9c:	e8fd900f 	ldm	sp!, {r0, r1, r2, r3, ip, pc}^
     da0:	004001c0 	.word	0x004001c0

00000da4 <dma_done_fiqsr>:
     da4:	e24ee004 	sub	lr, lr, #4
     da8:	e92d503f 	push	{r0, r1, r2, r3, r4, r5, ip, lr}
     dac:	e3a02008 	mov	r2, #8
     db0:	e3a03203 	mov	r3, #805306368	; 0x30000000
     db4:	e5832010 	str	r2, [r3, #16]
     db8:	e59f206c 	ldr	r2, [pc, #108]	; e2c <dma_done_fiqsr+0x88>
     dbc:	e5923000 	ldr	r3, [r2]
     dc0:	e0831103 	add	r1, r3, r3, lsl #2
     dc4:	e0821101 	add	r1, r2, r1, lsl #2
     dc8:	e5910008 	ldr	r0, [r1, #8]
     dcc:	e591100c 	ldr	r1, [r1, #12]
     dd0:	e2833001 	add	r3, r3, #1
     dd4:	e203300f 	and	r3, r3, #15
     dd8:	e5823000 	str	r3, [r2]
     ddc:	e5922004 	ldr	r2, [r2, #4]
     de0:	e1530002 	cmp	r3, r2
     de4:	0a00000c 	beq	e1c <dma_done_fiqsr+0x78>
     de8:	e59f203c 	ldr	r2, [pc, #60]	; e2c <dma_done_fiqsr+0x88>
     dec:	e1a0c103 	lsl	ip, r3, #2
     df0:	e08ce003 	add	lr, ip, r3
     df4:	e082e10e 	add	lr, r2, lr, lsl #2
     df8:	e59e4014 	ldr	r4, [lr, #20]
     dfc:	e59ee018 	ldr	lr, [lr, #24]
     e00:	e08c3003 	add	r3, ip, r3
     e04:	e0822103 	add	r2, r2, r3, lsl #2
     e08:	e5922010 	ldr	r2, [r2, #16]
     e0c:	e3a03203 	mov	r3, #805306368	; 0x30000000
     e10:	e5832004 	str	r2, [r3, #4]
     e14:	e5834008 	str	r4, [r3, #8]
     e18:	e583e00c 	str	lr, [r3, #12]
     e1c:	e59f300c 	ldr	r3, [pc, #12]	; e30 <dma_done_fiqsr+0x8c>
     e20:	e5933008 	ldr	r3, [r3, #8]
     e24:	e12fff33 	blx	r3
     e28:	e8fd903f 	ldm	sp!, {r0, r1, r2, r3, r4, r5, ip, pc}^
     e2c:	00400074 	.word	0x00400074
     e30:	004001c0 	.word	0x004001c0

00000e34 <timer1_fiqsr>:
     e34:	e24ee004 	sub	lr, lr, #4
     e38:	e92d500f 	push	{r0, r1, r2, r3, ip, lr}
     e3c:	e3a02001 	mov	r2, #1
     e40:	e3a03411 	mov	r3, #285212672	; 0x11000000
     e44:	e583200c 	str	r2, [r3, #12]
     e48:	e59f3020 	ldr	r3, [pc, #32]	; e70 <timer1_fiqsr+0x3c>
     e4c:	e5932000 	ldr	r2, [r3]
     e50:	e2822001 	add	r2, r2, #1
     e54:	e5832000 	str	r2, [r3]
     e58:	e5930000 	ldr	r0, [r3]
     e5c:	e59f3010 	ldr	r3, [pc, #16]	; e74 <timer1_fiqsr+0x40>
     e60:	e5933010 	ldr	r3, [r3, #16]
     e64:	e3a01000 	mov	r1, #0
     e68:	e12fff33 	blx	r3
     e6c:	e8fd900f 	ldm	sp!, {r0, r1, r2, r3, ip, pc}^
     e70:	00400770 	.word	0x00400770
     e74:	004001c0 	.word	0x004001c0

00000e78 <soft_int_fiqsr>:
     e78:	e24ee004 	sub	lr, lr, #4
     e7c:	e92d500f 	push	{r0, r1, r2, r3, ip, lr}
     e80:	e3a02002 	mov	r2, #2
     e84:	e3a0341f 	mov	r3, #520093696	; 0x1f000000
     e88:	e583201c 	str	r2, [r3, #28]
     e8c:	e59f3024 	ldr	r3, [pc, #36]	; eb8 <soft_int_fiqsr+0x40>
     e90:	e5933020 	ldr	r3, [r3, #32]
     e94:	e59f2020 	ldr	r2, [pc, #32]	; ebc <soft_int_fiqsr+0x44>
     e98:	e5920000 	ldr	r0, [r2]
     e9c:	e59f201c 	ldr	r2, [pc, #28]	; ec0 <soft_int_fiqsr+0x48>
     ea0:	e5921000 	ldr	r1, [r2]
     ea4:	e12fff33 	blx	r3
     ea8:	e3a02000 	mov	r2, #0
     eac:	e59f3010 	ldr	r3, [pc, #16]	; ec4 <soft_int_fiqsr+0x4c>
     eb0:	e5c32000 	strb	r2, [r3]
     eb4:	e8fd900f 	ldm	sp!, {r0, r1, r2, r3, ip, pc}^
     eb8:	004001c0 	.word	0x004001c0
     ebc:	004001bc 	.word	0x004001bc
     ec0:	00400064 	.word	0x00400064
     ec4:	00400ab8 	.word	0x00400ab8

00000ec8 <spin1_srand>:
     ec8:	e59f3010 	ldr	r3, [pc, #16]	; ee0 <spin1_srand+0x18>
     ecc:	e5830000 	str	r0, [r3]
     ed0:	e3a02000 	mov	r2, #0
     ed4:	e59f3008 	ldr	r3, [pc, #8]	; ee4 <spin1_srand+0x1c>
     ed8:	e5832000 	str	r2, [r3]
     edc:	e12fff1e 	bx	lr
     ee0:	00400010 	.word	0x00400010
     ee4:	00400760 	.word	0x00400760

00000ee8 <spin1_rand>:
     ee8:	e59f3030 	ldr	r3, [pc, #48]	; f20 <RTR_TST2+0x1c>
     eec:	e5930000 	ldr	r0, [r3]
     ef0:	e59f302c 	ldr	r3, [pc, #44]	; f24 <RTR_TST2+0x20>
     ef4:	e5933000 	ldr	r3, [r3]
     ef8:	e11300a3 	tst	r3, r3, lsr #1
     efc:	e1b02060 	rrxs	r2, r0
     f00:	e0a33003 	adc	r3, r3, r3
     f04:	e0222600 	eor	r2, r2, r0, lsl #12
     f08:	e0220a22 	eor	r0, r2, r2, lsr #20
     f0c:	e59f200c 	ldr	r2, [pc, #12]	; f20 <RTR_TST2+0x1c>
     f10:	e5820000 	str	r0, [r2]
     f14:	e59f2008 	ldr	r2, [pc, #8]	; f24 <RTR_TST2+0x20>
     f18:	e5823000 	str	r3, [r2]
     f1c:	e12fff1e 	bx	lr
     f20:	00400010 	.word	0x00400010
     f24:	00400760 	.word	0x00400760

00000f28 <barrier_setup>:
     f28:	e92d0ff0 	push	{r4, r5, r6, r7, r8, r9, sl, fp}
     f2c:	e24dd010 	sub	sp, sp, #16
     f30:	e59fc200 	ldr	ip, [pc, #512]	; 1138 <RTS_STACK+0x138>
     f34:	e3a03c0f 	mov	r3, #3840	; 0xf00
     f38:	e19c30b3 	ldrh	r3, [ip, r3]
     f3c:	e1a0b423 	lsr	fp, r3, #8
     f40:	e20340ff 	and	r4, r3, #255	; 0xff
     f44:	e58d4008 	str	r4, [sp, #8]
     f48:	e2733001 	rsbs	r3, r3, #1
     f4c:	33a03000 	movcc	r3, #0
     f50:	e58d3004 	str	r3, [sp, #4]
     f54:	e59f31e0 	ldr	r3, [pc, #480]	; 113c <RTS_STACK+0x13c>
     f58:	e59d4004 	ldr	r4, [sp, #4]
     f5c:	e5c34000 	strb	r4, [r3]
     f60:	e3a04000 	mov	r4, #0
     f64:	e1c340b2 	strh	r4, [r3, #2]
     f68:	e5938004 	ldr	r8, [r3, #4]
     f6c:	e1a06108 	lsl	r6, r8, #2
     f70:	e58d600c 	str	r6, [sp, #12]
     f74:	e7925108 	ldr	r5, [r2, r8, lsl #2]
     f78:	e3c55001 	bic	r5, r5, #1
     f7c:	e5dc7fbd 	ldrb	r7, [ip, #4029]	; 0xfbd
     f80:	e3570001 	cmp	r7, #1
     f84:	9a00000f 	bls	fc8 <barrier_setup+0xa0>
     f88:	e3a03001 	mov	r3, #1
     f8c:	e1a0c003 	mov	ip, r3
     f90:	e59fa1a8 	ldr	sl, [pc, #424]	; 1140 <RTS_STACK+0x140>
     f94:	e59f61a0 	ldr	r6, [pc, #416]	; 113c <RTS_STACK+0x13c>
     f98:	e015931c 	ands	r9, r5, ip, lsl r3
     f9c:	0a000005 	beq	fb8 <barrier_setup+0x90>
     fa0:	e7d3900a 	ldrb	r9, [r3, sl]
     fa4:	e2899006 	add	r9, r9, #6
     fa8:	e184491c 	orr	r4, r4, ip, lsl r9
     fac:	e5969008 	ldr	r9, [r6, #8]
     fb0:	e2899001 	add	r9, r9, #1
     fb4:	e5869008 	str	r9, [r6, #8]
     fb8:	e2833001 	add	r3, r3, #1
     fbc:	e1570003 	cmp	r7, r3
     fc0:	8afffff4 	bhi	f98 <barrier_setup+0x70>
     fc4:	ea000000 	b	fcc <barrier_setup+0xa4>
     fc8:	e3a04000 	mov	r4, #0
     fcc:	e35b0000 	cmp	fp, #0
     fd0:	13a05000 	movne	r5, #0
     fd4:	1a00000c 	bne	100c <RTS_STACK+0xc>
     fd8:	e2413001 	sub	r3, r1, #1
     fdc:	e59dc008 	ldr	ip, [sp, #8]
     fe0:	e15c0003 	cmp	ip, r3
     fe4:	23a05000 	movcs	r5, #0
     fe8:	2a000007 	bcs	100c <RTS_STACK+0xc>
     fec:	e59d600c 	ldr	r6, [sp, #12]
     ff0:	e0823006 	add	r3, r2, r6
     ff4:	e5935004 	ldr	r5, [r3, #4]
     ff8:	e3c55001 	bic	r5, r5, #1
     ffc:	e3550000 	cmp	r5, #0
    1000:	13a05004 	movne	r5, #4
    1004:	03a05000 	moveq	r5, #0
    1008:	eaffffff 	b	100c <RTS_STACK+0xc>
    100c:	e2403001 	sub	r3, r0, #1
    1010:	e15b0003 	cmp	fp, r3
    1014:	2a00000c 	bcs	104c <RTS_STACK+0x4c>
    1018:	e59d9008 	ldr	r9, [sp, #8]
    101c:	e3590000 	cmp	r9, #0
    1020:	1a00003c 	bne	1118 <RTS_STACK+0x118>
    1024:	e0813008 	add	r3, r1, r8
    1028:	e7923103 	ldr	r3, [r2, r3, lsl #2]
    102c:	e3d3c001 	bics	ip, r3, #1
    1030:	13855001 	orrne	r5, r5, #1
    1034:	ea000037 	b	1118 <RTS_STACK+0x118>
    1038:	e0883001 	add	r3, r8, r1
    103c:	e2833001 	add	r3, r3, #1
    1040:	e7923103 	ldr	r3, [r2, r3, lsl #2]
    1044:	e3d36001 	bics	r6, r3, #1
    1048:	13855002 	orrne	r5, r5, #2
    104c:	e59d9004 	ldr	r9, [sp, #4]
    1050:	e3590000 	cmp	r9, #0
    1054:	0a000014 	beq	10ac <RTS_STACK+0xac>
    1058:	e0110190 	muls	r1, r0, r1
    105c:	0a00000b 	beq	1090 <RTS_STACK+0x90>
    1060:	e3a03000 	mov	r3, #0
    1064:	e59f00d8 	ldr	r0, [pc, #216]	; 1144 <RTS_STACK+0x144>
    1068:	e1530008 	cmp	r3, r8
    106c:	0a000004 	beq	1084 <RTS_STACK+0x84>
    1070:	e792c103 	ldr	ip, [r2, r3, lsl #2]
    1074:	e3dc6001 	bics	r6, ip, #1
    1078:	1590c000 	ldrne	ip, [r0]
    107c:	128cc001 	addne	ip, ip, #1
    1080:	1580c000 	strne	ip, [r0]
    1084:	e2833001 	add	r3, r3, #1
    1088:	e1530001 	cmp	r3, r1
    108c:	1afffff5 	bne	1068 <RTS_STACK+0x68>
    1090:	e59f30b0 	ldr	r3, [pc, #176]	; 1148 <RTS_STACK+0x148>
    1094:	e5933000 	ldr	r3, [r3]
    1098:	e2833006 	add	r3, r3, #6
    109c:	e3a06001 	mov	r6, #1
    10a0:	e1a06316 	lsl	r6, r6, r3
    10a4:	e1a0c005 	mov	ip, r5
    10a8:	ea000008 	b	10d0 <RTS_STACK+0xd0>
    10ac:	e59f3094 	ldr	r3, [pc, #148]	; 1148 <RTS_STACK+0x148>
    10b0:	e593c000 	ldr	ip, [r3]
    10b4:	e28cc006 	add	ip, ip, #6
    10b8:	e3a03001 	mov	r3, #1
    10bc:	e185cc13 	orr	ip, r5, r3, lsl ip
    10c0:	e59f2084 	ldr	r2, [pc, #132]	; 114c <RTS_STACK+0x14c>
    10c4:	e5926000 	ldr	r6, [r2]
    10c8:	e2066007 	and	r6, r6, #7
    10cc:	e1a06613 	lsl	r6, r3, r6
    10d0:	e59f0078 	ldr	r0, [pc, #120]	; 1150 <RTS_STACK+0x150>
    10d4:	e59f3078 	ldr	r3, [pc, #120]	; 1154 <RTS_STACK+0x154>
    10d8:	e5803004 	str	r3, [r0, #4]
    10dc:	e59f2074 	ldr	r2, [pc, #116]	; 1158 <RTS_STACK+0x158>
    10e0:	e3e01000 	mvn	r1, #0
    10e4:	e5821004 	str	r1, [r2, #4]
    10e8:	e59f306c 	ldr	r3, [pc, #108]	; 115c <RTS_STACK+0x15c>
    10ec:	e583c004 	str	ip, [r3, #4]
    10f0:	e59fc068 	ldr	ip, [pc, #104]	; 1160 <RTS_STACK+0x160>
    10f4:	e580c00c 	str	ip, [r0, #12]
    10f8:	e582100c 	str	r1, [r2, #12]
    10fc:	e583600c 	str	r6, [r3, #12]
    1100:	e24cc003 	sub	ip, ip, #3
    1104:	e580c000 	str	ip, [r0]
    1108:	e5821000 	str	r1, [r2]
    110c:	e1854004 	orr	r4, r5, r4
    1110:	e5834000 	str	r4, [r3]
    1114:	ea000004 	b	112c <RTS_STACK+0x12c>
    1118:	e2413001 	sub	r3, r1, #1
    111c:	e59d9008 	ldr	r9, [sp, #8]
    1120:	e1590003 	cmp	r9, r3
    1124:	3affffc3 	bcc	1038 <RTS_STACK+0x38>
    1128:	eaffffc7 	b	104c <RTS_STACK+0x4c>
    112c:	e28dd010 	add	sp, sp, #16
    1130:	e8bd0ff0 	pop	{r4, r5, r6, r7, r8, r9, sl, fp}
    1134:	e12fff1e 	bx	lr
    1138:	f5007000 	.word	0xf5007000
    113c:	00400764 	.word	0x00400764
    1140:	f5007fa8 	.word	0xf5007fa8
    1144:	00400014 	.word	0x00400014
    1148:	00400060 	.word	0x00400060
    114c:	f1010000 	.word	0xf1010000
    1150:	f1008000 	.word	0xf1008000
    1154:	0ffff801 	.word	0x0ffff801
    1158:	f100c000 	.word	0xf100c000
    115c:	f1004000 	.word	0xf1004000
    1160:	0ffff803 	.word	0x0ffff803

00001164 <spin1_callback_on>:
    1164:	e92d4008 	push	{r3, lr}
    1168:	e59f3060 	ldr	r3, [pc, #96]	; 11d0 <spin1_callback_on+0x6c>
    116c:	e7831180 	str	r1, [r3, r0, lsl #3]
    1170:	e3520000 	cmp	r2, #0
    1174:	aa000011 	bge	11c0 <spin1_callback_on+0x5c>
    1178:	e59f3054 	ldr	r3, [pc, #84]	; 11d4 <spin1_callback_on+0x70>
    117c:	e5933004 	ldr	r3, [r3, #4]
    1180:	e3730001 	cmn	r3, #1
    1184:	11530000 	cmpne	r3, r0
    1188:	1a000005 	bne	11a4 <spin1_callback_on+0x40>
    118c:	e59f303c 	ldr	r3, [pc, #60]	; 11d0 <spin1_callback_on+0x6c>
    1190:	e0833180 	add	r3, r3, r0, lsl #3
    1194:	e5832004 	str	r2, [r3, #4]
    1198:	e59f3034 	ldr	r3, [pc, #52]	; 11d4 <spin1_callback_on+0x70>
    119c:	e5830004 	str	r0, [r3, #4]
    11a0:	e8bd8008 	pop	{r3, pc}
    11a4:	e59f3024 	ldr	r3, [pc, #36]	; 11d0 <spin1_callback_on+0x6c>
    11a8:	e0833180 	add	r3, r3, r0, lsl #3
    11ac:	e3a00000 	mov	r0, #0
    11b0:	e5830004 	str	r0, [r3, #4]
    11b4:	e59f101c 	ldr	r1, [pc, #28]	; 11d8 <spin1_callback_on+0x74>
    11b8:	eb000624 	bl	2a50 <io_printf>
    11bc:	e8bd8008 	pop	{r3, pc}
    11c0:	e59f3008 	ldr	r3, [pc, #8]	; 11d0 <spin1_callback_on+0x6c>
    11c4:	e0830180 	add	r0, r3, r0, lsl #3
    11c8:	e5802004 	str	r2, [r0, #4]
    11cc:	e8bd8008 	pop	{r3, pc}
    11d0:	004001c0 	.word	0x004001c0
    11d4:	00400014 	.word	0x00400014
    11d8:	00002ce4 	.word	0x00002ce4

000011dc <spin1_callback_off>:
    11dc:	e59f3020 	ldr	r3, [pc, #32]	; 1204 <spin1_callback_off+0x28>
    11e0:	e3a02000 	mov	r2, #0
    11e4:	e7832180 	str	r2, [r3, r0, lsl #3]
    11e8:	e0833180 	add	r3, r3, r0, lsl #3
    11ec:	e5933004 	ldr	r3, [r3, #4]
    11f0:	e1530002 	cmp	r3, r2
    11f4:	b3e02000 	mvnlt	r2, #0
    11f8:	b59f3008 	ldrlt	r3, [pc, #8]	; 1208 <spin1_callback_off+0x2c>
    11fc:	b5832004 	strlt	r2, [r3, #4]
    1200:	e12fff1e 	bx	lr
    1204:	004001c0 	.word	0x004001c0
    1208:	00400014 	.word	0x00400014

0000120c <spin1_get_simulation_time>:
    120c:	e59f3004 	ldr	r3, [pc, #4]	; 1218 <spin1_get_simulation_time+0xc>
    1210:	e593000c 	ldr	r0, [r3, #12]
    1214:	e12fff1e 	bx	lr
    1218:	00400764 	.word	0x00400764

0000121c <spin1_set_timer_tick>:
    121c:	e59f3004 	ldr	r3, [pc, #4]	; 1228 <spin1_set_timer_tick+0xc>
    1220:	e5830010 	str	r0, [r3, #16]
    1224:	e12fff1e 	bx	lr
    1228:	00400764 	.word	0x00400764

0000122c <spin1_set_core_map>:
    122c:	e92d41f0 	push	{r4, r5, r6, r7, r8, lr}
    1230:	e1a02001 	mov	r2, r1
    1234:	e3500000 	cmp	r0, #0
    1238:	0a000011 	beq	1284 <spin1_set_core_map+0x58>
    123c:	e59f30dc 	ldr	r3, [pc, #220]	; 1320 <spin1_set_core_map+0xf4>
    1240:	e5d3cfbd 	ldrb	ip, [r3, #4029]	; 0xfbd
    1244:	e1a07001 	mov	r7, r1
    1248:	e0818100 	add	r8, r1, r0, lsl #2
    124c:	e3a06000 	mov	r6, #0
    1250:	e3a05001 	mov	r5, #1
    1254:	e4974004 	ldr	r4, [r7], #4
    1258:	e35c0001 	cmp	ip, #1
    125c:	9a000005 	bls	1278 <spin1_set_core_map+0x4c>
    1260:	e1a03005 	mov	r3, r5
    1264:	e0141315 	ands	r1, r4, r5, lsl r3
    1268:	12866001 	addne	r6, r6, #1
    126c:	e2833001 	add	r3, r3, #1
    1270:	e153000c 	cmp	r3, ip
    1274:	3afffffa 	bcc	1264 <spin1_set_core_map+0x38>
    1278:	e1570008 	cmp	r7, r8
    127c:	1afffff4 	bne	1254 <spin1_set_core_map+0x28>
    1280:	ea000000 	b	1288 <spin1_set_core_map+0x5c>
    1284:	e3a06000 	mov	r6, #0
    1288:	e59f3094 	ldr	r3, [pc, #148]	; 1324 <spin1_set_core_map+0xf8>
    128c:	e5836008 	str	r6, [r3, #8]
    1290:	e5933008 	ldr	r3, [r3, #8]
    1294:	e3530001 	cmp	r3, #1
    1298:	98bd81f0 	popls	{r4, r5, r6, r7, r8, pc}
    129c:	e59f3084 	ldr	r3, [pc, #132]	; 1328 <spin1_set_core_map+0xfc>
    12a0:	e5d33000 	ldrb	r3, [r3]
    12a4:	e3530000 	cmp	r3, #0
    12a8:	08bd81f0 	popeq	{r4, r5, r6, r7, r8, pc}
    12ac:	e3500000 	cmp	r0, #0
    12b0:	ba000004 	blt	12c8 <spin1_set_core_map+0x9c>
    12b4:	e3a03001 	mov	r3, #1
    12b8:	e3a0c102 	mov	ip, #-2147483648	; 0x80000000
    12bc:	e010133c 	ands	r1, r0, ip, lsr r3
    12c0:	0a000006 	beq	12e0 <spin1_set_core_map+0xb4>
    12c4:	ea000000 	b	12cc <spin1_set_core_map+0xa0>
    12c8:	e3a03000 	mov	r3, #0
    12cc:	e263301f 	rsb	r3, r3, #31
    12d0:	e1a000a3 	lsr	r0, r3, #1
    12d4:	e3a01001 	mov	r1, #1
    12d8:	e1a01011 	lsl	r1, r1, r0
    12dc:	ea000004 	b	12f4 <spin1_set_core_map+0xc8>
    12e0:	e2833001 	add	r3, r3, #1
    12e4:	e3530020 	cmp	r3, #32
    12e8:	1afffff3 	bne	12bc <spin1_set_core_map+0x90>
    12ec:	e3a01001 	mov	r1, #1
    12f0:	e3a00000 	mov	r0, #0
    12f4:	e3a03c0f 	mov	r3, #3840	; 0xf00
    12f8:	e59fc020 	ldr	ip, [pc, #32]	; 1320 <spin1_set_core_map+0xf4>
    12fc:	e19c30b3 	ldrh	r3, [ip, r3]
    1300:	e1a0c423 	lsr	ip, r3, #8
    1304:	e20330ff 	and	r3, r3, #255	; 0xff
    1308:	e183001c 	orr	r0, r3, ip, lsl r0
    130c:	e59f3018 	ldr	r3, [pc, #24]	; 132c <spin1_set_core_map+0x100>
    1310:	e5830004 	str	r0, [r3, #4]
    1314:	e1a00001 	mov	r0, r1
    1318:	ebffff02 	bl	f28 <barrier_setup>
    131c:	e8bd81f0 	pop	{r4, r5, r6, r7, r8, pc}
    1320:	f5007000 	.word	0xf5007000
    1324:	00400014 	.word	0x00400014
    1328:	0040006c 	.word	0x0040006c
    132c:	00400764 	.word	0x00400764

00001330 <spin1_application_core_map>:
    1330:	e92d43f8 	push	{r3, r4, r5, r6, r7, r8, r9, lr}
    1334:	e0180190 	muls	r8, r0, r1
    1338:	0a000011 	beq	1384 <spin1_application_core_map+0x54>
    133c:	e59f3090 	ldr	r3, [pc, #144]	; 13d4 <spin1_application_core_map+0xa4>
    1340:	e5d3cfbd 	ldrb	ip, [r3, #4029]	; 0xfbd
    1344:	e1a07002 	mov	r7, r2
    1348:	e0828108 	add	r8, r2, r8, lsl #2
    134c:	e3a06000 	mov	r6, #0
    1350:	e3a05001 	mov	r5, #1
    1354:	e4974004 	ldr	r4, [r7], #4
    1358:	e35c0001 	cmp	ip, #1
    135c:	9a000005 	bls	1378 <spin1_application_core_map+0x48>
    1360:	e1a03005 	mov	r3, r5
    1364:	e0149315 	ands	r9, r4, r5, lsl r3
    1368:	12866001 	addne	r6, r6, #1
    136c:	e2833001 	add	r3, r3, #1
    1370:	e153000c 	cmp	r3, ip
    1374:	3afffffa 	bcc	1364 <spin1_application_core_map+0x34>
    1378:	e1570008 	cmp	r7, r8
    137c:	1afffff4 	bne	1354 <spin1_application_core_map+0x24>
    1380:	ea000000 	b	1388 <spin1_application_core_map+0x58>
    1384:	e3a06000 	mov	r6, #0
    1388:	e59f3048 	ldr	r3, [pc, #72]	; 13d8 <spin1_application_core_map+0xa8>
    138c:	e5836008 	str	r6, [r3, #8]
    1390:	e5933008 	ldr	r3, [r3, #8]
    1394:	e3530001 	cmp	r3, #1
    1398:	98bd83f8 	popls	{r3, r4, r5, r6, r7, r8, r9, pc}
    139c:	e59f3038 	ldr	r3, [pc, #56]	; 13dc <spin1_application_core_map+0xac>
    13a0:	e5d33000 	ldrb	r3, [r3]
    13a4:	e3530000 	cmp	r3, #0
    13a8:	08bd83f8 	popeq	{r3, r4, r5, r6, r7, r8, r9, pc}
    13ac:	e3a03c0f 	mov	r3, #3840	; 0xf00
    13b0:	e59fc01c 	ldr	ip, [pc, #28]	; 13d4 <spin1_application_core_map+0xa4>
    13b4:	e19c30b3 	ldrh	r3, [ip, r3]
    13b8:	e1a0c423 	lsr	ip, r3, #8
    13bc:	e20330ff 	and	r3, r3, #255	; 0xff
    13c0:	e02c3c91 	mla	ip, r1, ip, r3
    13c4:	e59f3014 	ldr	r3, [pc, #20]	; 13e0 <spin1_application_core_map+0xb0>
    13c8:	e583c004 	str	ip, [r3, #4]
    13cc:	ebfffed5 	bl	f28 <barrier_setup>
    13d0:	e8bd83f8 	pop	{r3, r4, r5, r6, r7, r8, r9, pc}
    13d4:	f5007000 	.word	0xf5007000
    13d8:	00400014 	.word	0x00400014
    13dc:	0040006c 	.word	0x0040006c
    13e0:	00400764 	.word	0x00400764

000013e4 <clean_up>:
    13e4:	e10f1000 	mrs	r1, CPSR
    13e8:	e38130c0 	orr	r3, r1, #192	; 0xc0
    13ec:	e121f003 	msr	CPSR_c, r3
    13f0:	e3a0241f 	mov	r2, #520093696	; 0x1f000000
    13f4:	e592300c 	ldr	r3, [r2, #12]
    13f8:	e3c33dc1 	bic	r3, r3, #12352	; 0x3040
    13fc:	e3c33012 	bic	r3, r3, #18
    1400:	e582300c 	str	r3, [r2, #12]
    1404:	e59f3054 	ldr	r3, [pc, #84]	; 1460 <clean_up+0x7c>
    1408:	e5930000 	ldr	r0, [r3]
    140c:	e3a03000 	mov	r3, #0
    1410:	e583003c 	str	r0, [r3, #60]	; 0x3c
    1414:	e59f0048 	ldr	r0, [pc, #72]	; 1464 <clean_up+0x80>
    1418:	e582010c 	str	r0, [r2, #268]	; 0x10c
    141c:	e59f2044 	ldr	r2, [pc, #68]	; 1468 <clean_up+0x84>
    1420:	e5823000 	str	r3, [r2]
    1424:	e5823008 	str	r3, [r2, #8]
    1428:	e5823010 	str	r3, [r2, #16]
    142c:	e5823018 	str	r3, [r2, #24]
    1430:	e5823020 	str	r3, [r2, #32]
    1434:	e3a00001 	mov	r0, #1
    1438:	e3a02411 	mov	r2, #285212672	; 0x11000000
    143c:	e582000c 	str	r0, [r2, #12]
    1440:	e3a02203 	mov	r2, #805306368	; 0x30000000
    1444:	e5823018 	str	r3, [r2, #24]
    1448:	e3a0303f 	mov	r3, #63	; 0x3f
    144c:	e5823010 	str	r3, [r2, #16]
    1450:	e3a0300d 	mov	r3, #13
    1454:	e5823010 	str	r3, [r2, #16]
    1458:	e121f001 	msr	CPSR_c, r1
    145c:	e12fff1e 	bx	lr
    1460:	00400030 	.word	0x00400030
    1464:	00000a14 	.word	0x00000a14
    1468:	004001c0 	.word	0x004001c0

0000146c <report_debug>:
    146c:	e12fff1e 	bx	lr

00001470 <report_warns>:
    1470:	e92d4008 	push	{r3, lr}
    1474:	e59f3068 	ldr	r3, [pc, #104]	; 14e4 <report_warns+0x74>
    1478:	e5933014 	ldr	r3, [r3, #20]
    147c:	e3130001 	tst	r3, #1
    1480:	0a000004 	beq	1498 <report_warns+0x28>
    1484:	e3a00000 	mov	r0, #0
    1488:	e59f1058 	ldr	r1, [pc, #88]	; 14e8 <report_warns+0x78>
    148c:	e59f3050 	ldr	r3, [pc, #80]	; 14e4 <report_warns+0x74>
    1490:	e5932018 	ldr	r2, [r3, #24]
    1494:	eb00056d 	bl	2a50 <io_printf>
    1498:	e59f3044 	ldr	r3, [pc, #68]	; 14e4 <report_warns+0x74>
    149c:	e5933014 	ldr	r3, [r3, #20]
    14a0:	e3130002 	tst	r3, #2
    14a4:	0a000004 	beq	14bc <report_warns+0x4c>
    14a8:	e3a00000 	mov	r0, #0
    14ac:	e59f1038 	ldr	r1, [pc, #56]	; 14ec <report_warns+0x7c>
    14b0:	e59f302c 	ldr	r3, [pc, #44]	; 14e4 <report_warns+0x74>
    14b4:	e593201c 	ldr	r2, [r3, #28]
    14b8:	eb000564 	bl	2a50 <io_printf>
    14bc:	e59f3020 	ldr	r3, [pc, #32]	; 14e4 <report_warns+0x74>
    14c0:	e5933014 	ldr	r3, [r3, #20]
    14c4:	e3130004 	tst	r3, #4
    14c8:	08bd8008 	popeq	{r3, pc}
    14cc:	e3a00000 	mov	r0, #0
    14d0:	e59f1018 	ldr	r1, [pc, #24]	; 14f0 <report_warns+0x80>
    14d4:	e59f3008 	ldr	r3, [pc, #8]	; 14e4 <report_warns+0x74>
    14d8:	e5932020 	ldr	r2, [r3, #32]
    14dc:	eb00055b 	bl	2a50 <io_printf>
    14e0:	e8bd8008 	pop	{r3, pc}
    14e4:	00400764 	.word	0x00400764
    14e8:	00002d10 	.word	0x00002d10
    14ec:	00002d3c 	.word	0x00002d3c
    14f0:	00002d68 	.word	0x00002d68

000014f4 <spin1_stop>:
    14f4:	e59f2018 	ldr	r2, [pc, #24]	; 1514 <spin1_stop+0x20>
    14f8:	e3a0341f 	mov	r3, #520093696	; 0x1f000000
    14fc:	e5832014 	str	r2, [r3, #20]
    1500:	e59f3010 	ldr	r3, [pc, #16]	; 1518 <spin1_stop+0x24>
    1504:	e3a02000 	mov	r2, #0
    1508:	e5832024 	str	r2, [r3, #36]	; 0x24
    150c:	e5832028 	str	r2, [r3, #40]	; 0x28
    1510:	e12fff1e 	bx	lr
    1514:	00003052 	.word	0x00003052
    1518:	00400764 	.word	0x00400764

0000151c <spin1_delay_us>:
    151c:	e3a03ef2 	mov	r3, #3872	; 0xf20
    1520:	e59f2018 	ldr	r2, [pc, #24]	; 1540 <spin1_delay_us+0x24>
    1524:	e19230b3 	ldrh	r3, [r2, r3]
    1528:	e0000093 	mul	r0, r3, r0
    152c:	e1a00120 	lsr	r0, r0, #2
    1530:	e2400001 	sub	r0, r0, #1
    1534:	e3700001 	cmn	r0, #1
    1538:	1afffffc 	bne	1530 <spin1_delay_us+0x14>
    153c:	e12fff1e 	bx	lr
    1540:	f5007000 	.word	0xf5007000

00001544 <spin1_dma_transfer>:
    1544:	e92d03f0 	push	{r4, r5, r6, r7, r8, r9}
    1548:	e1a08000 	mov	r8, r0
    154c:	e10f7000 	mrs	r7, CPSR
    1550:	e38700c0 	orr	r0, r7, #192	; 0xc0
    1554:	e121f000 	msr	CPSR_c, r0
    1558:	e59fc0ac 	ldr	ip, [pc, #172]	; 160c <spin1_dma_transfer+0xc8>
    155c:	e59c4004 	ldr	r4, [ip, #4]
    1560:	e2845001 	add	r5, r4, #1
    1564:	e205500f 	and	r5, r5, #15
    1568:	e59c6000 	ldr	r6, [ip]
    156c:	e1560005 	cmp	r6, r5
    1570:	0a00001a 	beq	15e0 <spin1_dma_transfer+0x9c>
    1574:	e59fc094 	ldr	ip, [pc, #148]	; 1610 <spin1_dma_transfer+0xcc>
    1578:	e59c000c 	ldr	r0, [ip, #12]
    157c:	e2809001 	add	r9, r0, #1
    1580:	e58c900c 	str	r9, [ip, #12]
    1584:	e59dc018 	ldr	ip, [sp, #24]
    1588:	e38cc506 	orr	ip, ip, #25165824	; 0x1800000
    158c:	e18c3983 	orr	r3, ip, r3, lsl #19
    1590:	e084c104 	add	ip, r4, r4, lsl #2
    1594:	e59f9070 	ldr	r9, [pc, #112]	; 160c <spin1_dma_transfer+0xc8>
    1598:	e089c10c 	add	ip, r9, ip, lsl #2
    159c:	e58c0008 	str	r0, [ip, #8]
    15a0:	e58c800c 	str	r8, [ip, #12]
    15a4:	e58c1010 	str	r1, [ip, #16]
    15a8:	e58c2014 	str	r2, [ip, #20]
    15ac:	e58c3018 	str	r3, [ip, #24]
    15b0:	e3a0c203 	mov	ip, #805306368	; 0x30000000
    15b4:	e59cc014 	ldr	ip, [ip, #20]
    15b8:	e31c0004 	tst	ip, #4
    15bc:	1a000004 	bne	15d4 <spin1_dma_transfer+0x90>
    15c0:	e1540006 	cmp	r4, r6
    15c4:	03a0c203 	moveq	ip, #805306368	; 0x30000000
    15c8:	058c1004 	streq	r1, [ip, #4]
    15cc:	058c2008 	streq	r2, [ip, #8]
    15d0:	058c300c 	streq	r3, [ip, #12]
    15d4:	e59f3030 	ldr	r3, [pc, #48]	; 160c <spin1_dma_transfer+0xc8>
    15d8:	e5835004 	str	r5, [r3, #4]
    15dc:	ea000007 	b	1600 <spin1_dma_transfer+0xbc>
    15e0:	e59f302c 	ldr	r3, [pc, #44]	; 1614 <spin1_dma_transfer+0xd0>
    15e4:	e5932014 	ldr	r2, [r3, #20]
    15e8:	e3822002 	orr	r2, r2, #2
    15ec:	e5832014 	str	r2, [r3, #20]
    15f0:	e593201c 	ldr	r2, [r3, #28]
    15f4:	e2822001 	add	r2, r2, #1
    15f8:	e583201c 	str	r2, [r3, #28]
    15fc:	e3a00000 	mov	r0, #0
    1600:	e121f007 	msr	CPSR_c, r7
    1604:	e8bd03f0 	pop	{r4, r5, r6, r7, r8, r9}
    1608:	e12fff1e 	bx	lr
    160c:	00400074 	.word	0x00400074
    1610:	00400014 	.word	0x00400014
    1614:	00400764 	.word	0x00400764

00001618 <spin1_memcpy>:
    1618:	e3520000 	cmp	r2, #0
    161c:	012fff1e 	bxeq	lr
    1620:	e0802002 	add	r2, r0, r2
    1624:	e4d13001 	ldrb	r3, [r1], #1
    1628:	e4c03001 	strb	r3, [r0], #1
    162c:	e1500002 	cmp	r0, r2
    1630:	1afffffb 	bne	1624 <spin1_memcpy+0xc>
    1634:	e12fff1e 	bx	lr

00001638 <spin1_flush_rx_packet_queue>:
    1638:	e52d4004 	push	{r4}		; (str r4, [sp, #-4]!)
    163c:	e10f4000 	mrs	r4, CPSR
    1640:	e3843080 	orr	r3, r4, #128	; 0x80
    1644:	e121f003 	msr	CPSR_c, r3
    1648:	e59f3044 	ldr	r3, [pc, #68]	; 1694 <spin1_flush_rx_packet_queue+0x5c>
    164c:	e5930000 	ldr	r0, [r3]
    1650:	e5933004 	ldr	r3, [r3, #4]
    1654:	e2433001 	sub	r3, r3, #1
    1658:	e3a010c8 	mov	r1, #200	; 0xc8
    165c:	e59f2034 	ldr	r2, [pc, #52]	; 1698 <spin1_flush_rx_packet_queue+0x60>
    1660:	e0232391 	mla	r3, r1, r3, r2
    1664:	e3a02000 	mov	r2, #0
    1668:	e1a0c002 	mov	ip, r2
    166c:	e5931008 	ldr	r1, [r3, #8]
    1670:	e1510000 	cmp	r1, r0
    1674:	0583c008 	streq	ip, [r3, #8]
    1678:	e2822001 	add	r2, r2, #1
    167c:	e283300c 	add	r3, r3, #12
    1680:	e3520010 	cmp	r2, #16
    1684:	1afffff8 	bne	166c <spin1_flush_rx_packet_queue+0x34>
    1688:	e121f004 	msr	CPSR_c, r4
    168c:	e49d4004 	pop	{r4}		; (ldr r4, [sp], #4)
    1690:	e12fff1e 	bx	lr
    1694:	004001c0 	.word	0x004001c0
    1698:	00400790 	.word	0x00400790

0000169c <spin1_flush_tx_packet_queue>:
    169c:	e10f2000 	mrs	r2, CPSR
    16a0:	e3823080 	orr	r3, r2, #128	; 0x80
    16a4:	e121f003 	msr	CPSR_c, r3
    16a8:	e59f300c 	ldr	r3, [pc, #12]	; 16bc <spin1_flush_tx_packet_queue+0x20>
    16ac:	e5931004 	ldr	r1, [r3, #4]
    16b0:	e5831000 	str	r1, [r3]
    16b4:	e121f002 	msr	CPSR_c, r2
    16b8:	e12fff1e 	bx	lr
    16bc:	004001e8 	.word	0x004001e8

000016c0 <spin1_send_mc_packet>:
    16c0:	e92d00f0 	push	{r4, r5, r6, r7}
    16c4:	e10fc000 	mrs	ip, CPSR
    16c8:	e38c3080 	orr	r3, ip, #128	; 0x80
    16cc:	e121f003 	msr	CPSR_c, r3
    16d0:	e3a03201 	mov	r3, #268435456	; 0x10000000
    16d4:	e3a04000 	mov	r4, #0
    16d8:	e5834000 	str	r4, [r3]
    16dc:	e5933000 	ldr	r3, [r3]
    16e0:	e3130101 	tst	r3, #1073741824	; 0x40000000
    16e4:	0a00001c 	beq	175c <spin1_send_mc_packet+0x9c>
    16e8:	e59f4130 	ldr	r4, [pc, #304]	; 1820 <spin1_send_mc_packet+0x160>
    16ec:	e5943004 	ldr	r3, [r4, #4]
    16f0:	e2835001 	add	r5, r3, #1
    16f4:	e205500f 	and	r5, r5, #15
    16f8:	e5944000 	ldr	r4, [r4]
    16fc:	e1550004 	cmp	r5, r4
    1700:	1a000008 	bne	1728 <spin1_send_mc_packet+0x68>
    1704:	e59f3118 	ldr	r3, [pc, #280]	; 1824 <spin1_send_mc_packet+0x164>
    1708:	e5932014 	ldr	r2, [r3, #20]
    170c:	e3822004 	orr	r2, r2, #4
    1710:	e5832014 	str	r2, [r3, #20]
    1714:	e5932020 	ldr	r2, [r3, #32]
    1718:	e2822001 	add	r2, r2, #1
    171c:	e5832020 	str	r2, [r3, #32]
    1720:	e3a00000 	mov	r0, #0
    1724:	ea00003a 	b	1814 <spin1_send_mc_packet+0x154>
    1728:	e59f40f0 	ldr	r4, [pc, #240]	; 1820 <spin1_send_mc_packet+0x160>
    172c:	e1a06083 	lsl	r6, r3, #1
    1730:	e0867003 	add	r7, r6, r3
    1734:	e0847107 	add	r7, r4, r7, lsl #2
    1738:	e5870008 	str	r0, [r7, #8]
    173c:	e587100c 	str	r1, [r7, #12]
    1740:	e5872010 	str	r2, [r7, #16]
    1744:	e5845004 	str	r5, [r4, #4]
    1748:	e3a02b02 	mov	r2, #2048	; 0x800
    174c:	e3a0341f 	mov	r3, #520093696	; 0x1f000000
    1750:	e5832010 	str	r2, [r3, #16]
    1754:	e3a00001 	mov	r0, #1
    1758:	ea00002d 	b	1814 <spin1_send_mc_packet+0x154>
    175c:	e59f30bc 	ldr	r3, [pc, #188]	; 1820 <spin1_send_mc_packet+0x160>
    1760:	e5934004 	ldr	r4, [r3, #4]
    1764:	e2844001 	add	r4, r4, #1
    1768:	e204400f 	and	r4, r4, #15
    176c:	e5933000 	ldr	r3, [r3]
    1770:	e1540003 	cmp	r4, r3
    1774:	1a00000d 	bne	17b0 <spin1_send_mc_packet+0xf0>
    1778:	e59f50a0 	ldr	r5, [pc, #160]	; 1820 <spin1_send_mc_packet+0x160>
    177c:	e0843084 	add	r3, r4, r4, lsl #1
    1780:	e0853103 	add	r3, r5, r3, lsl #2
    1784:	e5936008 	ldr	r6, [r3, #8]
    1788:	e593700c 	ldr	r7, [r3, #12]
    178c:	e5933010 	ldr	r3, [r3, #16]
    1790:	e2844001 	add	r4, r4, #1
    1794:	e204400f 	and	r4, r4, #15
    1798:	e5854000 	str	r4, [r5]
    179c:	e3530000 	cmp	r3, #0
    17a0:	13a03201 	movne	r3, #268435456	; 0x10000000
    17a4:	15837004 	strne	r7, [r3, #4]
    17a8:	e3a03201 	mov	r3, #268435456	; 0x10000000
    17ac:	e5836008 	str	r6, [r3, #8]
    17b0:	e59f4068 	ldr	r4, [pc, #104]	; 1820 <spin1_send_mc_packet+0x160>
    17b4:	e5943004 	ldr	r3, [r4, #4]
    17b8:	e5944000 	ldr	r4, [r4]
    17bc:	e1540003 	cmp	r4, r3
    17c0:	1a000009 	bne	17ec <spin1_send_mc_packet+0x12c>
    17c4:	e3520000 	cmp	r2, #0
    17c8:	13a03201 	movne	r3, #268435456	; 0x10000000
    17cc:	15831004 	strne	r1, [r3, #4]
    17d0:	e3a03201 	mov	r3, #268435456	; 0x10000000
    17d4:	e5830008 	str	r0, [r3, #8]
    17d8:	e3a02b02 	mov	r2, #2048	; 0x800
    17dc:	e3a0341f 	mov	r3, #520093696	; 0x1f000000
    17e0:	e5832014 	str	r2, [r3, #20]
    17e4:	e3a00001 	mov	r0, #1
    17e8:	ea000009 	b	1814 <spin1_send_mc_packet+0x154>
    17ec:	e59f502c 	ldr	r5, [pc, #44]	; 1820 <spin1_send_mc_packet+0x160>
    17f0:	e0834083 	add	r4, r3, r3, lsl #1
    17f4:	e0854104 	add	r4, r5, r4, lsl #2
    17f8:	e5840008 	str	r0, [r4, #8]
    17fc:	e584100c 	str	r1, [r4, #12]
    1800:	e5842010 	str	r2, [r4, #16]
    1804:	e2833001 	add	r3, r3, #1
    1808:	e203300f 	and	r3, r3, #15
    180c:	e5853004 	str	r3, [r5, #4]
    1810:	e3a00001 	mov	r0, #1
    1814:	e121f00c 	msr	CPSR_c, ip
    1818:	e8bd00f0 	pop	{r4, r5, r6, r7}
    181c:	e12fff1e 	bx	lr
    1820:	004001e8 	.word	0x004001e8
    1824:	00400764 	.word	0x00400764

00001828 <spin1_start>:
    1828:	e92d47f0 	push	{r4, r5, r6, r7, r8, r9, sl, lr}
    182c:	e24dd010 	sub	sp, sp, #16
    1830:	e3a01000 	mov	r1, #0
    1834:	e3a03201 	mov	r3, #268435456	; 0x10000000
    1838:	e5831000 	str	r1, [r3]
    183c:	e3a03203 	mov	r3, #805306368	; 0x30000000
    1840:	e3a0203f 	mov	r2, #63	; 0x3f
    1844:	e5832010 	str	r2, [r3, #16]
    1848:	e3a0200d 	mov	r2, #13
    184c:	e5832010 	str	r2, [r3, #16]
    1850:	e3a02b03 	mov	r2, #3072	; 0xc00
    1854:	e5832018 	str	r2, [r3, #24]
    1858:	e59f359c 	ldr	r3, [pc, #1436]	; 1dfc <spin1_start+0x5d4>
    185c:	e5930010 	ldr	r0, [r3, #16]
    1860:	e3a03411 	mov	r3, #285212672	; 0x11000000
    1864:	e5831008 	str	r1, [r3, #8]
    1868:	e3a02001 	mov	r2, #1
    186c:	e583200c 	str	r2, [r3, #12]
    1870:	e3a02ef2 	mov	r2, #3872	; 0xf20
    1874:	e59f1584 	ldr	r1, [pc, #1412]	; 1e00 <spin1_start+0x5d8>
    1878:	e19120b2 	ldrh	r2, [r1, r2]
    187c:	e0020290 	mul	r2, r0, r2
    1880:	e5832000 	str	r2, [r3]
    1884:	e5832018 	str	r2, [r3, #24]
    1888:	e59f2574 	ldr	r2, [pc, #1396]	; 1e04 <spin1_start+0x5dc>
    188c:	e3a0341f 	mov	r3, #520093696	; 0x1f000000
    1890:	e5832014 	str	r2, [r3, #20]
    1894:	e59f356c 	ldr	r3, [pc, #1388]	; 1e08 <spin1_start+0x5e0>
    1898:	e5933004 	ldr	r3, [r3, #4]
    189c:	e3530004 	cmp	r3, #4
    18a0:	979ff103 	ldrls	pc, [pc, r3, lsl #2]
    18a4:	ea000017 	b	1908 <spin1_start+0xe0>
    18a8:	000018bc 	.word	0x000018bc
    18ac:	000018cc 	.word	0x000018cc
    18b0:	000018e0 	.word	0x000018e0
    18b4:	00001908 	.word	0x00001908
    18b8:	000018f4 	.word	0x000018f4
    18bc:	e3a00000 	mov	r0, #0
    18c0:	e59f3544 	ldr	r3, [pc, #1348]	; 1e0c <spin1_start+0x5e4>
    18c4:	e580303c 	str	r3, [r0, #60]	; 0x3c
    18c8:	ea00000f 	b	190c <spin1_start+0xe4>
    18cc:	e59f253c 	ldr	r2, [pc, #1340]	; 1e10 <spin1_start+0x5e8>
    18d0:	e3a03000 	mov	r3, #0
    18d4:	e583203c 	str	r2, [r3, #60]	; 0x3c
    18d8:	e3a00a01 	mov	r0, #4096	; 0x1000
    18dc:	ea00000a 	b	190c <spin1_start+0xe4>
    18e0:	e59f252c 	ldr	r2, [pc, #1324]	; 1e14 <spin1_start+0x5ec>
    18e4:	e3a03000 	mov	r3, #0
    18e8:	e583203c 	str	r2, [r3, #60]	; 0x3c
    18ec:	e3a00010 	mov	r0, #16
    18f0:	ea000005 	b	190c <spin1_start+0xe4>
    18f4:	e59f251c 	ldr	r2, [pc, #1308]	; 1e18 <spin1_start+0x5f0>
    18f8:	e3a03000 	mov	r3, #0
    18fc:	e583203c 	str	r2, [r3, #60]	; 0x3c
    1900:	e3a00002 	mov	r0, #2
    1904:	ea000000 	b	190c <spin1_start+0xe4>
    1908:	e3a00000 	mov	r0, #0
    190c:	e3a0341f 	mov	r3, #520093696	; 0x1f000000
    1910:	e59f1504 	ldr	r1, [pc, #1284]	; 1e1c <spin1_start+0x5f4>
    1914:	e5831108 	str	r1, [r3, #264]	; 0x108
    1918:	e3a0102c 	mov	r1, #44	; 0x2c
    191c:	e5831208 	str	r1, [r3, #520]	; 0x208
    1920:	e59f14f8 	ldr	r1, [pc, #1272]	; 1e20 <spin1_start+0x5f8>
    1924:	e5831104 	str	r1, [r3, #260]	; 0x104
    1928:	e3a01024 	mov	r1, #36	; 0x24
    192c:	e5831204 	str	r1, [r3, #516]	; 0x204
    1930:	e59f14ec 	ldr	r1, [pc, #1260]	; 1e24 <spin1_start+0x5fc>
    1934:	e5831110 	str	r1, [r3, #272]	; 0x110
    1938:	e3a0102b 	mov	r1, #43	; 0x2b
    193c:	e5831210 	str	r1, [r3, #528]	; 0x210
    1940:	e59f14e0 	ldr	r1, [pc, #1248]	; 1e28 <spin1_start+0x600>
    1944:	e5831114 	str	r1, [r3, #276]	; 0x114
    1948:	e3a01021 	mov	r1, #33	; 0x21
    194c:	e5831214 	str	r1, [r3, #532]	; 0x214
    1950:	e593200c 	ldr	r2, [r3, #12]
    1954:	e3c22a03 	bic	r2, r2, #12288	; 0x3000
    1958:	e3c22012 	bic	r2, r2, #18
    195c:	e1802002 	orr	r2, r0, r2
    1960:	e583200c 	str	r2, [r3, #12]
    1964:	e59f24c0 	ldr	r2, [pc, #1216]	; 1e2c <spin1_start+0x604>
    1968:	e5832010 	str	r2, [r3, #16]
    196c:	e59f3488 	ldr	r3, [pc, #1160]	; 1dfc <spin1_start+0x5d4>
    1970:	e3a02000 	mov	r2, #0
    1974:	e5832014 	str	r2, [r3, #20]
    1978:	e583201c 	str	r2, [r3, #28]
    197c:	e5832018 	str	r2, [r3, #24]
    1980:	e5832020 	str	r2, [r3, #32]
    1984:	e59f347c 	ldr	r3, [pc, #1148]	; 1e08 <spin1_start+0x5e0>
    1988:	e5933008 	ldr	r3, [r3, #8]
    198c:	e3530001 	cmp	r3, #1
    1990:	9a0000b0 	bls	1c58 <spin1_start+0x430>
    1994:	e59f3494 	ldr	r3, [pc, #1172]	; 1e30 <spin1_start+0x608>
    1998:	e5d33000 	ldrb	r3, [r3]
    199c:	e1530002 	cmp	r3, r2
    19a0:	0a00007a 	beq	1b90 <spin1_start+0x368>
    19a4:	e3e02041 	mvn	r2, #65	; 0x41
    19a8:	e59f3450 	ldr	r3, [pc, #1104]	; 1e00 <spin1_start+0x5d8>
    19ac:	e5c32fbc 	strb	r2, [r3, #4028]	; 0xfbc
    19b0:	e59f3444 	ldr	r3, [pc, #1092]	; 1dfc <spin1_start+0x5d4>
    19b4:	e5d33000 	ldrb	r3, [r3]
    19b8:	e3530000 	cmp	r3, #0
    19bc:	0a000043 	beq	1ad0 <spin1_start+0x2a8>
    19c0:	e59f046c 	ldr	r0, [pc, #1132]	; 1e34 <spin1_start+0x60c>
    19c4:	e3a01000 	mov	r1, #0
    19c8:	e1a02001 	mov	r2, r1
    19cc:	ebffff3b 	bl	16c0 <spin1_send_mc_packet>
    19d0:	e59f3428 	ldr	r3, [pc, #1064]	; 1e00 <spin1_start+0x5d8>
    19d4:	e5935f10 	ldr	r5, [r3, #3856]	; 0xf10
    19d8:	e1a01005 	mov	r1, r5
    19dc:	e1a04003 	mov	r4, r3
    19e0:	e59f8450 	ldr	r8, [pc, #1104]	; 1e38 <spin1_start+0x610>
    19e4:	e59f7450 	ldr	r7, [pc, #1104]	; 1e3c <spin1_start+0x614>
    19e8:	e59f640c 	ldr	r6, [pc, #1036]	; 1dfc <spin1_start+0x5d4>
    19ec:	e59fa44c 	ldr	sl, [pc, #1100]	; 1e40 <spin1_start+0x618>
    19f0:	e59f9410 	ldr	r9, [pc, #1040]	; 1e08 <spin1_start+0x5e0>
    19f4:	ea000008 	b	1a1c <spin1_start+0x1f4>
    19f8:	e5943f10 	ldr	r3, [r4, #3856]	; 0xf10
    19fc:	e0613003 	rsb	r3, r1, r3
    1a00:	e3530064 	cmp	r3, #100	; 0x64
    1a04:	9a000004 	bls	1a1c <spin1_start+0x1f4>
    1a08:	e59f0424 	ldr	r0, [pc, #1060]	; 1e34 <spin1_start+0x60c>
    1a0c:	e3a01000 	mov	r1, #0
    1a10:	e1a02001 	mov	r2, r1
    1a14:	ebffff29 	bl	16c0 <spin1_send_mc_packet>
    1a18:	e5941f10 	ldr	r1, [r4, #3856]	; 0xf10
    1a1c:	e5943f10 	ldr	r3, [r4, #3856]	; 0xf10
    1a20:	e0653003 	rsb	r3, r5, r3
    1a24:	e1530008 	cmp	r3, r8
    1a28:	8a000007 	bhi	1a4c <spin1_start+0x224>
    1a2c:	e5972000 	ldr	r2, [r7]
    1a30:	e5963008 	ldr	r3, [r6, #8]
    1a34:	e1520003 	cmp	r2, r3
    1a38:	3affffee 	bcc	19f8 <spin1_start+0x1d0>
    1a3c:	e59a2000 	ldr	r2, [sl]
    1a40:	e5993000 	ldr	r3, [r9]
    1a44:	e1520003 	cmp	r2, r3
    1a48:	3affffea 	bcc	19f8 <spin1_start+0x1d0>
    1a4c:	e59f33e8 	ldr	r3, [pc, #1000]	; 1e3c <spin1_start+0x614>
    1a50:	e5932000 	ldr	r2, [r3]
    1a54:	e59f33a0 	ldr	r3, [pc, #928]	; 1dfc <spin1_start+0x5d4>
    1a58:	e5933008 	ldr	r3, [r3, #8]
    1a5c:	e1520003 	cmp	r2, r3
    1a60:	1a000005 	bne	1a7c <spin1_start+0x254>
    1a64:	e59f33d4 	ldr	r3, [pc, #980]	; 1e40 <spin1_start+0x618>
    1a68:	e5932000 	ldr	r2, [r3]
    1a6c:	e59f3394 	ldr	r3, [pc, #916]	; 1e08 <spin1_start+0x5e0>
    1a70:	e5933000 	ldr	r3, [r3]
    1a74:	e1520003 	cmp	r2, r3
    1a78:	0a00000f 	beq	1abc <spin1_start+0x294>
    1a7c:	e59f3378 	ldr	r3, [pc, #888]	; 1dfc <spin1_start+0x5d4>
    1a80:	e5932014 	ldr	r2, [r3, #20]
    1a84:	e3822010 	orr	r2, r2, #16
    1a88:	e5832014 	str	r2, [r3, #20]
    1a8c:	e59f23a8 	ldr	r2, [pc, #936]	; 1e3c <spin1_start+0x614>
    1a90:	e5922000 	ldr	r2, [r2]
    1a94:	e5933008 	ldr	r3, [r3, #8]
    1a98:	e59f13a0 	ldr	r1, [pc, #928]	; 1e40 <spin1_start+0x618>
    1a9c:	e5910000 	ldr	r0, [r1]
    1aa0:	e59f1360 	ldr	r1, [pc, #864]	; 1e08 <spin1_start+0x5e0>
    1aa4:	e5911000 	ldr	r1, [r1]
    1aa8:	e58d0000 	str	r0, [sp]
    1aac:	e58d1004 	str	r1, [sp, #4]
    1ab0:	e3a00000 	mov	r0, #0
    1ab4:	e59f1388 	ldr	r1, [pc, #904]	; 1e44 <spin1_start+0x61c>
    1ab8:	eb0003e4 	bl	2a50 <io_printf>
    1abc:	e59f0384 	ldr	r0, [pc, #900]	; 1e48 <spin1_start+0x620>
    1ac0:	e3a01000 	mov	r1, #0
    1ac4:	e1a02001 	mov	r2, r1
    1ac8:	ebfffefc 	bl	16c0 <spin1_send_mc_packet>
    1acc:	ea000049 	b	1bf8 <spin1_start+0x3d0>
    1ad0:	e59f3328 	ldr	r3, [pc, #808]	; 1e00 <spin1_start+0x5d8>
    1ad4:	e5934f10 	ldr	r4, [r3, #3856]	; 0xf10
    1ad8:	e1a0e003 	mov	lr, r3
    1adc:	e59fc354 	ldr	ip, [pc, #852]	; 1e38 <spin1_start+0x610>
    1ae0:	e59f0354 	ldr	r0, [pc, #852]	; 1e3c <spin1_start+0x614>
    1ae4:	e59f1310 	ldr	r1, [pc, #784]	; 1dfc <spin1_start+0x5d4>
    1ae8:	e59e3f10 	ldr	r3, [lr, #3856]	; 0xf10
    1aec:	e0643003 	rsb	r3, r4, r3
    1af0:	e153000c 	cmp	r3, ip
    1af4:	8a000006 	bhi	1b14 <spin1_start+0x2ec>
    1af8:	e5902000 	ldr	r2, [r0]
    1afc:	e5913008 	ldr	r3, [r1, #8]
    1b00:	e1520003 	cmp	r2, r3
    1b04:	3afffff7 	bcc	1ae8 <spin1_start+0x2c0>
    1b08:	e591334c 	ldr	r3, [r1, #844]	; 0x34c
    1b0c:	e3530000 	cmp	r3, #0
    1b10:	0afffff4 	beq	1ae8 <spin1_start+0x2c0>
    1b14:	e59f3320 	ldr	r3, [pc, #800]	; 1e3c <spin1_start+0x614>
    1b18:	e5932000 	ldr	r2, [r3]
    1b1c:	e59f32d8 	ldr	r3, [pc, #728]	; 1dfc <spin1_start+0x5d4>
    1b20:	e5933008 	ldr	r3, [r3, #8]
    1b24:	e1520003 	cmp	r2, r3
    1b28:	0a000009 	beq	1b54 <spin1_start+0x32c>
    1b2c:	e59f32c8 	ldr	r3, [pc, #712]	; 1dfc <spin1_start+0x5d4>
    1b30:	e3a02010 	mov	r2, #16
    1b34:	e5832014 	str	r2, [r3, #20]
    1b38:	e59f22fc 	ldr	r2, [pc, #764]	; 1e3c <spin1_start+0x614>
    1b3c:	e5922000 	ldr	r2, [r2]
    1b40:	e5933008 	ldr	r3, [r3, #8]
    1b44:	e3a00000 	mov	r0, #0
    1b48:	e59f12fc 	ldr	r1, [pc, #764]	; 1e4c <spin1_start+0x624>
    1b4c:	eb0003bf 	bl	2a50 <io_printf>
    1b50:	ea000009 	b	1b7c <spin1_start+0x354>
    1b54:	e59f32a0 	ldr	r3, [pc, #672]	; 1dfc <spin1_start+0x5d4>
    1b58:	e593334c 	ldr	r3, [r3, #844]	; 0x34c
    1b5c:	e3530000 	cmp	r3, #0
    1b60:	1a000005 	bne	1b7c <spin1_start+0x354>
    1b64:	e3a02010 	mov	r2, #16
    1b68:	e59f328c 	ldr	r3, [pc, #652]	; 1dfc <spin1_start+0x5d4>
    1b6c:	e5832014 	str	r2, [r3, #20]
    1b70:	e3a00000 	mov	r0, #0
    1b74:	e59f12d4 	ldr	r1, [pc, #724]	; 1e50 <spin1_start+0x628>
    1b78:	eb0003b4 	bl	2a50 <io_printf>
    1b7c:	e59f02d0 	ldr	r0, [pc, #720]	; 1e54 <spin1_start+0x62c>
    1b80:	e3a01000 	mov	r1, #0
    1b84:	e1a02001 	mov	r2, r1
    1b88:	ebfffecc 	bl	16c0 <spin1_send_mc_packet>
    1b8c:	ea000019 	b	1bf8 <spin1_start+0x3d0>
    1b90:	e59f3268 	ldr	r3, [pc, #616]	; 1e00 <spin1_start+0x5d8>
    1b94:	e5930f10 	ldr	r0, [r3, #3856]	; 0xf10
    1b98:	e59f12b8 	ldr	r1, [pc, #696]	; 1e58 <spin1_start+0x630>
    1b9c:	e5932f10 	ldr	r2, [r3, #3856]	; 0xf10
    1ba0:	e0602002 	rsb	r2, r0, r2
    1ba4:	e1520001 	cmp	r2, r1
    1ba8:	8a000003 	bhi	1bbc <spin1_start+0x394>
    1bac:	e5d32fbc 	ldrb	r2, [r3, #4028]	; 0xfbc
    1bb0:	e20220ff 	and	r2, r2, #255	; 0xff
    1bb4:	e35200bd 	cmp	r2, #189	; 0xbd
    1bb8:	9afffff7 	bls	1b9c <spin1_start+0x374>
    1bbc:	e59f323c 	ldr	r3, [pc, #572]	; 1e00 <spin1_start+0x5d8>
    1bc0:	e5d33fbc 	ldrb	r3, [r3, #4028]	; 0xfbc
    1bc4:	e20330ff 	and	r3, r3, #255	; 0xff
    1bc8:	e35300bd 	cmp	r3, #189	; 0xbd
    1bcc:	8a000005 	bhi	1be8 <spin1_start+0x3c0>
    1bd0:	e3a02010 	mov	r2, #16
    1bd4:	e59f3220 	ldr	r3, [pc, #544]	; 1dfc <spin1_start+0x5d4>
    1bd8:	e5832014 	str	r2, [r3, #20]
    1bdc:	e3a00000 	mov	r0, #0
    1be0:	e59f1274 	ldr	r1, [pc, #628]	; 1e5c <spin1_start+0x634>
    1be4:	eb000399 	bl	2a50 <io_printf>
    1be8:	e59f0270 	ldr	r0, [pc, #624]	; 1e60 <spin1_start+0x638>
    1bec:	e3a01000 	mov	r1, #0
    1bf0:	e1a02001 	mov	r2, r1
    1bf4:	ebfffeb1 	bl	16c0 <spin1_send_mc_packet>
    1bf8:	e59f3200 	ldr	r3, [pc, #512]	; 1e00 <spin1_start+0x5d8>
    1bfc:	e593cf10 	ldr	ip, [r3, #3856]	; 0xf10
    1c00:	e1a00003 	mov	r0, r3
    1c04:	e59f124c 	ldr	r1, [pc, #588]	; 1e58 <spin1_start+0x630>
    1c08:	e59f21ec 	ldr	r2, [pc, #492]	; 1dfc <spin1_start+0x5d4>
    1c0c:	e5903f10 	ldr	r3, [r0, #3856]	; 0xf10
    1c10:	e06c3003 	rsb	r3, ip, r3
    1c14:	e1530001 	cmp	r3, r1
    1c18:	8a000002 	bhi	1c28 <spin1_start+0x400>
    1c1c:	e5923350 	ldr	r3, [r2, #848]	; 0x350
    1c20:	e3530000 	cmp	r3, #0
    1c24:	0afffff8 	beq	1c0c <spin1_start+0x3e4>
    1c28:	e59f31cc 	ldr	r3, [pc, #460]	; 1dfc <spin1_start+0x5d4>
    1c2c:	e5933350 	ldr	r3, [r3, #848]	; 0x350
    1c30:	e3530000 	cmp	r3, #0
    1c34:	1a000011 	bne	1c80 <spin1_start+0x458>
    1c38:	e59f31bc 	ldr	r3, [pc, #444]	; 1dfc <spin1_start+0x5d4>
    1c3c:	e5932014 	ldr	r2, [r3, #20]
    1c40:	e3822010 	orr	r2, r2, #16
    1c44:	e5832014 	str	r2, [r3, #20]
    1c48:	e3a00000 	mov	r0, #0
    1c4c:	e59f1210 	ldr	r1, [pc, #528]	; 1e64 <spin1_start+0x63c>
    1c50:	eb00037e 	bl	2a50 <io_printf>
    1c54:	ea000009 	b	1c80 <spin1_start+0x458>
    1c58:	e59f3208 	ldr	r3, [pc, #520]	; 1e68 <spin1_start+0x640>
    1c5c:	e5933004 	ldr	r3, [r3, #4]
    1c60:	e3530000 	cmp	r3, #0
    1c64:	b3a0341f 	movlt	r3, #520093696	; 0x1f000000
    1c68:	b593200c 	ldrlt	r2, [r3, #12]
    1c6c:	b3822040 	orrlt	r2, r2, #64	; 0x40
    1c70:	b583200c 	strlt	r2, [r3, #12]
    1c74:	a59f21f0 	ldrge	r2, [pc, #496]	; 1e6c <spin1_start+0x644>
    1c78:	a3a0341f 	movge	r3, #520093696	; 0x1f000000
    1c7c:	a583210c 	strge	r2, [r3, #268]	; 0x10c
    1c80:	e59f3174 	ldr	r3, [pc, #372]	; 1dfc <spin1_start+0x5d4>
    1c84:	e5933010 	ldr	r3, [r3, #16]
    1c88:	e3530000 	cmp	r3, #0
    1c8c:	13a020e2 	movne	r2, #226	; 0xe2
    1c90:	13a03411 	movne	r3, #285212672	; 0x11000000
    1c94:	15832008 	strne	r2, [r3, #8]
    1c98:	e59f315c 	ldr	r3, [pc, #348]	; 1dfc <spin1_start+0x5d4>
    1c9c:	e3a02000 	mov	r2, #0
    1ca0:	e583200c 	str	r2, [r3, #12]
    1ca4:	e3a02001 	mov	r2, #1
    1ca8:	e5832028 	str	r2, [r3, #40]	; 0x28
    1cac:	e1a05003 	mov	r5, r3
    1cb0:	e3a07000 	mov	r7, #0
    1cb4:	e283402c 	add	r4, r3, #44	; 0x2c
    1cb8:	e3a060c8 	mov	r6, #200	; 0xc8
    1cbc:	ea000028 	b	1d64 <spin1_start+0x53c>
    1cc0:	e10fe000 	mrs	lr, CPSR
    1cc4:	e38e30c0 	orr	r3, lr, #192	; 0xc0
    1cc8:	e121f003 	msr	CPSR_c, r3
    1ccc:	e1a03007 	mov	r3, r7
    1cd0:	ea000019 	b	1d3c <spin1_start+0x514>
    1cd4:	e00c0396 	mul	ip, r6, r3
    1cd8:	e084100c 	add	r1, r4, ip
    1cdc:	e2833001 	add	r3, r3, #1
    1ce0:	e794200c 	ldr	r2, [r4, ip]
    1ce4:	e5910004 	ldr	r0, [r1, #4]
    1ce8:	e1520000 	cmp	r2, r0
    1cec:	0a000012 	beq	1d3c <spin1_start+0x514>
    1cf0:	e0820082 	add	r0, r2, r2, lsl #1
    1cf4:	e0811100 	add	r1, r1, r0, lsl #2
    1cf8:	e5910008 	ldr	r0, [r1, #8]
    1cfc:	e58d000c 	str	r0, [sp, #12]
    1d00:	e591000c 	ldr	r0, [r1, #12]
    1d04:	e5911010 	ldr	r1, [r1, #16]
    1d08:	e2822001 	add	r2, r2, #1
    1d0c:	e202200f 	and	r2, r2, #15
    1d10:	e784200c 	str	r2, [r4, ip]
    1d14:	e59d200c 	ldr	r2, [sp, #12]
    1d18:	e3520000 	cmp	r2, #0
    1d1c:	0a000006 	beq	1d3c <spin1_start+0x514>
    1d20:	e121f00e 	msr	CPSR_c, lr
    1d24:	e59d300c 	ldr	r3, [sp, #12]
    1d28:	e12fff33 	blx	r3
    1d2c:	e10fe000 	mrs	lr, CPSR
    1d30:	e38e30c0 	orr	r3, lr, #192	; 0xc0
    1d34:	e121f003 	msr	CPSR_c, r3
    1d38:	e1a03007 	mov	r3, r7
    1d3c:	e5952028 	ldr	r2, [r5, #40]	; 0x28
    1d40:	e3520000 	cmp	r2, #0
    1d44:	0a000001 	beq	1d50 <spin1_start+0x528>
    1d48:	e3530003 	cmp	r3, #3
    1d4c:	9affffe0 	bls	1cd4 <spin1_start+0x4ac>
    1d50:	e5953028 	ldr	r3, [r5, #40]	; 0x28
    1d54:	e3530000 	cmp	r3, #0
    1d58:	0a000001 	beq	1d64 <spin1_start+0x53c>
    1d5c:	ee070f90 	mcr	15, 0, r0, cr7, cr0, {4}
    1d60:	e121f00e 	msr	CPSR_c, lr
    1d64:	e5953028 	ldr	r3, [r5, #40]	; 0x28
    1d68:	e3530000 	cmp	r3, #0
    1d6c:	1affffd3 	bne	1cc0 <spin1_start+0x498>
    1d70:	ebfffd9b 	bl	13e4 <clean_up>
    1d74:	e10f3000 	mrs	r3, CPSR
    1d78:	e3c32080 	bic	r2, r3, #128	; 0x80
    1d7c:	e121f002 	msr	CPSR_c, r2
    1d80:	e59f4074 	ldr	r4, [pc, #116]	; 1dfc <spin1_start+0x5d4>
    1d84:	e5942024 	ldr	r2, [r4, #36]	; 0x24
    1d88:	e59f30e0 	ldr	r3, [pc, #224]	; 1e70 <spin1_start+0x648>
    1d8c:	e5832000 	str	r2, [r3]
    1d90:	e5942014 	ldr	r2, [r4, #20]
    1d94:	e5832004 	str	r2, [r3, #4]
    1d98:	e3a024f1 	mov	r2, #-251658240	; 0xf1000000
    1d9c:	e5921304 	ldr	r1, [r2, #772]	; 0x304
    1da0:	e5831008 	str	r1, [r3, #8]
    1da4:	e5922314 	ldr	r2, [r2, #788]	; 0x314
    1da8:	e583200c 	str	r2, [r3, #12]
    1dac:	e59f20c0 	ldr	r2, [pc, #192]	; 1e74 <spin1_start+0x64c>
    1db0:	e5922000 	ldr	r2, [r2]
    1db4:	e5832010 	str	r2, [r3, #16]
    1db8:	e59f2048 	ldr	r2, [pc, #72]	; 1e08 <spin1_start+0x5e0>
    1dbc:	e592200c 	ldr	r2, [r2, #12]
    1dc0:	e2422001 	sub	r2, r2, #1
    1dc4:	e5832014 	str	r2, [r3, #20]
    1dc8:	e3a02203 	mov	r2, #805306368	; 0x30000000
    1dcc:	e5922040 	ldr	r2, [r2, #64]	; 0x40
    1dd0:	e5832018 	str	r2, [r3, #24]
    1dd4:	e594201c 	ldr	r2, [r4, #28]
    1dd8:	e583201c 	str	r2, [r3, #28]
    1ddc:	e5942018 	ldr	r2, [r4, #24]
    1de0:	e5832020 	str	r2, [r3, #32]
    1de4:	e5942020 	ldr	r2, [r4, #32]
    1de8:	e5832024 	str	r2, [r3, #36]	; 0x24
    1dec:	ebfffd9f 	bl	1470 <report_warns>
    1df0:	e5940024 	ldr	r0, [r4, #36]	; 0x24
    1df4:	e28dd010 	add	sp, sp, #16
    1df8:	e8bd87f0 	pop	{r4, r5, r6, r7, r8, r9, sl, pc}
    1dfc:	00400764 	.word	0x00400764
    1e00:	f5007000 	.word	0xf5007000
    1e04:	00003012 	.word	0x00003012
    1e08:	00400014 	.word	0x00400014
    1e0c:	00000d7c 	.word	0x00000d7c
    1e10:	00000da4 	.word	0x00000da4
    1e14:	00000e34 	.word	0x00000e34
    1e18:	00000e78 	.word	0x00000e78
    1e1c:	00000c0c 	.word	0x00000c0c
    1e20:	00000cb4 	.word	0x00000cb4
    1e24:	00000b44 	.word	0x00000b44
    1e28:	00000d14 	.word	0x00000d14
    1e2c:	00001012 	.word	0x00001012
    1e30:	0040006c 	.word	0x0040006c
    1e34:	0ffff801 	.word	0x0ffff801
    1e38:	000061a7 	.word	0x000061a7
    1e3c:	00400028 	.word	0x00400028
    1e40:	0040002c 	.word	0x0040002c
    1e44:	00002d98 	.word	0x00002d98
    1e48:	0ffff800 	.word	0x0ffff800
    1e4c:	00002dd8 	.word	0x00002dd8
    1e50:	00002e10 	.word	0x00002e10
    1e54:	0ffff803 	.word	0x0ffff803
    1e58:	0000c34f 	.word	0x0000c34f
    1e5c:	00002e48 	.word	0x00002e48
    1e60:	0ffff802 	.word	0x0ffff802
    1e64:	00002e80 	.word	0x00002e80
    1e68:	004001c0 	.word	0x004001c0
    1e6c:	00000a14 	.word	0x00000a14
    1e70:	00400034 	.word	0x00400034
    1e74:	00400070 	.word	0x00400070

00001e78 <send_mc_packet_fulfil>:
    1e78:	e3520000 	cmp	r2, #0
    1e7c:	13a03201 	movne	r3, #268435456	; 0x10000000
    1e80:	15831004 	strne	r1, [r3, #4]
    1e84:	e3a03201 	mov	r3, #268435456	; 0x10000000
    1e88:	e5830008 	str	r0, [r3, #8]
    1e8c:	e12fff1e 	bx	lr

00001e90 <spin1_irq_disable>:
    1e90:	e10f0000 	mrs	r0, CPSR
    1e94:	e3803080 	orr	r3, r0, #128	; 0x80
    1e98:	e121f003 	msr	CPSR_c, r3
    1e9c:	e12fff1e 	bx	lr

00001ea0 <spin1_mode_restore>:
    1ea0:	e121f000 	msr	CPSR_c, r0
    1ea4:	e12fff1e 	bx	lr

00001ea8 <irq_enable>:
    1ea8:	e10f0000 	mrs	r0, CPSR
    1eac:	e3c03080 	bic	r3, r0, #128	; 0x80
    1eb0:	e121f003 	msr	CPSR_c, r3
    1eb4:	e12fff1e 	bx	lr

00001eb8 <wait_for_irq>:
    1eb8:	ee070f90 	mcr	15, 0, r0, cr7, cr0, {4}
    1ebc:	e12fff1e 	bx	lr

00001ec0 <spin1_fiq_disable>:
    1ec0:	e10f0000 	mrs	r0, CPSR
    1ec4:	e3803040 	orr	r3, r0, #64	; 0x40
    1ec8:	e121f003 	msr	CPSR_c, r3
    1ecc:	e12fff1e 	bx	lr

00001ed0 <spin1_int_disable>:
    1ed0:	e10f0000 	mrs	r0, CPSR
    1ed4:	e38030c0 	orr	r3, r0, #192	; 0xc0
    1ed8:	e121f003 	msr	CPSR_c, r3
    1edc:	e12fff1e 	bx	lr

00001ee0 <spin1_get_id>:
    1ee0:	e3a03c0f 	mov	r3, #3840	; 0xf00
    1ee4:	e59f2010 	ldr	r2, [pc, #16]	; 1efc <spin1_get_id+0x1c>
    1ee8:	e19200b3 	ldrh	r0, [r2, r3]
    1eec:	e59f300c 	ldr	r3, [pc, #12]	; 1f00 <spin1_get_id+0x20>
    1ef0:	e5933000 	ldr	r3, [r3]
    1ef4:	e1830280 	orr	r0, r3, r0, lsl #5
    1ef8:	e12fff1e 	bx	lr
    1efc:	f5007000 	.word	0xf5007000
    1f00:	00400068 	.word	0x00400068

00001f04 <spin1_get_core_id>:
    1f04:	e59f3004 	ldr	r3, [pc, #4]	; 1f10 <spin1_get_core_id+0xc>
    1f08:	e5930000 	ldr	r0, [r3]
    1f0c:	e12fff1e 	bx	lr
    1f10:	00400068 	.word	0x00400068

00001f14 <spin1_get_chip_id>:
    1f14:	e3a03c0f 	mov	r3, #3840	; 0xf00
    1f18:	e59f2004 	ldr	r2, [pc, #4]	; 1f24 <spin1_get_chip_id+0x10>
    1f1c:	e19200b3 	ldrh	r0, [r2, r3]
    1f20:	e12fff1e 	bx	lr
    1f24:	f5007000 	.word	0xf5007000

00001f28 <spin1_set_mc_table_entry>:
    1f28:	e92d01f0 	push	{r4, r5, r6, r7, r8}
    1f2c:	e3500ffa 	cmp	r0, #1000	; 0x3e8
    1f30:	23a00000 	movcs	r0, #0
    1f34:	2a00001a 	bcs	1fa4 <spin1_set_mc_table_entry+0x7c>
    1f38:	e203503f 	and	r5, r3, #63	; 0x3f
    1f3c:	e59fc068 	ldr	ip, [pc, #104]	; 1fac <spin1_set_mc_table_entry+0x84>
    1f40:	e5dc6fbd 	ldrb	r6, [ip, #4029]	; 0xfbd
    1f44:	e3560000 	cmp	r6, #0
    1f48:	0a00000a 	beq	1f78 <spin1_set_mc_table_entry+0x50>
    1f4c:	e2866006 	add	r6, r6, #6
    1f50:	e3a0c006 	mov	ip, #6
    1f54:	e3a04001 	mov	r4, #1
    1f58:	e59f8050 	ldr	r8, [pc, #80]	; 1fb0 <spin1_set_mc_table_entry+0x88>
    1f5c:	e0137c14 	ands	r7, r3, r4, lsl ip
    1f60:	17dc7008 	ldrbne	r7, [ip, r8]
    1f64:	12877006 	addne	r7, r7, #6
    1f68:	11855714 	orrne	r5, r5, r4, lsl r7
    1f6c:	e28cc001 	add	ip, ip, #1
    1f70:	e15c0006 	cmp	ip, r6
    1f74:	1afffff8 	bne	1f5c <spin1_set_mc_table_entry+0x34>
    1f78:	e2800018 	add	r0, r0, #24
    1f7c:	e1a00100 	lsl	r0, r0, #2
    1f80:	e28004f1 	add	r0, r0, #-251658240	; 0xf1000000
    1f84:	e2803902 	add	r3, r0, #32768	; 0x8000
    1f88:	e5831000 	str	r1, [r3]
    1f8c:	e2803903 	add	r3, r0, #49152	; 0xc000
    1f90:	e5832000 	str	r2, [r3]
    1f94:	e2800901 	add	r0, r0, #16384	; 0x4000
    1f98:	e5805000 	str	r5, [r0]
    1f9c:	e3a00001 	mov	r0, #1
    1fa0:	eaffffff 	b	1fa4 <spin1_set_mc_table_entry+0x7c>
    1fa4:	e8bd01f0 	pop	{r4, r5, r6, r7, r8}
    1fa8:	e12fff1e 	bx	lr
    1fac:	f5007000 	.word	0xf5007000
    1fb0:	f5007fa2 	.word	0xf5007fa2

00001fb4 <spin1_led_control>:
    1fb4:	e92d0070 	push	{r4, r5, r6}
    1fb8:	e59f3068 	ldr	r3, [pc, #104]	; 2028 <IPTAG_ARP+0x28>
    1fbc:	e5d33f0a 	ldrb	r3, [r3, #3850]	; 0xf0a
    1fc0:	e3530000 	cmp	r3, #0
    1fc4:	03a05003 	moveq	r5, #3
    1fc8:	13a05002 	movne	r5, #2
    1fcc:	e59f3058 	ldr	r3, [pc, #88]	; 202c <IPTAG_ARP+0x2c>
    1fd0:	e2831008 	add	r1, r3, #8
    1fd4:	11a01003 	movne	r1, r3
    1fd8:	e3a03001 	mov	r3, #1
    1fdc:	e3a064f2 	mov	r6, #-234881024	; 0xf2000000
    1fe0:	e1f140b2 	ldrh	r4, [r1, #2]!
    1fe4:	e2002001 	and	r2, r0, #1
    1fe8:	e200c002 	and	ip, r0, #2
    1fec:	e35c0000 	cmp	ip, #0
    1ff0:	e1a00120 	lsr	r0, r0, #2
    1ff4:	1a000003 	bne	2008 <IPTAG_ARP+0x8>
    1ff8:	e3520000 	cmp	r2, #0
    1ffc:	0a000004 	beq	2014 <IPTAG_ARP+0x14>
    2000:	e5962040 	ldr	r2, [r6, #64]	; 0x40
    2004:	e0042002 	and	r2, r4, r2
    2008:	e3520000 	cmp	r2, #0
    200c:	1586404c 	strne	r4, [r6, #76]	; 0x4c
    2010:	05864048 	streq	r4, [r6, #72]	; 0x48
    2014:	e2833001 	add	r3, r3, #1
    2018:	e1550003 	cmp	r5, r3
    201c:	2affffef 	bcs	1fe0 <spin1_led_control+0x2c>
    2020:	e8bd0070 	pop	{r4, r5, r6}
    2024:	e12fff1e 	bx	lr
    2028:	f5007000 	.word	0xf5007000
    202c:	00002cd4 	.word	0x00002cd4

00002030 <spin1_kill>:
    2030:	e92d4010 	push	{r4, lr}
    2034:	e1a04000 	mov	r4, r0
    2038:	e59f2020 	ldr	r2, [pc, #32]	; 2060 <spin1_kill+0x30>
    203c:	e3a0341f 	mov	r3, #520093696	; 0x1f000000
    2040:	e5832014 	str	r2, [r3, #20]
    2044:	e3a0000c 	mov	r0, #12
    2048:	ebffffd9 	bl	1fb4 <spin1_led_control>
    204c:	e59f3010 	ldr	r3, [pc, #16]	; 2064 <spin1_kill+0x34>
    2050:	e5834024 	str	r4, [r3, #36]	; 0x24
    2054:	e3a02000 	mov	r2, #0
    2058:	e5832028 	str	r2, [r3, #40]	; 0x28
    205c:	e8bd8010 	pop	{r4, pc}
    2060:	00003052 	.word	0x00003052
    2064:	00400764 	.word	0x00400764

00002068 <spin1_malloc>:
    2068:	e59f3028 	ldr	r3, [pc, #40]	; 2098 <spin1_malloc+0x30>
    206c:	e5933010 	ldr	r3, [r3, #16]
    2070:	e0830000 	add	r0, r3, r0
    2074:	e59f2020 	ldr	r2, [pc, #32]	; 209c <spin1_malloc+0x34>
    2078:	e1500002 	cmp	r0, r2
    207c:	92800003 	addls	r0, r0, #3
    2080:	93c00003 	bicls	r0, r0, #3
    2084:	959f200c 	ldrls	r2, [pc, #12]	; 2098 <spin1_malloc+0x30>
    2088:	95820010 	strls	r0, [r2, #16]
    208c:	83a03000 	movhi	r3, #0
    2090:	e1a00003 	mov	r0, r3
    2094:	e12fff1e 	bx	lr
    2098:	00400014 	.word	0x00400014
    209c:	0040f000 	.word	0x0040f000

000020a0 <schedule_sysmode>:
    20a0:	e92d40f8 	push	{r3, r4, r5, r6, r7, lr}
    20a4:	e59f3098 	ldr	r3, [pc, #152]	; 2144 <schedule_sysmode+0xa4>
    20a8:	e0833180 	add	r3, r3, r0, lsl #3
    20ac:	e5933004 	ldr	r3, [r3, #4]
    20b0:	e3530000 	cmp	r3, #0
    20b4:	ca000005 	bgt	20d0 <schedule_sysmode+0x30>
    20b8:	e59f3084 	ldr	r3, [pc, #132]	; 2144 <schedule_sysmode+0xa4>
    20bc:	e7933180 	ldr	r3, [r3, r0, lsl #3]
    20c0:	e1a00001 	mov	r0, r1
    20c4:	e1a01002 	mov	r1, r2
    20c8:	e12fff33 	blx	r3
    20cc:	e8bd80f8 	pop	{r3, r4, r5, r6, r7, pc}
    20d0:	e59f5070 	ldr	r5, [pc, #112]	; 2148 <schedule_sysmode+0xa8>
    20d4:	e2433001 	sub	r3, r3, #1
    20d8:	e3a040c8 	mov	r4, #200	; 0xc8
    20dc:	e0040493 	mul	r4, r3, r4
    20e0:	e0853004 	add	r3, r5, r4
    20e4:	e593c004 	ldr	ip, [r3, #4]
    20e8:	e28c6001 	add	r6, ip, #1
    20ec:	e206600f 	and	r6, r6, #15
    20f0:	e7954004 	ldr	r4, [r5, r4]
    20f4:	e1560004 	cmp	r6, r4
    20f8:	0a000009 	beq	2124 <schedule_sysmode+0x84>
    20fc:	e1a0408c 	lsl	r4, ip, #1
    2100:	e084500c 	add	r5, r4, ip
    2104:	e0835105 	add	r5, r3, r5, lsl #2
    2108:	e59f7034 	ldr	r7, [pc, #52]	; 2144 <schedule_sysmode+0xa4>
    210c:	e7970180 	ldr	r0, [r7, r0, lsl #3]
    2110:	e5850008 	str	r0, [r5, #8]
    2114:	e585100c 	str	r1, [r5, #12]
    2118:	e5852010 	str	r2, [r5, #16]
    211c:	e5836004 	str	r6, [r3, #4]
    2120:	e8bd80f8 	pop	{r3, r4, r5, r6, r7, pc}
    2124:	e59f3020 	ldr	r3, [pc, #32]	; 214c <schedule_sysmode+0xac>
    2128:	e5932014 	ldr	r2, [r3, #20]
    212c:	e3822001 	orr	r2, r2, #1
    2130:	e5832014 	str	r2, [r3, #20]
    2134:	e5932018 	ldr	r2, [r3, #24]
    2138:	e2822001 	add	r2, r2, #1
    213c:	e5832018 	str	r2, [r3, #24]
    2140:	e8bd80f8 	pop	{r3, r4, r5, r6, r7, pc}
    2144:	004001c0 	.word	0x004001c0
    2148:	00400790 	.word	0x00400790
    214c:	00400764 	.word	0x00400764

00002150 <spin1_schedule_callback>:
    2150:	e92d00f0 	push	{r4, r5, r6, r7}
    2154:	e10f7000 	mrs	r7, CPSR
    2158:	e387c080 	orr	ip, r7, #128	; 0x80
    215c:	e121f00c 	msr	CPSR_c, ip
    2160:	e59f5074 	ldr	r5, [pc, #116]	; 21dc <spin1_schedule_callback+0x8c>
    2164:	e2433001 	sub	r3, r3, #1
    2168:	e3a0c0c8 	mov	ip, #200	; 0xc8
    216c:	e003039c 	mul	r3, ip, r3
    2170:	e085c003 	add	ip, r5, r3
    2174:	e59c4004 	ldr	r4, [ip, #4]
    2178:	e2846001 	add	r6, r4, #1
    217c:	e206600f 	and	r6, r6, #15
    2180:	e7953003 	ldr	r3, [r5, r3]
    2184:	e1560003 	cmp	r6, r3
    2188:	0a000008 	beq	21b0 <spin1_schedule_callback+0x60>
    218c:	e1a03084 	lsl	r3, r4, #1
    2190:	e0835004 	add	r5, r3, r4
    2194:	e08c5105 	add	r5, ip, r5, lsl #2
    2198:	e5850008 	str	r0, [r5, #8]
    219c:	e585100c 	str	r1, [r5, #12]
    21a0:	e5852010 	str	r2, [r5, #16]
    21a4:	e58c6004 	str	r6, [ip, #4]
    21a8:	e3a00001 	mov	r0, #1
    21ac:	ea000007 	b	21d0 <spin1_schedule_callback+0x80>
    21b0:	e59f3028 	ldr	r3, [pc, #40]	; 21e0 <spin1_schedule_callback+0x90>
    21b4:	e5932014 	ldr	r2, [r3, #20]
    21b8:	e3822001 	orr	r2, r2, #1
    21bc:	e5832014 	str	r2, [r3, #20]
    21c0:	e5932018 	ldr	r2, [r3, #24]
    21c4:	e2822001 	add	r2, r2, #1
    21c8:	e5832018 	str	r2, [r3, #24]
    21cc:	e3a00000 	mov	r0, #0
    21d0:	e121f007 	msr	CPSR_c, r7
    21d4:	e8bd00f0 	pop	{r4, r5, r6, r7}
    21d8:	e12fff1e 	bx	lr
    21dc:	00400790 	.word	0x00400790
    21e0:	00400764 	.word	0x00400764

000021e4 <spin1_trigger_user_event>:
    21e4:	e59f303c 	ldr	r3, [pc, #60]	; 2228 <spin1_trigger_user_event+0x44>
    21e8:	e5d33354 	ldrb	r3, [r3, #852]	; 0x354
    21ec:	e3530000 	cmp	r3, #0
    21f0:	1a00000a 	bne	2220 <spin1_trigger_user_event+0x3c>
    21f4:	e59f3030 	ldr	r3, [pc, #48]	; 222c <spin1_trigger_user_event+0x48>
    21f8:	e5830000 	str	r0, [r3]
    21fc:	e59f302c 	ldr	r3, [pc, #44]	; 2230 <spin1_trigger_user_event+0x4c>
    2200:	e5831000 	str	r1, [r3]
    2204:	e3a00001 	mov	r0, #1
    2208:	e59f3018 	ldr	r3, [pc, #24]	; 2228 <spin1_trigger_user_event+0x44>
    220c:	e5c30354 	strb	r0, [r3, #852]	; 0x354
    2210:	e3a02002 	mov	r2, #2
    2214:	e3a0341f 	mov	r3, #520093696	; 0x1f000000
    2218:	e5832018 	str	r2, [r3, #24]
    221c:	e12fff1e 	bx	lr
    2220:	e3a00000 	mov	r0, #0
    2224:	e12fff1e 	bx	lr
    2228:	00400764 	.word	0x00400764
    222c:	004001bc 	.word	0x004001bc
    2230:	00400064 	.word	0x00400064

00002234 <rts_init>:
    2234:	e52de004 	push	{lr}		; (str lr, [sp, #-4]!)
    2238:	e24dd00c 	sub	sp, sp, #12
    223c:	e3a034f2 	mov	r3, #-234881024	; 0xf2000000
    2240:	e5933110 	ldr	r3, [r3, #272]	; 0x110
    2244:	e1e03003 	mvn	r3, r3
    2248:	e1a03fa3 	lsr	r3, r3, #31
    224c:	e59f21d4 	ldr	r2, [pc, #468]	; 2428 <rts_init+0x1f4>
    2250:	e5c23000 	strb	r3, [r2]
    2254:	e3530000 	cmp	r3, #0
    2258:	0a00003e 	beq	2358 <rts_init+0x124>
    225c:	e59f31c8 	ldr	r3, [pc, #456]	; 242c <rts_init+0x1f8>
    2260:	e3e0c000 	mvn	ip, #0
    2264:	e3a00000 	mov	r0, #0
    2268:	e59f11c0 	ldr	r1, [pc, #448]	; 2430 <rts_init+0x1fc>
    226c:	e583c000 	str	ip, [r3]
    2270:	e2832901 	add	r2, r3, #16384	; 0x4000
    2274:	e5820000 	str	r0, [r2]
    2278:	e2833004 	add	r3, r3, #4
    227c:	e1530001 	cmp	r3, r1
    2280:	1afffff9 	bne	226c <rts_init+0x38>
    2284:	e59f21a8 	ldr	r2, [pc, #424]	; 2434 <rts_init+0x200>
    2288:	e59f319c 	ldr	r3, [pc, #412]	; 242c <rts_init+0x1f8>
    228c:	e5832008 	str	r2, [r3, #8]
    2290:	e3e03000 	mvn	r3, #0
    2294:	e59f119c 	ldr	r1, [pc, #412]	; 2438 <rts_init+0x204>
    2298:	e5813008 	str	r3, [r1, #8]
    229c:	e59f0198 	ldr	r0, [pc, #408]	; 243c <rts_init+0x208>
    22a0:	e590e000 	ldr	lr, [r0]
    22a4:	e28ee006 	add	lr, lr, #6
    22a8:	e3a01001 	mov	r1, #1
    22ac:	e1a0ee11 	lsl	lr, r1, lr
    22b0:	e59fc188 	ldr	ip, [pc, #392]	; 2440 <rts_init+0x20c>
    22b4:	e58ce008 	str	lr, [ip, #8]
    22b8:	e3e0e052 	mvn	lr, #82	; 0x52
    22bc:	e59fc180 	ldr	ip, [pc, #384]	; 2444 <rts_init+0x210>
    22c0:	e5ccefbc 	strb	lr, [ip, #4028]	; 0xfbc
    22c4:	e59fc17c 	ldr	ip, [pc, #380]	; 2448 <rts_init+0x214>
    22c8:	e58c1000 	str	r1, [ip]
    22cc:	e59fc178 	ldr	ip, [pc, #376]	; 244c <rts_init+0x218>
    22d0:	e58c1000 	str	r1, [ip]
    22d4:	e5900000 	ldr	r0, [r0]
    22d8:	e2800006 	add	r0, r0, #6
    22dc:	e1a01011 	lsl	r1, r1, r0
    22e0:	e58d1000 	str	r1, [sp]
    22e4:	e3a00000 	mov	r0, #0
    22e8:	e59f1160 	ldr	r1, [pc, #352]	; 2450 <rts_init+0x21c>
    22ec:	eb0001d7 	bl	2a50 <io_printf>
    22f0:	e3a034f1 	mov	r3, #-251658240	; 0xf1000000
    22f4:	e3a02000 	mov	r2, #0
    22f8:	e583202c 	str	r2, [r3, #44]	; 0x2c
    22fc:	e5832300 	str	r2, [r3, #768]	; 0x300
    2300:	e59f114c 	ldr	r1, [pc, #332]	; 2454 <rts_init+0x220>
    2304:	e5831200 	str	r1, [r3, #512]	; 0x200
    2308:	e5832304 	str	r2, [r3, #772]	; 0x304
    230c:	e241100e 	sub	r1, r1, #14
    2310:	e5831204 	str	r1, [r3, #516]	; 0x204
    2314:	e5832308 	str	r2, [r3, #776]	; 0x308
    2318:	e2811001 	add	r1, r1, #1
    231c:	e5831208 	str	r1, [r3, #520]	; 0x208
    2320:	e583230c 	str	r2, [r3, #780]	; 0x30c
    2324:	e2811002 	add	r1, r1, #2
    2328:	e583120c 	str	r1, [r3, #524]	; 0x20c
    232c:	e5832310 	str	r2, [r3, #784]	; 0x310
    2330:	e59f1120 	ldr	r1, [pc, #288]	; 2458 <rts_init+0x224>
    2334:	e5831210 	str	r1, [r3, #528]	; 0x210
    2338:	e5832314 	str	r2, [r3, #788]	; 0x314
    233c:	e241100e 	sub	r1, r1, #14
    2340:	e5831214 	str	r1, [r3, #532]	; 0x214
    2344:	e3a0103f 	mov	r1, #63	; 0x3f
    2348:	e583102c 	str	r1, [r3, #44]	; 0x2c
    234c:	e59f3108 	ldr	r3, [pc, #264]	; 245c <rts_init+0x228>
    2350:	e5832000 	str	r2, [r3]
    2354:	ea000016 	b	23b4 <rts_init+0x180>
    2358:	e59f30e4 	ldr	r3, [pc, #228]	; 2444 <rts_init+0x210>
    235c:	e5930f10 	ldr	r0, [r3, #3856]	; 0xf10
    2360:	e59f10f8 	ldr	r1, [pc, #248]	; 2460 <rts_init+0x22c>
    2364:	e5932f10 	ldr	r2, [r3, #3856]	; 0xf10
    2368:	e0602002 	rsb	r2, r0, r2
    236c:	e1520001 	cmp	r2, r1
    2370:	8a000003 	bhi	2384 <rts_init+0x150>
    2374:	e5d32fbc 	ldrb	r2, [r3, #4028]	; 0xfbc
    2378:	e20220ff 	and	r2, r2, #255	; 0xff
    237c:	e35200ac 	cmp	r2, #172	; 0xac
    2380:	9afffff7 	bls	2364 <rts_init+0x130>
    2384:	e59f30b8 	ldr	r3, [pc, #184]	; 2444 <rts_init+0x210>
    2388:	e5d33fbc 	ldrb	r3, [r3, #4028]	; 0xfbc
    238c:	e20330ff 	and	r3, r3, #255	; 0xff
    2390:	e35300ac 	cmp	r3, #172	; 0xac
    2394:	8a000006 	bhi	23b4 <rts_init+0x180>
    2398:	e59f30c4 	ldr	r3, [pc, #196]	; 2464 <rts_init+0x230>
    239c:	e5932014 	ldr	r2, [r3, #20]
    23a0:	e3822010 	orr	r2, r2, #16
    23a4:	e5832014 	str	r2, [r3, #20]
    23a8:	e3a00000 	mov	r0, #0
    23ac:	e59f10b4 	ldr	r1, [pc, #180]	; 2468 <rts_init+0x234>
    23b0:	eb0001a6 	bl	2a50 <io_printf>
    23b4:	e59f20b0 	ldr	r2, [pc, #176]	; 246c <rts_init+0x238>
    23b8:	e3a03000 	mov	r3, #0
    23bc:	e5823000 	str	r3, [r2]
    23c0:	e5823004 	str	r3, [r2, #4]
    23c4:	e5823008 	str	r3, [r2, #8]
    23c8:	e582300c 	str	r3, [r2, #12]
    23cc:	e5823010 	str	r3, [r2, #16]
    23d0:	e5823014 	str	r3, [r2, #20]
    23d4:	e5823018 	str	r3, [r2, #24]
    23d8:	e582301c 	str	r3, [r2, #28]
    23dc:	e5823020 	str	r3, [r2, #32]
    23e0:	e5823024 	str	r3, [r2, #36]	; 0x24
    23e4:	e5823028 	str	r3, [r2, #40]	; 0x28
    23e8:	e3a0241f 	mov	r2, #520093696	; 0x1f000000
    23ec:	e3a01040 	mov	r1, #64	; 0x40
    23f0:	e5821014 	str	r1, [r2, #20]
    23f4:	e59f0074 	ldr	r0, [pc, #116]	; 2470 <rts_init+0x23c>
    23f8:	e582010c 	str	r0, [r2, #268]	; 0x10c
    23fc:	e3a00026 	mov	r0, #38	; 0x26
    2400:	e582020c 	str	r0, [r2, #524]	; 0x20c
    2404:	e592000c 	ldr	r0, [r2, #12]
    2408:	e3c00040 	bic	r0, r0, #64	; 0x40
    240c:	e582000c 	str	r0, [r2, #12]
    2410:	e5821010 	str	r1, [r2, #16]
    2414:	e593203c 	ldr	r2, [r3, #60]	; 0x3c
    2418:	e59f3054 	ldr	r3, [pc, #84]	; 2474 <rts_init+0x240>
    241c:	e5832000 	str	r2, [r3]
    2420:	e28dd00c 	add	sp, sp, #12
    2424:	e49df004 	pop	{pc}		; (ldr pc, [sp], #4)
    2428:	0040006c 	.word	0x0040006c
    242c:	f1008000 	.word	0xf1008000
    2430:	f1009000 	.word	0xf1009000
    2434:	0ffff802 	.word	0x0ffff802
    2438:	f100c000 	.word	0xf100c000
    243c:	00400060 	.word	0x00400060
    2440:	f1004000 	.word	0xf1004000
    2444:	f5007000 	.word	0xf5007000
    2448:	00400028 	.word	0x00400028
    244c:	0040002c 	.word	0x0040002c
    2450:	00002eb8 	.word	0x00002eb8
    2454:	01fffcff 	.word	0x01fffcff
    2458:	0001fcff 	.word	0x0001fcff
    245c:	00400070 	.word	0x00400070
    2460:	00001387 	.word	0x00001387
    2464:	00400764 	.word	0x00400764
    2468:	00002ee8 	.word	0x00002ee8
    246c:	00400034 	.word	0x00400034
    2470:	00000a54 	.word	0x00000a54
    2474:	00400030 	.word	0x00400030

00002478 <rts_cleanup>:
    2478:	e3a02000 	mov	r2, #0
    247c:	e59f3050 	ldr	r3, [pc, #80]	; 24d4 <rts_cleanup+0x5c>
    2480:	e5c32fbc 	strb	r2, [r3, #4028]	; 0xfbc
    2484:	e59f304c 	ldr	r3, [pc, #76]	; 24d8 <rts_cleanup+0x60>
    2488:	e5d33000 	ldrb	r3, [r3]
    248c:	e1530002 	cmp	r3, r2
    2490:	0a00000b 	beq	24c4 <rts_cleanup+0x4c>
    2494:	e59f3040 	ldr	r3, [pc, #64]	; 24dc <rts_cleanup+0x64>
    2498:	e3e0c000 	mvn	ip, #0
    249c:	e1a00002 	mov	r0, r2
    24a0:	e59f1038 	ldr	r1, [pc, #56]	; 24e0 <rts_cleanup+0x68>
    24a4:	e583c000 	str	ip, [r3]
    24a8:	e2832901 	add	r2, r3, #16384	; 0x4000
    24ac:	e5820000 	str	r0, [r2]
    24b0:	e2833004 	add	r3, r3, #4
    24b4:	e1530001 	cmp	r3, r1
    24b8:	1afffff9 	bne	24a4 <rts_cleanup+0x2c>
    24bc:	e3a034f2 	mov	r3, #-234881024	; 0xf2000000
    24c0:	e5933190 	ldr	r3, [r3, #400]	; 0x190
    24c4:	e3a02040 	mov	r2, #64	; 0x40
    24c8:	e3a0341f 	mov	r3, #520093696	; 0x1f000000
    24cc:	e5832010 	str	r2, [r3, #16]
    24d0:	e12fff1e 	bx	lr
    24d4:	f5007000 	.word	0xf5007000
    24d8:	0040006c 	.word	0x0040006c
    24dc:	f1008000 	.word	0xf1008000
    24e0:	f1009000 	.word	0xf1009000

000024e4 <io_put_char>:
    24e4:	e92d4008 	push	{r3, lr}
    24e8:	e1a03000 	mov	r3, r0
    24ec:	e3500002 	cmp	r0, #2
    24f0:	8a000003 	bhi	2504 <io_put_char+0x20>
    24f4:	e1a00001 	mov	r0, r1
    24f8:	e1a01003 	mov	r1, r3
    24fc:	ebfff742 	bl	20c <svc_put_char>
    2500:	e8bd8008 	pop	{r3, pc}
    2504:	e3500003 	cmp	r0, #3
    2508:	98bd8008 	popls	{r3, pc}
    250c:	e59fc018 	ldr	ip, [pc, #24]	; 252c <io_put_char+0x48>
    2510:	e59c0000 	ldr	r0, [ip]
    2514:	e2802001 	add	r2, r0, #1
    2518:	e58c2000 	str	r2, [ip]
    251c:	e7c31000 	strb	r1, [r3, r0]
    2520:	e3a01000 	mov	r1, #0
    2524:	e7c31002 	strb	r1, [r3, r2]
    2528:	e8bd8008 	pop	{r3, pc}
    252c:	00400abc 	.word	0x00400abc

00002530 <io_put_str>:
    2530:	e92d41f0 	push	{r4, r5, r6, r7, r8, lr}
    2534:	e1a06000 	mov	r6, r0
    2538:	e1a07001 	mov	r7, r1
    253c:	e5d13000 	ldrb	r3, [r1]
    2540:	e3530000 	cmp	r3, #0
    2544:	0a000005 	beq	2560 <io_put_str+0x30>
    2548:	e3a04000 	mov	r4, #0
    254c:	e2844001 	add	r4, r4, #1
    2550:	e7d73004 	ldrb	r3, [r7, r4]
    2554:	e3530000 	cmp	r3, #0
    2558:	1afffffb 	bne	254c <io_put_str+0x1c>
    255c:	ea000000 	b	2564 <io_put_str+0x34>
    2560:	e3a04000 	mov	r4, #0
    2564:	e1520004 	cmp	r2, r4
    2568:	da000007 	ble	258c <io_put_str+0x5c>
    256c:	e1a05002 	mov	r5, r2
    2570:	e3a08020 	mov	r8, #32
    2574:	e1a00006 	mov	r0, r6
    2578:	e1a01008 	mov	r1, r8
    257c:	ebffffd8 	bl	24e4 <io_put_char>
    2580:	e2455001 	sub	r5, r5, #1
    2584:	e1550004 	cmp	r5, r4
    2588:	cafffff9 	bgt	2574 <io_put_str+0x44>
    258c:	e5d71000 	ldrb	r1, [r7]
    2590:	e3510000 	cmp	r1, #0
    2594:	08bd81f0 	popeq	{r4, r5, r6, r7, r8, pc}
    2598:	e1a04007 	mov	r4, r7
    259c:	e1a00006 	mov	r0, r6
    25a0:	ebffffcf 	bl	24e4 <io_put_char>
    25a4:	e5f41001 	ldrb	r1, [r4, #1]!
    25a8:	e3510000 	cmp	r1, #0
    25ac:	1afffffa 	bne	259c <io_put_str+0x6c>
    25b0:	e8bd81f0 	pop	{r4, r5, r6, r7, r8, pc}

000025b4 <io_put_int>:
    25b4:	e92d41f0 	push	{r4, r5, r6, r7, r8, lr}
    25b8:	e24dd018 	sub	sp, sp, #24
    25bc:	e1a07000 	mov	r7, r0
    25c0:	e1a05002 	mov	r5, r2
    25c4:	e3510000 	cmp	r1, #0
    25c8:	b2611000 	rsblt	r1, r1, #0
    25cc:	b3a0802d 	movlt	r8, #45	; 0x2d
    25d0:	a3a08000 	movge	r8, #0
    25d4:	e28d600b 	add	r6, sp, #11
    25d8:	e3a04000 	mov	r4, #0
    25dc:	e28d0004 	add	r0, sp, #4
    25e0:	ebfff6fd 	bl	1dc <div10>
    25e4:	e2843001 	add	r3, r4, #1
    25e8:	e59d1008 	ldr	r1, [sp, #8]
    25ec:	e2811030 	add	r1, r1, #48	; 0x30
    25f0:	e5e61001 	strb	r1, [r6, #1]!
    25f4:	e59d1004 	ldr	r1, [sp, #4]
    25f8:	e3510000 	cmp	r1, #0
    25fc:	11a04003 	movne	r4, r3
    2600:	1afffff5 	bne	25dc <io_put_int+0x28>
    2604:	e1a02004 	mov	r2, r4
    2608:	e3530000 	cmp	r3, #0
    260c:	da00000e 	ble	264c <io_put_int+0x98>
    2610:	e28d1018 	add	r1, sp, #24
    2614:	e0813004 	add	r3, r1, r4
    2618:	e553300c 	ldrb	r3, [r3, #-12]
    261c:	e3530030 	cmp	r3, #48	; 0x30
    2620:	028d300c 	addeq	r3, sp, #12
    2624:	00832004 	addeq	r2, r3, r4
    2628:	0a000004 	beq	2640 <io_put_int+0x8c>
    262c:	ea000007 	b	2650 <io_put_int+0x9c>
    2630:	e2444001 	sub	r4, r4, #1
    2634:	e5723001 	ldrb	r3, [r2, #-1]!
    2638:	e3530030 	cmp	r3, #48	; 0x30
    263c:	1a000003 	bne	2650 <io_put_int+0x9c>
    2640:	e3540000 	cmp	r4, #0
    2644:	cafffff9 	bgt	2630 <io_put_int+0x7c>
    2648:	ea000000 	b	2650 <io_put_int+0x9c>
    264c:	e1a04003 	mov	r4, r3
    2650:	e3580000 	cmp	r8, #0
    2654:	12844001 	addne	r4, r4, #1
    2658:	128d1018 	addne	r1, sp, #24
    265c:	10813004 	addne	r3, r1, r4
    2660:	1543800c 	strbne	r8, [r3, #-12]
    2664:	e2846001 	add	r6, r4, #1
    2668:	e1550006 	cmp	r5, r6
    266c:	9a000006 	bls	268c <io_put_int+0xd8>
    2670:	e3a08020 	mov	r8, #32
    2674:	e1a00007 	mov	r0, r7
    2678:	e1a01008 	mov	r1, r8
    267c:	ebffff98 	bl	24e4 <io_put_char>
    2680:	e2455001 	sub	r5, r5, #1
    2684:	e1550006 	cmp	r5, r6
    2688:	8afffff9 	bhi	2674 <io_put_int+0xc0>
    268c:	e3540000 	cmp	r4, #0
    2690:	ba000007 	blt	26b4 <io_put_int+0x100>
    2694:	e28d200c 	add	r2, sp, #12
    2698:	e0824004 	add	r4, r2, r4
    269c:	e28d500b 	add	r5, sp, #11
    26a0:	e1a00007 	mov	r0, r7
    26a4:	e4541001 	ldrb	r1, [r4], #-1
    26a8:	ebffff8d 	bl	24e4 <io_put_char>
    26ac:	e1540005 	cmp	r4, r5
    26b0:	1afffffa 	bne	26a0 <io_put_int+0xec>
    26b4:	e28dd018 	add	sp, sp, #24
    26b8:	e8bd81f0 	pop	{r4, r5, r6, r7, r8, pc}

000026bc <io_put_uint>:
    26bc:	e92d43f0 	push	{r4, r5, r6, r7, r8, r9, lr}
    26c0:	e24dd01c 	sub	sp, sp, #28
    26c4:	e1a08000 	mov	r8, r0
    26c8:	e1a05002 	mov	r5, r2
    26cc:	e1a09003 	mov	r9, r3
    26d0:	e28d600b 	add	r6, sp, #11
    26d4:	e3a04000 	mov	r4, #0
    26d8:	e28d0004 	add	r0, sp, #4
    26dc:	ebfff6be 	bl	1dc <div10>
    26e0:	e284c001 	add	ip, r4, #1
    26e4:	e59d7008 	ldr	r7, [sp, #8]
    26e8:	e2877030 	add	r7, r7, #48	; 0x30
    26ec:	e5e67001 	strb	r7, [r6, #1]!
    26f0:	e59d1004 	ldr	r1, [sp, #4]
    26f4:	e3510000 	cmp	r1, #0
    26f8:	11a0400c 	movne	r4, ip
    26fc:	1afffff5 	bne	26d8 <io_put_uint+0x1c>
    2700:	e1a02004 	mov	r2, r4
    2704:	e35c0000 	cmp	ip, #0
    2708:	da00000e 	ble	2748 <io_put_uint+0x8c>
    270c:	e28d1018 	add	r1, sp, #24
    2710:	e0813004 	add	r3, r1, r4
    2714:	e553300c 	ldrb	r3, [r3, #-12]
    2718:	e3530030 	cmp	r3, #48	; 0x30
    271c:	028d300c 	addeq	r3, sp, #12
    2720:	00832004 	addeq	r2, r3, r4
    2724:	0a000004 	beq	273c <io_put_uint+0x80>
    2728:	ea000007 	b	274c <io_put_uint+0x90>
    272c:	e2444001 	sub	r4, r4, #1
    2730:	e5723001 	ldrb	r3, [r2, #-1]!
    2734:	e3530030 	cmp	r3, #48	; 0x30
    2738:	1a000003 	bne	274c <io_put_uint+0x90>
    273c:	e3540000 	cmp	r4, #0
    2740:	cafffff9 	bgt	272c <io_put_uint+0x70>
    2744:	ea000000 	b	274c <io_put_uint+0x90>
    2748:	e1a0400c 	mov	r4, ip
    274c:	e2846001 	add	r6, r4, #1
    2750:	e1550006 	cmp	r5, r6
    2754:	9a000005 	bls	2770 <io_put_uint+0xb4>
    2758:	e1a00008 	mov	r0, r8
    275c:	e1a01009 	mov	r1, r9
    2760:	ebffff5f 	bl	24e4 <io_put_char>
    2764:	e2455001 	sub	r5, r5, #1
    2768:	e1550006 	cmp	r5, r6
    276c:	8afffff9 	bhi	2758 <io_put_uint+0x9c>
    2770:	e3540000 	cmp	r4, #0
    2774:	ba000007 	blt	2798 <io_put_uint+0xdc>
    2778:	e28d100c 	add	r1, sp, #12
    277c:	e0814004 	add	r4, r1, r4
    2780:	e28d500b 	add	r5, sp, #11
    2784:	e1a00008 	mov	r0, r8
    2788:	e4541001 	ldrb	r1, [r4], #-1
    278c:	ebffff54 	bl	24e4 <io_put_char>
    2790:	e1540005 	cmp	r4, r5
    2794:	1afffffa 	bne	2784 <io_put_uint+0xc8>
    2798:	e28dd01c 	add	sp, sp, #28
    279c:	e8bd83f0 	pop	{r4, r5, r6, r7, r8, r9, pc}

000027a0 <io_put_zhex>:
    27a0:	e92d41f0 	push	{r4, r5, r6, r7, r8, lr}
    27a4:	e1a06000 	mov	r6, r0
    27a8:	e1a07001 	mov	r7, r1
    27ac:	e2524001 	subs	r4, r2, #1
    27b0:	48bd81f0 	popmi	{r4, r5, r6, r7, r8, pc}
    27b4:	e2425107 	sub	r5, r2, #-1073741823	; 0xc0000001
    27b8:	e1a05105 	lsl	r5, r5, #2
    27bc:	e59f8020 	ldr	r8, [pc, #32]	; 27e4 <io_put_zhex+0x44>
    27c0:	e1a03537 	lsr	r3, r7, r5
    27c4:	e203300f 	and	r3, r3, #15
    27c8:	e1a00006 	mov	r0, r6
    27cc:	e7d81003 	ldrb	r1, [r8, r3]
    27d0:	ebffff43 	bl	24e4 <io_put_char>
    27d4:	e2455004 	sub	r5, r5, #4
    27d8:	e2544001 	subs	r4, r4, #1
    27dc:	5afffff7 	bpl	27c0 <io_put_zhex+0x20>
    27e0:	e8bd81f0 	pop	{r4, r5, r6, r7, r8, pc}
    27e4:	00002f20 	.word	0x00002f20

000027e8 <io_put_hex>:
    27e8:	e92d43f0 	push	{r4, r5, r6, r7, r8, r9, lr}
    27ec:	e24dd00c 	sub	sp, sp, #12
    27f0:	e1a06000 	mov	r6, r0
    27f4:	e1a0c001 	mov	ip, r1
    27f8:	e1a09003 	mov	r9, r3
    27fc:	e24d0001 	sub	r0, sp, #1
    2800:	e3a05000 	mov	r5, #0
    2804:	e59f10b0 	ldr	r1, [pc, #176]	; 28bc <io_put_hex+0xd4>
    2808:	e2857001 	add	r7, r5, #1
    280c:	e20c300f 	and	r3, ip, #15
    2810:	e7d18003 	ldrb	r8, [r1, r3]
    2814:	e5e08001 	strb	r8, [r0, #1]!
    2818:	e1b0c22c 	lsrs	ip, ip, #4
    281c:	11a05007 	movne	r5, r7
    2820:	1afffff8 	bne	2808 <io_put_hex+0x20>
    2824:	e3570000 	cmp	r7, #0
    2828:	da00000c 	ble	2860 <io_put_hex+0x78>
    282c:	e28d1008 	add	r1, sp, #8
    2830:	e0813005 	add	r3, r1, r5
    2834:	e5533008 	ldrb	r3, [r3, #-8]
    2838:	e3530030 	cmp	r3, #48	; 0x30
    283c:	1a000008 	bne	2864 <io_put_hex+0x7c>
    2840:	ea000003 	b	2854 <io_put_hex+0x6c>
    2844:	e2455001 	sub	r5, r5, #1
    2848:	e7dd3005 	ldrb	r3, [sp, r5]
    284c:	e3530030 	cmp	r3, #48	; 0x30
    2850:	1a000003 	bne	2864 <io_put_hex+0x7c>
    2854:	e3550000 	cmp	r5, #0
    2858:	cafffff9 	bgt	2844 <io_put_hex+0x5c>
    285c:	ea000000 	b	2864 <io_put_hex+0x7c>
    2860:	e1a05007 	mov	r5, r7
    2864:	e2857001 	add	r7, r5, #1
    2868:	e1520007 	cmp	r2, r7
    286c:	9a000006 	bls	288c <io_put_hex+0xa4>
    2870:	e1a04002 	mov	r4, r2
    2874:	e1a00006 	mov	r0, r6
    2878:	e1a01009 	mov	r1, r9
    287c:	ebffff18 	bl	24e4 <io_put_char>
    2880:	e2444001 	sub	r4, r4, #1
    2884:	e1540007 	cmp	r4, r7
    2888:	8afffff9 	bhi	2874 <io_put_hex+0x8c>
    288c:	e3550000 	cmp	r5, #0
    2890:	ba000007 	blt	28b4 <io_put_hex+0xcc>
    2894:	e28d3000 	add	r3, sp, #0
    2898:	e0834005 	add	r4, r3, r5
    289c:	e24d5001 	sub	r5, sp, #1
    28a0:	e1a00006 	mov	r0, r6
    28a4:	e4541001 	ldrb	r1, [r4], #-1
    28a8:	ebffff0d 	bl	24e4 <io_put_char>
    28ac:	e1540005 	cmp	r4, r5
    28b0:	1afffffa 	bne	28a0 <io_put_hex+0xb8>
    28b4:	e28dd00c 	add	sp, sp, #12
    28b8:	e8bd83f0 	pop	{r4, r5, r6, r7, r8, r9, pc}
    28bc:	00002f20 	.word	0x00002f20

000028c0 <io_put_fixed>:
    28c0:	e92d47f0 	push	{r4, r5, r6, r7, r8, r9, sl, lr}
    28c4:	e24dd028 	sub	sp, sp, #40	; 0x28
    28c8:	e1a06000 	mov	r6, r0
    28cc:	e1a08002 	mov	r8, r2
    28d0:	e59d7048 	ldr	r7, [sp, #72]	; 0x48
    28d4:	e3510000 	cmp	r1, #0
    28d8:	b2611000 	rsblt	r1, r1, #0
    28dc:	b3a0902d 	movlt	r9, #45	; 0x2d
    28e0:	a3a09000 	movge	r9, #0
    28e4:	e1a0c001 	mov	ip, r1
    28e8:	e353000c 	cmp	r3, #12
    28ec:	23a0300c 	movcs	r3, #12
    28f0:	e3530000 	cmp	r3, #0
    28f4:	0a00000c 	beq	292c <io_put_fixed+0x6c>
    28f8:	e28de00c 	add	lr, sp, #12
    28fc:	e08e2003 	add	r2, lr, r3
    2900:	e1a0080c 	lsl	r0, ip, #16
    2904:	e1a00820 	lsr	r0, r0, #16
    2908:	e0800100 	add	r0, r0, r0, lsl #2
    290c:	e1a00080 	lsl	r0, r0, #1
    2910:	e1a0c000 	mov	ip, r0
    2914:	e1a00820 	lsr	r0, r0, #16
    2918:	e2800030 	add	r0, r0, #48	; 0x30
    291c:	e5620001 	strb	r0, [r2, #-1]!
    2920:	e152000e 	cmp	r2, lr
    2924:	1afffff5 	bne	2900 <io_put_fixed+0x40>
    2928:	ea000001 	b	2934 <io_put_fixed+0x74>
    292c:	e1a05003 	mov	r5, r3
    2930:	ea000000 	b	2938 <io_put_fixed+0x78>
    2934:	e1a05003 	mov	r5, r3
    2938:	e1a0c80c 	lsl	ip, ip, #16
    293c:	e1a0e82c 	lsr	lr, ip, #16
    2940:	e08ee10e 	add	lr, lr, lr, lsl #2
    2944:	e35e090a 	cmp	lr, #163840	; 0x28000
    2948:	33a0e000 	movcc	lr, #0
    294c:	23a0e001 	movcs	lr, #1
    2950:	e28d200c 	add	r2, sp, #12
    2954:	e3a0c000 	mov	ip, #0
    2958:	e1a0a00c 	mov	sl, ip
    295c:	e3a04030 	mov	r4, #48	; 0x30
    2960:	ea000006 	b	2980 <io_put_fixed+0xc0>
    2964:	e4d20001 	ldrb	r0, [r2], #1
    2968:	e28cc001 	add	ip, ip, #1
    296c:	e3500038 	cmp	r0, #56	; 0x38
    2970:	85424001 	strbhi	r4, [r2, #-1]
    2974:	92800001 	addls	r0, r0, #1
    2978:	95420001 	strbls	r0, [r2, #-1]
    297c:	91a0e00a 	movls	lr, sl
    2980:	e153000c 	cmp	r3, ip
    2984:	93a00000 	movls	r0, #0
    2988:	820e0001 	andhi	r0, lr, #1
    298c:	e3500000 	cmp	r0, #0
    2990:	1afffff3 	bne	2964 <io_put_fixed+0xa4>
    2994:	e3530000 	cmp	r3, #0
    2998:	128d2028 	addne	r2, sp, #40	; 0x28
    299c:	10823005 	addne	r3, r2, r5
    29a0:	13a0202e 	movne	r2, #46	; 0x2e
    29a4:	1543201c 	strbne	r2, [r3, #-28]	; 0xffffffe4
    29a8:	12855001 	addne	r5, r5, #1
    29ac:	e08e1841 	add	r1, lr, r1, asr #16
    29b0:	e28d3028 	add	r3, sp, #40	; 0x28
    29b4:	e083a005 	add	sl, r3, r5
    29b8:	e24aa01d 	sub	sl, sl, #29
    29bc:	e28d0004 	add	r0, sp, #4
    29c0:	ebfff605 	bl	1dc <div10>
    29c4:	e2854001 	add	r4, r5, #1
    29c8:	e59d3008 	ldr	r3, [sp, #8]
    29cc:	e2833030 	add	r3, r3, #48	; 0x30
    29d0:	e5ea3001 	strb	r3, [sl, #1]!
    29d4:	e59d1004 	ldr	r1, [sp, #4]
    29d8:	e3510000 	cmp	r1, #0
    29dc:	11a05004 	movne	r5, r4
    29e0:	1afffff5 	bne	29bc <io_put_fixed+0xfc>
    29e4:	e1a03004 	mov	r3, r4
    29e8:	e3590000 	cmp	r9, #0
    29ec:	12854002 	addne	r4, r5, #2
    29f0:	128d2028 	addne	r2, sp, #40	; 0x28
    29f4:	10823003 	addne	r3, r2, r3
    29f8:	1543901c 	strbne	r9, [r3, #-28]	; 0xffffffe4
    29fc:	e2845001 	add	r5, r4, #1
    2a00:	e1580005 	cmp	r8, r5
    2a04:	9a000005 	bls	2a20 <io_put_fixed+0x160>
    2a08:	e1a00006 	mov	r0, r6
    2a0c:	e1a01007 	mov	r1, r7
    2a10:	ebfffeb3 	bl	24e4 <io_put_char>
    2a14:	e2488001 	sub	r8, r8, #1
    2a18:	e1550008 	cmp	r5, r8
    2a1c:	3afffff9 	bcc	2a08 <io_put_fixed+0x148>
    2a20:	e3540000 	cmp	r4, #0
    2a24:	0a000007 	beq	2a48 <io_put_fixed+0x188>
    2a28:	e28d300c 	add	r3, sp, #12
    2a2c:	e0835004 	add	r5, r3, r4
    2a30:	e2444001 	sub	r4, r4, #1
    2a34:	e1a00006 	mov	r0, r6
    2a38:	e5751001 	ldrb	r1, [r5, #-1]!
    2a3c:	ebfffea8 	bl	24e4 <io_put_char>
    2a40:	e3540000 	cmp	r4, #0
    2a44:	1afffff9 	bne	2a30 <io_put_fixed+0x170>
    2a48:	e28dd028 	add	sp, sp, #40	; 0x28
    2a4c:	e8bd87f0 	pop	{r4, r5, r6, r7, r8, r9, sl, pc}

00002a50 <io_printf>:
    2a50:	e92d000e 	push	{r1, r2, r3}
    2a54:	e92d41f0 	push	{r4, r5, r6, r7, r8, lr}
    2a58:	e24dd014 	sub	sp, sp, #20
    2a5c:	e1a05000 	mov	r5, r0
    2a60:	e59d802c 	ldr	r8, [sp, #44]	; 0x2c
    2a64:	e3500003 	cmp	r0, #3
    2a68:	0a000090 	beq	2cb0 <io_printf+0x260>
    2a6c:	83a03000 	movhi	r3, #0
    2a70:	859f2248 	ldrhi	r2, [pc, #584]	; 2cc0 <io_printf+0x270>
    2a74:	85823000 	strhi	r3, [r2]
    2a78:	85c03000 	strbhi	r3, [r0]
    2a7c:	e28d3030 	add	r3, sp, #48	; 0x30
    2a80:	e58d300c 	str	r3, [sp, #12]
    2a84:	e3a06000 	mov	r6, #0
    2a88:	e3a07006 	mov	r7, #6
    2a8c:	e5d81000 	ldrb	r1, [r8]
    2a90:	e3510000 	cmp	r1, #0
    2a94:	0a000085 	beq	2cb0 <io_printf+0x260>
    2a98:	e3510025 	cmp	r1, #37	; 0x25
    2a9c:	0a000003 	beq	2ab0 <io_printf+0x60>
    2aa0:	e2888001 	add	r8, r8, #1
    2aa4:	e1a00005 	mov	r0, r5
    2aa8:	ebfffe8d 	bl	24e4 <io_put_char>
    2aac:	eafffff6 	b	2a8c <io_printf+0x3c>
    2ab0:	e2884002 	add	r4, r8, #2
    2ab4:	e5d81001 	ldrb	r1, [r8, #1]
    2ab8:	e3510000 	cmp	r1, #0
    2abc:	0a00007b 	beq	2cb0 <io_printf+0x260>
    2ac0:	e3510030 	cmp	r1, #48	; 0x30
    2ac4:	01a03001 	moveq	r3, r1
    2ac8:	13a03020 	movne	r3, #32
    2acc:	e1a02006 	mov	r2, r6
    2ad0:	ea000005 	b	2aec <io_printf+0x9c>
    2ad4:	e0822102 	add	r2, r2, r2, lsl #2
    2ad8:	e0812082 	add	r2, r1, r2, lsl #1
    2adc:	e2422030 	sub	r2, r2, #48	; 0x30
    2ae0:	e4d41001 	ldrb	r1, [r4], #1
    2ae4:	e3510000 	cmp	r1, #0
    2ae8:	0a000070 	beq	2cb0 <io_printf+0x260>
    2aec:	e241c030 	sub	ip, r1, #48	; 0x30
    2af0:	e20cc0ff 	and	ip, ip, #255	; 0xff
    2af4:	e35c0009 	cmp	ip, #9
    2af8:	9afffff5 	bls	2ad4 <io_printf+0x84>
    2afc:	e1a00004 	mov	r0, r4
    2b00:	e351002e 	cmp	r1, #46	; 0x2e
    2b04:	11a0c007 	movne	ip, r7
    2b08:	1a00000e 	bne	2b48 <io_printf+0xf8>
    2b0c:	e2844001 	add	r4, r4, #1
    2b10:	e5d01000 	ldrb	r1, [r0]
    2b14:	e1a0c006 	mov	ip, r6
    2b18:	ea000005 	b	2b34 <io_printf+0xe4>
    2b1c:	e08cc10c 	add	ip, ip, ip, lsl #2
    2b20:	e081c08c 	add	ip, r1, ip, lsl #1
    2b24:	e24cc030 	sub	ip, ip, #48	; 0x30
    2b28:	e4d41001 	ldrb	r1, [r4], #1
    2b2c:	e3510000 	cmp	r1, #0
    2b30:	0a00005e 	beq	2cb0 <io_printf+0x260>
    2b34:	e2410030 	sub	r0, r1, #48	; 0x30
    2b38:	e20000ff 	and	r0, r0, #255	; 0xff
    2b3c:	e3500009 	cmp	r0, #9
    2b40:	9afffff5 	bls	2b1c <io_printf+0xcc>
    2b44:	eaffffff 	b	2b48 <io_printf+0xf8>
    2b48:	e2410063 	sub	r0, r1, #99	; 0x63
    2b4c:	e3500017 	cmp	r0, #23
    2b50:	979ff100 	ldrls	pc, [pc, r0, lsl #2]
    2b54:	ea000051 	b	2ca0 <io_printf+0x250>
    2b58:	00002bb8 	.word	0x00002bb8
    2b5c:	00002bf8 	.word	0x00002bf8
    2b60:	00002ca0 	.word	0x00002ca0
    2b64:	00002c38 	.word	0x00002c38
    2b68:	00002ca0 	.word	0x00002ca0
    2b6c:	00002ca0 	.word	0x00002ca0
    2b70:	00002ca0 	.word	0x00002ca0
    2b74:	00002ca0 	.word	0x00002ca0
    2b78:	00002ca0 	.word	0x00002ca0
    2b7c:	00002ca0 	.word	0x00002ca0
    2b80:	00002ca0 	.word	0x00002ca0
    2b84:	00002ca0 	.word	0x00002ca0
    2b88:	00002ca0 	.word	0x00002ca0
    2b8c:	00002ca0 	.word	0x00002ca0
    2b90:	00002ca0 	.word	0x00002ca0
    2b94:	00002ca0 	.word	0x00002ca0
    2b98:	00002bd8 	.word	0x00002bd8
    2b9c:	00002ca0 	.word	0x00002ca0
    2ba0:	00002c18 	.word	0x00002c18
    2ba4:	00002ca0 	.word	0x00002ca0
    2ba8:	00002ca0 	.word	0x00002ca0
    2bac:	00002c60 	.word	0x00002c60
    2bb0:	00002ca0 	.word	0x00002ca0
    2bb4:	00002c80 	.word	0x00002c80
    2bb8:	e59d300c 	ldr	r3, [sp, #12]
    2bbc:	e2832004 	add	r2, r3, #4
    2bc0:	e58d200c 	str	r2, [sp, #12]
    2bc4:	e1a00005 	mov	r0, r5
    2bc8:	e5931000 	ldr	r1, [r3]
    2bcc:	ebfffe44 	bl	24e4 <io_put_char>
    2bd0:	e1a08004 	mov	r8, r4
    2bd4:	eaffffac 	b	2a8c <io_printf+0x3c>
    2bd8:	e59d300c 	ldr	r3, [sp, #12]
    2bdc:	e2831004 	add	r1, r3, #4
    2be0:	e58d100c 	str	r1, [sp, #12]
    2be4:	e1a00005 	mov	r0, r5
    2be8:	e5931000 	ldr	r1, [r3]
    2bec:	ebfffe4f 	bl	2530 <io_put_str>
    2bf0:	e1a08004 	mov	r8, r4
    2bf4:	eaffffa4 	b	2a8c <io_printf+0x3c>
    2bf8:	e59d100c 	ldr	r1, [sp, #12]
    2bfc:	e2810004 	add	r0, r1, #4
    2c00:	e58d000c 	str	r0, [sp, #12]
    2c04:	e1a00005 	mov	r0, r5
    2c08:	e5911000 	ldr	r1, [r1]
    2c0c:	ebfffe68 	bl	25b4 <io_put_int>
    2c10:	e1a08004 	mov	r8, r4
    2c14:	eaffff9c 	b	2a8c <io_printf+0x3c>
    2c18:	e59d100c 	ldr	r1, [sp, #12]
    2c1c:	e2810004 	add	r0, r1, #4
    2c20:	e58d000c 	str	r0, [sp, #12]
    2c24:	e1a00005 	mov	r0, r5
    2c28:	e5911000 	ldr	r1, [r1]
    2c2c:	ebfffea2 	bl	26bc <io_put_uint>
    2c30:	e1a08004 	mov	r8, r4
    2c34:	eaffff94 	b	2a8c <io_printf+0x3c>
    2c38:	e59d100c 	ldr	r1, [sp, #12]
    2c3c:	e2810004 	add	r0, r1, #4
    2c40:	e58d000c 	str	r0, [sp, #12]
    2c44:	e5911000 	ldr	r1, [r1]
    2c48:	e58d3000 	str	r3, [sp]
    2c4c:	e1a00005 	mov	r0, r5
    2c50:	e1a0300c 	mov	r3, ip
    2c54:	ebffff19 	bl	28c0 <io_put_fixed>
    2c58:	e1a08004 	mov	r8, r4
    2c5c:	eaffff8a 	b	2a8c <io_printf+0x3c>
    2c60:	e59d100c 	ldr	r1, [sp, #12]
    2c64:	e2810004 	add	r0, r1, #4
    2c68:	e58d000c 	str	r0, [sp, #12]
    2c6c:	e1a00005 	mov	r0, r5
    2c70:	e5911000 	ldr	r1, [r1]
    2c74:	ebfffedb 	bl	27e8 <io_put_hex>
    2c78:	e1a08004 	mov	r8, r4
    2c7c:	eaffff82 	b	2a8c <io_printf+0x3c>
    2c80:	e59d300c 	ldr	r3, [sp, #12]
    2c84:	e2831004 	add	r1, r3, #4
    2c88:	e58d100c 	str	r1, [sp, #12]
    2c8c:	e1a00005 	mov	r0, r5
    2c90:	e5931000 	ldr	r1, [r3]
    2c94:	ebfffec1 	bl	27a0 <io_put_zhex>
    2c98:	e1a08004 	mov	r8, r4
    2c9c:	eaffff7a 	b	2a8c <io_printf+0x3c>
    2ca0:	e1a00005 	mov	r0, r5
    2ca4:	ebfffe0e 	bl	24e4 <io_put_char>
    2ca8:	e1a08004 	mov	r8, r4
    2cac:	eaffff76 	b	2a8c <io_printf+0x3c>
    2cb0:	e28dd014 	add	sp, sp, #20
    2cb4:	e8bd41f0 	pop	{r4, r5, r6, r7, r8, lr}
    2cb8:	e28dd00c 	add	sp, sp, #12
    2cbc:	e12fff1e 	bx	lr
    2cc0:	00400abc 	.word	0x00400abc
    2cc4:	4b524153 	.word	0x4b524153
    2cc8:	6970532f 	.word	0x6970532f
    2ccc:	6b614e4e 	.word	0x6b614e4e
    2cd0:	00007265 	.word	0x00007265

00002cd4 <S3_LEDS>:
    2cd4:	00010002 00000020                       .... ...

00002cdc <S2_LEDS>:
    2cdc:	00010003 00400002 615b0909 775f6970     ......@...[api_w
    2cec:	5d6e7261 72617720 676e696e 6f74203a     arn] warning: to
    2cfc:	616d206f 4620796e 65205149 746e6576     o many FIQ event
    2d0c:	00000a73 615b0909 775f6970 5d6e7261     s.....[api_warn]
    2d1c:	72617720 676e696e 6174203a 71206b73      warning: task q
    2d2c:	65756575 6c756620 2528206c 000a2975     ueue full (%u)..
    2d3c:	615b0909 775f6970 5d6e7261 72617720     ..[api_warn] war
    2d4c:	676e696e 4d44203a 75712041 20657565     ning: DMA queue 
    2d5c:	6c6c7566 75252820 00000a29 615b0909     full (%u).....[a
    2d6c:	775f6970 5d6e7261 72617720 676e696e     pi_warn] warning
    2d7c:	6170203a 74656b63 65757120 66206575     : packet queue f
    2d8c:	206c6c75 29752528 0000000a 615b0909     ull (%u)......[a
    2d9c:	775f6970 5d6e7261 72617720 676e696e     pi_warn] warning
    2dac:	6166203a 64656c69 206f7420 636e7973     : failed to sync
    2dbc:	6e6f7268 20657369 2f642528 20296425     hronise (%d/%d) 
    2dcc:	2f642528 2e296425 0000000a 615b0909     (%d/%d).......[a
    2ddc:	775f6970 5d6e7261 72617720 676e696e     pi_warn] warning
    2dec:	6166203a 64656c69 206f7420 636e7973     : failed to sync
    2dfc:	6e6f7268 20657369 2f642528 2e296425     hronise (%d/%d).
    2e0c:	0000000a 615b0909 775f6970 5d6e7261     ......[api_warn]
    2e1c:	72617720 676e696e 7973203a 7268636e      warning: synchr
    2e2c:	73696e6f 6f697461 6166206e 64656c69     onisation failed
    2e3c:	64722820 296f6779 00000a2e 615b0909      (rdygo)......[a
    2e4c:	775f6970 5d6e7261 72617720 676e696e     pi_warn] warning
    2e5c:	7973203a 7268636e 73696e6f 6f697461     : synchronisatio
    2e6c:	6166206e 64656c69 6f6c2820 2e296b63     n failed (lock).
    2e7c:	0000000a 615b0909 775f6970 5d6e7261     ......[api_warn]
    2e8c:	72617720 676e696e 7973203a 7268636e      warning: synchr
    2e9c:	73696e6f 6f697461 6974206e 756f656d     onisation timeou
    2eac:	67282074 0a2e296f 00000000 615b0909     t (go)........[a
    2ebc:	645f6970 67756265 4452205d 203a3159     pi_debug] RDY1: 
    2ecc:	7830206b 207a3825 7830206d 207a3825     k 0x%8z m 0x%8z 
    2edc:	78302072 0a7a3825 00000000 615b0909     r 0x%8z.......[a
    2eec:	775f6970 5d6e7261 72617720 676e696e     pi_warn] warning
    2efc:	6177203a 6e697469 6f662067 6f722072     : waiting for ro
    2f0c:	72657475 696e6920 61662074 64656c69     uter init failed
    2f1c:	00000a2e                                ....

00002f20 <hex>:
    2f20:	33323130 37363534 62613938 66656463     0123456789abcdef
    2f30:	00000000 deaddead                       ........

00002f38 <process_mc_packet>:
    2f38:	e92d4008 	push	{r3, lr}
    2f3c:	e1a03000 	mov	r3, r0
    2f40:	e59f201c 	ldr	r2, [pc, #28]	; 2f64 <process_mc_packet+0x2c>
    2f44:	e5922000 	ldr	r2, [r2]
    2f48:	e1500002 	cmp	r0, r2
    2f4c:	e3a00000 	mov	r0, #0
    2f50:	059f1010 	ldreq	r1, [pc, #16]	; 2f68 <process_mc_packet+0x30>
    2f54:	01a02003 	moveq	r2, r3
    2f58:	159f100c 	ldrne	r1, [pc, #12]	; 2f6c <process_mc_packet+0x34>
    2f5c:	ebfffebb 	bl	2a50 <io_printf>
    2f60:	e8bd8008 	pop	{r3, pc}
    2f64:	004002b8 	.word	0x004002b8
    2f68:	00003080 	.word	0x00003080
    2f6c:	000030a0 	.word	0x000030a0

00002f70 <send_angles>:
    2f70:	e92d4008 	push	{r3, lr}
    2f74:	e3a00000 	mov	r0, #0
    2f78:	e59f101c 	ldr	r1, [pc, #28]	; 2f9c <send_angles+0x2c>
    2f7c:	e59f301c 	ldr	r3, [pc, #28]	; 2fa0 <send_angles+0x30>
    2f80:	e5932000 	ldr	r2, [r3]
    2f84:	ebfffeb1 	bl	2a50 <io_printf>
    2f88:	e3a00002 	mov	r0, #2
    2f8c:	e3a0100a 	mov	r1, #10
    2f90:	e3a02001 	mov	r2, #1
    2f94:	ebfff9c9 	bl	16c0 <spin1_send_mc_packet>
    2f98:	e8bd8008 	pop	{r3, pc}
    2f9c:	000030c8 	.word	0x000030c8
    2fa0:	004002b8 	.word	0x004002b8

00002fa4 <reset_leds>:
    2fa4:	e92d4008 	push	{r3, lr}
    2fa8:	e3a0000a 	mov	r0, #10
    2fac:	ebfffc00 	bl	1fb4 <spin1_led_control>
    2fb0:	e8bd8008 	pop	{r3, pc}

00002fb4 <c_main>:
    2fb4:	e92d4038 	push	{r3, r4, r5, lr}
    2fb8:	e3e020c7 	mvn	r2, #199	; 0xc7
    2fbc:	e59f3088 	ldr	r3, [pc, #136]	; 304c <c_main+0x98>
    2fc0:	e5832000 	str	r2, [r3]
    2fc4:	e3a020c8 	mov	r2, #200	; 0xc8
    2fc8:	e59f3080 	ldr	r3, [pc, #128]	; 3050 <c_main+0x9c>
    2fcc:	e5832000 	str	r2, [r3]
    2fd0:	e3a00002 	mov	r0, #2
    2fd4:	e1a01000 	mov	r1, r0
    2fd8:	e59f2074 	ldr	r2, [pc, #116]	; 3054 <c_main+0xa0>
    2fdc:	ebfff8d3 	bl	1330 <spin1_application_core_map>
    2fe0:	ebfffbc7 	bl	1f04 <spin1_get_core_id>
    2fe4:	e59f406c 	ldr	r4, [pc, #108]	; 3058 <c_main+0xa4>
    2fe8:	e5840000 	str	r0, [r4]
    2fec:	ebfffbc8 	bl	1f14 <spin1_get_chip_id>
    2ff0:	e59f5064 	ldr	r5, [pc, #100]	; 305c <c_main+0xa8>
    2ff4:	e5850000 	str	r0, [r5]
    2ff8:	e5943000 	ldr	r3, [r4]
    2ffc:	e3a00064 	mov	r0, #100	; 0x64
    3000:	e0000093 	mul	r0, r3, r0
    3004:	ebfff944 	bl	151c <spin1_delay_us>
    3008:	e3a00000 	mov	r0, #0
    300c:	e59f104c 	ldr	r1, [pc, #76]	; 3060 <c_main+0xac>
    3010:	e5942000 	ldr	r2, [r4]
    3014:	e5953000 	ldr	r3, [r5]
    3018:	ebfffe8c 	bl	2a50 <io_printf>
    301c:	e59f0040 	ldr	r0, [pc, #64]	; 3064 <c_main+0xb0>
    3020:	ebfff87d 	bl	121c <spin1_set_timer_tick>
    3024:	e3a00002 	mov	r0, #2
    3028:	e59f1038 	ldr	r1, [pc, #56]	; 3068 <c_main+0xb4>
    302c:	e3a02001 	mov	r2, #1
    3030:	ebfff84b 	bl	1164 <spin1_callback_on>
    3034:	e3a00000 	mov	r0, #0
    3038:	e59f102c 	ldr	r1, [pc, #44]	; 306c <c_main+0xb8>
    303c:	e3a02002 	mov	r2, #2
    3040:	ebfff847 	bl	1164 <spin1_callback_on>
    3044:	ebfff9f7 	bl	1828 <spin1_start>
    3048:	e8bd8038 	pop	{r3, r4, r5, pc}
    304c:	004002b4 	.word	0x004002b4
    3050:	004002b0 	.word	0x004002b0
    3054:	00400000 	.word	0x00400000
    3058:	004002b8 	.word	0x004002b8
    305c:	004002bc 	.word	0x004002bc
    3060:	000030e8 	.word	0x000030e8
    3064:	000f4240 	.word	0x000f4240
    3068:	00002f70 	.word	0x00002f70
    306c:	00002f38 	.word	0x00002f38

00003070 <__proc_aplx_from_arm>:
    3070:	e59fc000 	ldr	ip, [pc]	; 3078 <__proc_aplx_from_arm+0x8>
    3074:	e12fff1c 	bx	ip
    3078:	00000241 	.word	0x00000241
    307c:	00000000 	.word	0x00000000
    3080:	65726f43 	.word	0x65726f43
    3084:	3a646920 	.word	0x3a646920
    3088:	20642520 	.word	0x20642520
    308c:	6170202d 	.word	0x6170202d
    3090:	74656b63 	.word	0x74656b63
    3094:	63657220 	.word	0x63657220
    3098:	65766965 	.word	0x65766965
    309c:	00000a64 	.word	0x00000a64
    30a0:	65726f43 	.word	0x65726f43
    30a4:	3a646920 	.word	0x3a646920
    30a8:	20642520 	.word	0x20642520
    30ac:	6177202d 	.word	0x6177202d
    30b0:	6f6e2073 	.word	0x6f6e2073
    30b4:	20612074 	.word	0x20612074
    30b8:	6b636170 	.word	0x6b636170
    30bc:	66207465 	.word	0x66207465
    30c0:	6d20726f 	.word	0x6d20726f
    30c4:	00000a65 	.word	0x00000a65
    30c8:	646e6573 	.word	0x646e6573
    30cc:	20676e69 	.word	0x20676e69
    30d0:	6f746f6d 	.word	0x6f746f6d
    30d4:	6f632072 	.word	0x6f632072
    30d8:	2064726f 	.word	0x2064726f
    30dc:	6f63202d 	.word	0x6f63202d
    30e0:	25206572 	.word	0x25206572
    30e4:	00000a64 	.word	0x00000a64
    30e8:	65726f43 	.word	0x65726f43
    30ec:	3a646920 	.word	0x3a646920
    30f0:	2c642520 	.word	0x2c642520
    30f4:	69684320 	.word	0x69684320
    30f8:	64692070 	.word	0x64692070
    30fc:	6425203a 	.word	0x6425203a
    3100:	73202d20 	.word	0x73202d20
    3104:	74726174 	.word	0x74726174
    3108:	000a6465 	.word	0x000a6465
